
/var/folders/mz/_z9vt_y13rdf9tt_4qkvv0k40000gn/T/arduino_build_441522/UPDI4AVR_FW634B.ino.elf:     file format elf32-avr


Disassembly of section .data:

00803800 <__data_start>:
__data_start():
  803800:	55 c8       	rjmp	.-3926   	; 0x8028ac <__RODATA_PM_OFFSET__+0x7fa8ac>
  803802:	00 c3       	rjmp	.+1536   	; 0x803e04 <__bss_end+0x358>
  803804:	04 55       	subi	r16, 0x54	; 84

00803805 <UPDI::st8(unsigned long, unsigned char)::set_ptr>:
  803805:	55 48 00 00 00 00                                   UH....

0080380b <UPDI::ld8(unsigned long)::set_ptr>:
  80380b:	55 08 00 00 00 00                                   U.....

00803811 <UPDI::get_cs_stat(unsigned char)::set_ptr>:
  803811:	55 00                                               U.

00803813 <UPDI::set_cs_stat(unsigned char, unsigned char)::set_ptr>:
  803813:	55 00 00                                            U..

00803816 <UPDI::nvmprog_key>:
  803816:	55 e0 20 67 6f 72 50 4d 56 4e                       U. gorPMVN

00803820 <UPDI::read_sib(unsigned char*)::set_ptr>:
  803820:	55 e6                                               U.

00803822 <UPDI::urowwrite_key>:
  803822:	55 e0 65 74 26 73 55 4d 56 4e                       U.et&sUMVN

0080382c <UPDI::erase_key>:
  80382c:	55 e0 65 73 61 72 45 4d 56 4e                       U.esarEMVN

00803836 <JTAG2::param_baud_rate_val>:
  803836:	04 00                                               ..

00803838 <JTAG2::before_seqnum>:
  803838:	ff ff                                               ..

0080383a <UPDI::_set_repeat>:
  80383a:	55 a0 00 55 04                                      U..U.

0080383f <UPDI::_set_ptr_l>:
  80383f:	55 6a 00 00 00 00 00                                Uj.....

Disassembly of section .text:

00000000 <__vectors>:
__vectors():
../../../../crt1/gcrt1.S:61
       0:	67 c0       	rjmp	.+206    	; 0xd0 <__ctors_end>
       2:	00 00       	nop
../../../../crt1/gcrt1.S:67
       4:	81 c0       	rjmp	.+258    	; 0x108 <__bad_interrupt>
       6:	00 00       	nop
../../../../crt1/gcrt1.S:68
       8:	7f c0       	rjmp	.+254    	; 0x108 <__bad_interrupt>
       a:	00 00       	nop
../../../../crt1/gcrt1.S:69
       c:	7d c0       	rjmp	.+250    	; 0x108 <__bad_interrupt>
       e:	00 00       	nop
../../../../crt1/gcrt1.S:70
      10:	7b c0       	rjmp	.+246    	; 0x108 <__bad_interrupt>
      12:	00 00       	nop
../../../../crt1/gcrt1.S:71
      14:	79 c0       	rjmp	.+242    	; 0x108 <__bad_interrupt>
      16:	00 00       	nop
../../../../crt1/gcrt1.S:72
      18:	06 c7       	rjmp	.+3596   	; 0xe26 <__vector_6>
      1a:	00 00       	nop
../../../../crt1/gcrt1.S:73
      1c:	35 c7       	rjmp	.+3690   	; 0xe88 <__vector_7>
      1e:	00 00       	nop
../../../../crt1/gcrt1.S:74
      20:	73 c0       	rjmp	.+230    	; 0x108 <__bad_interrupt>
      22:	00 00       	nop
../../../../crt1/gcrt1.S:75
      24:	71 c0       	rjmp	.+226    	; 0x108 <__bad_interrupt>
      26:	00 00       	nop
../../../../crt1/gcrt1.S:76
      28:	6f c0       	rjmp	.+222    	; 0x108 <__bad_interrupt>
      2a:	00 00       	nop
../../../../crt1/gcrt1.S:77
      2c:	6d c0       	rjmp	.+218    	; 0x108 <__bad_interrupt>
      2e:	00 00       	nop
../../../../crt1/gcrt1.S:78
      30:	6b c0       	rjmp	.+214    	; 0x108 <__bad_interrupt>
      32:	00 00       	nop
../../../../crt1/gcrt1.S:79
      34:	ed c6       	rjmp	.+3546   	; 0xe10 <__vector_13>
      36:	00 00       	nop
../../../../crt1/gcrt1.S:80
      38:	67 c0       	rjmp	.+206    	; 0x108 <__bad_interrupt>
      3a:	00 00       	nop
../../../../crt1/gcrt1.S:81
      3c:	65 c0       	rjmp	.+202    	; 0x108 <__bad_interrupt>
      3e:	00 00       	nop
../../../../crt1/gcrt1.S:82
      40:	63 c0       	rjmp	.+198    	; 0x108 <__bad_interrupt>
      42:	00 00       	nop
../../../../crt1/gcrt1.S:83
      44:	61 c0       	rjmp	.+194    	; 0x108 <__bad_interrupt>
      46:	00 00       	nop
../../../../crt1/gcrt1.S:84
      48:	5f c0       	rjmp	.+190    	; 0x108 <__bad_interrupt>
      4a:	00 00       	nop
../../../../crt1/gcrt1.S:85
      4c:	5d c0       	rjmp	.+186    	; 0x108 <__bad_interrupt>
      4e:	00 00       	nop
../../../../crt1/gcrt1.S:86
      50:	5b c0       	rjmp	.+182    	; 0x108 <__bad_interrupt>
      52:	00 00       	nop
../../../../crt1/gcrt1.S:87
      54:	59 c0       	rjmp	.+178    	; 0x108 <__bad_interrupt>
      56:	00 00       	nop
../../../../crt1/gcrt1.S:88
      58:	57 c0       	rjmp	.+174    	; 0x108 <__bad_interrupt>
      5a:	00 00       	nop
../../../../crt1/gcrt1.S:89
      5c:	55 c0       	rjmp	.+170    	; 0x108 <__bad_interrupt>
      5e:	00 00       	nop
../../../../crt1/gcrt1.S:90
      60:	53 c0       	rjmp	.+166    	; 0x108 <__bad_interrupt>
      62:	00 00       	nop
../../../../crt1/gcrt1.S:91
      64:	51 c0       	rjmp	.+162    	; 0x108 <__bad_interrupt>
      66:	00 00       	nop
../../../../crt1/gcrt1.S:92
      68:	4f c0       	rjmp	.+158    	; 0x108 <__bad_interrupt>
      6a:	00 00       	nop
../../../../crt1/gcrt1.S:93
      6c:	4d c0       	rjmp	.+154    	; 0x108 <__bad_interrupt>
      6e:	00 00       	nop
../../../../crt1/gcrt1.S:94
      70:	4b c0       	rjmp	.+150    	; 0x108 <__bad_interrupt>
      72:	00 00       	nop
../../../../crt1/gcrt1.S:95
      74:	49 c0       	rjmp	.+146    	; 0x108 <__bad_interrupt>
	...

00000078 <__trampolines_end>:
__trampolines_start():
      78:	86 01       	movw	r16, r12
      7a:	02 35       	cpi	r16, 0x52	; 82
      7c:	07 02       	muls	r16, r23
      7e:	02 22       	and	r0, r18
      80:	06 02       	muls	r16, r22
      82:	00 00       	nop
      84:	00 00       	nop
      86:	00 00       	nop
      88:	55 50       	subi	r21, 0x05	; 5
      8a:	44 49       	sbci	r20, 0x94	; 148
      8c:	34 41       	sbci	r19, 0x14	; 20
      8e:	56 52       	subi	r21, 0x26	; 38
      90:	00 00       	nop
      92:	00 00       	nop
	...

00000095 <JTAG2::BAUD_TABLE>:
      95:	00 00 1b 41 8d 20 47 10 23 08 12 04 b6 02 5b 01     ...A. G.#.....[.
      a5:	da 0a 04 01 ae 00 57 00 2b 00 39 01 9c 00 00 00     ......W.+.9.....
      b5:	00 00 0b 01 c8 00 a0 00 85 00 64 00 50 00 43 00     ..........d.P.C.
      c5:	3c 00 28 00 1b 00 14 00 0d 00 00                    <.(........

000000d0 <__ctors_end>:
__dtors_end():
../../../../crt1/gcrt1.S:230
      d0:	11 24       	eor	r1, r1
../../../../crt1/gcrt1.S:231
      d2:	1f be       	out	0x3f, r1	; 63
../../../../crt1/gcrt1.S:232
      d4:	cf ef       	ldi	r28, 0xFF	; 255
../../../../crt1/gcrt1.S:234
      d6:	cd bf       	out	0x3d, r28	; 61
../../../../crt1/gcrt1.S:236
      d8:	df e3       	ldi	r29, 0x3F	; 63
../../../../crt1/gcrt1.S:237
      da:	de bf       	out	0x3e, r29	; 62

000000dc <__do_copy_data>:
__do_copy_data():
      dc:	18 e3       	ldi	r17, 0x38	; 56
      de:	a0 e0       	ldi	r26, 0x00	; 0
      e0:	b8 e3       	ldi	r27, 0x38	; 56
      e2:	e4 ef       	ldi	r30, 0xF4	; 244
      e4:	f5 e1       	ldi	r31, 0x15	; 21
      e6:	02 c0       	rjmp	.+4      	; 0xec <__do_copy_data+0x10>
      e8:	05 90       	lpm	r0, Z+
      ea:	0d 92       	st	X+, r0
      ec:	a6 34       	cpi	r26, 0x46	; 70
      ee:	b1 07       	cpc	r27, r17
      f0:	d9 f7       	brne	.-10     	; 0xe8 <__do_copy_data+0xc>

000000f2 <__do_clear_bss>:
__do_clear_bss():
      f2:	2a e3       	ldi	r18, 0x3A	; 58
      f4:	a6 e4       	ldi	r26, 0x46	; 70
      f6:	b8 e3       	ldi	r27, 0x38	; 56
      f8:	01 c0       	rjmp	.+2      	; 0xfc <.do_clear_bss_start>

000000fa <.do_clear_bss_loop>:
      fa:	1d 92       	st	X+, r1

000000fc <.do_clear_bss_start>:
      fc:	ac 3a       	cpi	r26, 0xAC	; 172
      fe:	b2 07       	cpc	r27, r18
     100:	e1 f7       	brne	.-8      	; 0xfa <.do_clear_bss_loop>
.do_clear_bss_start():
../../../../crt1/gcrt1.S:314
     102:	f4 d6       	rcall	.+3560   	; 0xeec <main>
../../../../crt1/gcrt1.S:315
     104:	0c 94 f8 0a 	jmp	0x15f0	; 0x15f0 <_exit>

00000108 <__bad_interrupt>:
__vector_22():
../../../../crt1/gcrt1.S:209
     108:	7b cf       	rjmp	.-266    	; 0x0 <__vectors>

0000010a <UPDI::RECV()>:
_ZN4UPDI4RECVEv():
/Users/askn/Documents/Zinnia-tools/Products/hardware/UPDI4AVR/libraries/UPDI4AVR/examples/UPDI4AVR_FW634B/src/UPDI.cpp:103
/*
 * UPDI reception
 */

uint8_t UPDI::RECV (void) {
  loop_until_bit_is_set(UPDI_USART.STATUS, USART_RXCIF_bp);
     10a:	80 91 04 08 	lds	r24, 0x0804	; 0x800804 <__RODATA_PM_OFFSET__+0x7f8804>
     10e:	87 ff       	sbrs	r24, 7
     110:	fc cf       	rjmp	.-8      	; 0x10a <UPDI::RECV()>
/Users/askn/Documents/Zinnia-tools/Products/hardware/UPDI4AVR/libraries/UPDI4AVR/examples/UPDI4AVR_FW634B/src/UPDI.cpp:104
  UPDI_LASTH = UPDI_USART.RXDATAH ^ 0x80;
     112:	80 91 01 08 	lds	r24, 0x0801	; 0x800801 <__RODATA_PM_OFFSET__+0x7f8801>
     116:	80 58       	subi	r24, 0x80	; 128
     118:	8f bb       	out	0x1f, r24	; 31
/Users/askn/Documents/Zinnia-tools/Products/hardware/UPDI4AVR/libraries/UPDI4AVR/examples/UPDI4AVR_FW634B/src/UPDI.cpp:110
  #ifdef ENABLE_DEBUG_UPDI_SENDER
  UPDI_LASTL = UPDI_USART.RXDATAL;
  _send_buf_push(UPDI_LASTL);
  return UPDI_LASTL;
  #else
  return UPDI_LASTL = UPDI_USART.RXDATAL;
     11a:	80 91 00 08 	lds	r24, 0x0800	; 0x800800 <__RODATA_PM_OFFSET__+0x7f8800>
     11e:	8e bb       	out	0x1e, r24	; 30
/Users/askn/Documents/Zinnia-tools/Products/hardware/UPDI4AVR/libraries/UPDI4AVR/examples/UPDI4AVR_FW634B/src/UPDI.cpp:112
  #endif
}
     120:	08 95       	ret

00000122 <UPDI::SEND(unsigned char)>:
_ZN4UPDI4SENDEh():
/Users/askn/Documents/Zinnia-tools/Products/hardware/UPDI4AVR/libraries/UPDI4AVR/examples/UPDI4AVR_FW634B/src/UPDI.cpp:118

/*
 * UPDI transmission : Verify transmitted value with loopback reception
 */

bool UPDI::SEND (uint8_t _data) {
     122:	cf 93       	push	r28
     124:	c8 2f       	mov	r28, r24
/Users/askn/Documents/Zinnia-tools/Products/hardware/UPDI4AVR/libraries/UPDI4AVR/examples/UPDI4AVR_FW634B/src/UPDI.cpp:123
  #ifdef ENABLE_DEBUG_UPDI_SENDER
  _send_buf_push(_data);
  #endif
  bool _r;
  loop_until_bit_is_set(UPDI_USART.STATUS, USART_DREIF_bp);
     126:	80 91 04 08 	lds	r24, 0x0804	; 0x800804 <__RODATA_PM_OFFSET__+0x7f8804>
     12a:	85 ff       	sbrs	r24, 5
     12c:	fc cf       	rjmp	.-8      	; 0x126 <UPDI::SEND(unsigned char)+0x4>
/Users/askn/Documents/Zinnia-tools/Products/hardware/UPDI4AVR/libraries/UPDI4AVR/examples/UPDI4AVR_FW634B/src/UPDI.cpp:124
  UPDI_USART.STATUS = USART_TXCIF_bm;
     12e:	80 e4       	ldi	r24, 0x40	; 64
     130:	80 93 04 08 	sts	0x0804, r24	; 0x800804 <__RODATA_PM_OFFSET__+0x7f8804>
/Users/askn/Documents/Zinnia-tools/Products/hardware/UPDI4AVR/libraries/UPDI4AVR/examples/UPDI4AVR_FW634B/src/UPDI.cpp:125
  UPDI_USART.TXDATAL = _data;
     134:	c0 93 02 08 	sts	0x0802, r28	; 0x800802 <__RODATA_PM_OFFSET__+0x7f8802>
/Users/askn/Documents/Zinnia-tools/Products/hardware/UPDI4AVR/libraries/UPDI4AVR/examples/UPDI4AVR_FW634B/src/UPDI.cpp:126
  loop_until_bit_is_set(UPDI_USART.STATUS, USART_TXCIF_bp);
     138:	80 91 04 08 	lds	r24, 0x0804	; 0x800804 <__RODATA_PM_OFFSET__+0x7f8804>
     13c:	86 ff       	sbrs	r24, 6
     13e:	fc cf       	rjmp	.-8      	; 0x138 <UPDI::SEND(unsigned char)+0x16>
/Users/askn/Documents/Zinnia-tools/Products/hardware/UPDI4AVR/libraries/UPDI4AVR/examples/UPDI4AVR_FW634B/src/UPDI.cpp:127
  _r = _data == RECV();
     140:	e4 df       	rcall	.-56     	; 0x10a <UPDI::RECV()>
     142:	98 2f       	mov	r25, r24
     144:	81 e0       	ldi	r24, 0x01	; 1
     146:	9c 13       	cpse	r25, r28
     148:	80 e0       	ldi	r24, 0x00	; 0
/Users/askn/Documents/Zinnia-tools/Products/hardware/UPDI4AVR/libraries/UPDI4AVR/examples/UPDI4AVR_FW634B/src/UPDI.cpp:128
  if (!_r) bit_set(UPDI_LASTH, 0x20);
     14a:	9c 17       	cp	r25, r28
     14c:	11 f0       	breq	.+4      	; 0x152 <UPDI::SEND(unsigned char)+0x30>
     14e:	9f b3       	in	r25, 0x1f	; 31
     150:	9f bb       	out	0x1f, r25	; 31
/Users/askn/Documents/Zinnia-tools/Products/hardware/UPDI4AVR/libraries/UPDI4AVR/examples/UPDI4AVR_FW634B/src/UPDI.cpp:130
  return _r;
}
     152:	cf 91       	pop	r28
     154:	08 95       	ret

00000156 <UPDI::send_bytes(unsigned char*, unsigned char)>:
_ZN4UPDI10send_bytesEPhh():
/Users/askn/Documents/Zinnia-tools/Products/hardware/UPDI4AVR/libraries/UPDI4AVR/examples/UPDI4AVR_FW634B/src/UPDI.cpp:154
/*
 * Send byte chunks
 */

/* __attribute__((optimize("O0"))) */
bool UPDI::send_bytes (uint8_t *data, uint8_t len) {
     156:	0f 93       	push	r16
     158:	1f 93       	push	r17
     15a:	cf 93       	push	r28
     15c:	c6 2f       	mov	r28, r22
     15e:	8c 01       	movw	r16, r24
/Users/askn/Documents/Zinnia-tools/Products/hardware/UPDI4AVR/libraries/UPDI4AVR/examples/UPDI4AVR_FW634B/src/UPDI.cpp:156
  do {
    if (!SEND(*data++)) return false;
     160:	f8 01       	movw	r30, r16
     162:	81 91       	ld	r24, Z+
     164:	8f 01       	movw	r16, r30
     166:	dd df       	rcall	.-70     	; 0x122 <UPDI::SEND(unsigned char)>
     168:	88 23       	and	r24, r24
     16a:	11 f0       	breq	.+4      	; 0x170 <UPDI::send_bytes(unsigned char*, unsigned char)+0x1a>
/Users/askn/Documents/Zinnia-tools/Products/hardware/UPDI4AVR/libraries/UPDI4AVR/examples/UPDI4AVR_FW634B/src/UPDI.cpp:157
  } while (--len);
     16c:	c1 50       	subi	r28, 0x01	; 1
     16e:	c1 f7       	brne	.-16     	; 0x160 <UPDI::send_bytes(unsigned char*, unsigned char)+0xa>
/Users/askn/Documents/Zinnia-tools/Products/hardware/UPDI4AVR/libraries/UPDI4AVR/examples/UPDI4AVR_FW634B/src/UPDI.cpp:159
  return true;
}
     170:	cf 91       	pop	r28
     172:	1f 91       	pop	r17
     174:	0f 91       	pop	r16
     176:	08 95       	ret

00000178 <UPDI::set_cs_stat(unsigned char, unsigned char)>:
_ZN4UPDI11set_cs_statEhh():
/Users/askn/Documents/Zinnia-tools/Products/hardware/UPDI4AVR/libraries/UPDI4AVR/examples/UPDI4AVR_FW634B/src/UPDI.cpp:311
 * Control status transmission
 */

bool UPDI::set_cs_stat (uint8_t code, uint8_t data) {
  static uint8_t set_ptr[] = { UPDI_SYNCH, 0, 0 };
  set_ptr[1] = UPDI_STCS | code;
     178:	e3 e1       	ldi	r30, 0x13	; 19
     17a:	f8 e3       	ldi	r31, 0x38	; 56
     17c:	80 6c       	ori	r24, 0xC0	; 192
     17e:	81 83       	std	Z+1, r24	; 0x01
/Users/askn/Documents/Zinnia-tools/Products/hardware/UPDI4AVR/libraries/UPDI4AVR/examples/UPDI4AVR_FW634B/src/UPDI.cpp:312
  set_ptr[2] = data;
     180:	62 83       	std	Z+2, r22	; 0x02
/Users/askn/Documents/Zinnia-tools/Products/hardware/UPDI4AVR/libraries/UPDI4AVR/examples/UPDI4AVR_FW634B/src/UPDI.cpp:313
  return send_bytes(set_ptr, sizeof(set_ptr));
     182:	63 e0       	ldi	r22, 0x03	; 3
     184:	cf 01       	movw	r24, r30
     186:	e7 cf       	rjmp	.-50     	; 0x156 <UPDI::send_bytes(unsigned char*, unsigned char)>

00000188 <UPDI::sts8rsd(unsigned long, unsigned char*, unsigned char) [clone .constprop.17]>:
_ZN4UPDI7sts8rsdEmPhh.constprop.17():
/Users/askn/Documents/Zinnia-tools/Products/hardware/UPDI4AVR/libraries/UPDI4AVR/examples/UPDI4AVR_FW634B/src/UPDI.cpp:219
    } while (--repeat);
  }
  return len == 0;
}

bool UPDI::sts8rsd (uint32_t addr, uint8_t *data, uint8_t len) {
     188:	0f 93       	push	r16
     18a:	1f 93       	push	r17
     18c:	cf 93       	push	r28
     18e:	c4 2f       	mov	r28, r20
/Users/askn/Documents/Zinnia-tools/Products/hardware/UPDI4AVR/libraries/UPDI4AVR/examples/UPDI4AVR_FW634B/src/UPDI.cpp:220
  _CAPS32(_set_ptr_l[2])->dword = addr;
     190:	60 93 41 38 	sts	0x3841, r22	; 0x803841 <UPDI::_set_ptr_l+0x2>
     194:	70 93 42 38 	sts	0x3842, r23	; 0x803842 <UPDI::_set_ptr_l+0x3>
     198:	80 93 43 38 	sts	0x3843, r24	; 0x803843 <UPDI::_set_ptr_l+0x4>
     19c:	90 93 44 38 	sts	0x3844, r25	; 0x803844 <UPDI::_set_ptr_l+0x5>
/Users/askn/Documents/Zinnia-tools/Products/hardware/UPDI4AVR/libraries/UPDI4AVR/examples/UPDI4AVR_FW634B/src/UPDI.cpp:221
  _set_repeat[2] = len - 1;
     1a0:	8f ef       	ldi	r24, 0xFF	; 255
     1a2:	84 0f       	add	r24, r20
     1a4:	80 93 3c 38 	sts	0x383C, r24	; 0x80383c <UPDI::_set_repeat+0x2>
/Users/askn/Documents/Zinnia-tools/Products/hardware/UPDI4AVR/libraries/UPDI4AVR/examples/UPDI4AVR_FW634B/src/UPDI.cpp:222
  _set_repeat[4] = UPDI_PTR_INC|UPDI_ST|UPDI_DATA1;
     1a8:	84 e6       	ldi	r24, 0x64	; 100
     1aa:	80 93 3e 38 	sts	0x383E, r24	; 0x80383e <UPDI::_set_repeat+0x4>
/Users/askn/Documents/Zinnia-tools/Products/hardware/UPDI4AVR/libraries/UPDI4AVR/examples/UPDI4AVR_FW634B/src/UPDI.cpp:223
  if (!send_bytes(_set_ptr_l, sizeof(_set_ptr_l) - 1)) return false;
     1ae:	65 e0       	ldi	r22, 0x05	; 5
     1b0:	8f e3       	ldi	r24, 0x3F	; 63
     1b2:	98 e3       	ldi	r25, 0x38	; 56
     1b4:	d0 df       	rcall	.-96     	; 0x156 <UPDI::send_bytes(unsigned char*, unsigned char)>
     1b6:	88 23       	and	r24, r24
/Users/askn/Documents/Zinnia-tools/Products/hardware/UPDI4AVR/libraries/UPDI4AVR/examples/UPDI4AVR_FW634B/src/UPDI.cpp:224
  if (UPDI_ACK != RECV()) return false;
     1b8:	e1 f0       	breq	.+56     	; 0x1f2 <UPDI::sts8rsd(unsigned long, unsigned char*, unsigned char) [clone .constprop.17]+0x6a>
     1ba:	a7 df       	rcall	.-178    	; 0x10a <UPDI::RECV()>
     1bc:	80 34       	cpi	r24, 0x40	; 64
/Users/askn/Documents/Zinnia-tools/Products/hardware/UPDI4AVR/libraries/UPDI4AVR/examples/UPDI4AVR_FW634B/src/UPDI.cpp:317
  set_ptr[2] = data;
  return send_bytes(set_ptr, sizeof(set_ptr));
}

bool UPDI::set_cs_ctra (uint8_t data) {
  return set_cs_stat(UPDI_CS_CTRLA, data);
     1be:	c9 f4       	brne	.+50     	; 0x1f2 <UPDI::sts8rsd(unsigned long, unsigned char*, unsigned char) [clone .constprop.17]+0x6a>
set_cs_ctra():
     1c0:	6e e0       	ldi	r22, 0x0E	; 14
     1c2:	82 e0       	ldi	r24, 0x02	; 2
/Users/askn/Documents/Zinnia-tools/Products/hardware/UPDI4AVR/libraries/UPDI4AVR/examples/UPDI4AVR_FW634B/src/UPDI.cpp:225
  _CAPS32(_set_ptr_l[2])->dword = addr;
  _set_repeat[2] = len - 1;
  _set_repeat[4] = UPDI_PTR_INC|UPDI_ST|UPDI_DATA1;
  if (!send_bytes(_set_ptr_l, sizeof(_set_ptr_l) - 1)) return false;
  if (UPDI_ACK != RECV()) return false;
  if (!set_cs_ctra(UPDI_SET_RSD|UPDI_GTVAL_RSD)) return false;
     1c4:	d9 df       	rcall	.-78     	; 0x178 <UPDI::set_cs_stat(unsigned char, unsigned char)>
_ZN4UPDI7sts8rsdEmPhh.constprop.17():
     1c6:	88 23       	and	r24, r24
/Users/askn/Documents/Zinnia-tools/Products/hardware/UPDI4AVR/libraries/UPDI4AVR/examples/UPDI4AVR_FW634B/src/UPDI.cpp:226
  if (!send_bytes(_set_repeat, sizeof(_set_repeat))) return false;
     1c8:	a1 f0       	breq	.+40     	; 0x1f2 <UPDI::sts8rsd(unsigned long, unsigned char*, unsigned char) [clone .constprop.17]+0x6a>
     1ca:	65 e0       	ldi	r22, 0x05	; 5
     1cc:	8a e3       	ldi	r24, 0x3A	; 58
     1ce:	98 e3       	ldi	r25, 0x38	; 56
     1d0:	c2 df       	rcall	.-124    	; 0x156 <UPDI::send_bytes(unsigned char*, unsigned char)>
     1d2:	88 23       	and	r24, r24
     1d4:	71 f0       	breq	.+28     	; 0x1f2 <UPDI::sts8rsd(unsigned long, unsigned char*, unsigned char) [clone .constprop.17]+0x6a>
     1d6:	00 ea       	ldi	r16, 0xA0	; 160
/Users/askn/Documents/Zinnia-tools/Products/hardware/UPDI4AVR/libraries/UPDI4AVR/examples/UPDI4AVR_FW634B/src/UPDI.cpp:228
  do {              /* Repeat byte send */
    SEND(*data++);  /* Submission errors must be ignored */
     1d8:	18 e3       	ldi	r17, 0x38	; 56
     1da:	f8 01       	movw	r30, r16
     1dc:	81 91       	ld	r24, Z+
     1de:	8f 01       	movw	r16, r30
/Users/askn/Documents/Zinnia-tools/Products/hardware/UPDI4AVR/libraries/UPDI4AVR/examples/UPDI4AVR_FW634B/src/UPDI.cpp:229
  } while (--len);
     1e0:	a0 df       	rcall	.-192    	; 0x122 <UPDI::SEND(unsigned char)>
     1e2:	c1 50       	subi	r28, 0x01	; 1
/Users/askn/Documents/Zinnia-tools/Products/hardware/UPDI4AVR/libraries/UPDI4AVR/examples/UPDI4AVR_FW634B/src/UPDI.cpp:317
  set_ptr[2] = data;
  return send_bytes(set_ptr, sizeof(set_ptr));
}

bool UPDI::set_cs_ctra (uint8_t data) {
  return set_cs_stat(UPDI_CS_CTRLA, data);
     1e4:	d1 f7       	brne	.-12     	; 0x1da <UPDI::sts8rsd(unsigned long, unsigned char*, unsigned char) [clone .constprop.17]+0x52>
set_cs_ctra():
     1e6:	66 e0       	ldi	r22, 0x06	; 6
/Users/askn/Documents/Zinnia-tools/Products/hardware/UPDI4AVR/libraries/UPDI4AVR/examples/UPDI4AVR_FW634B/src/UPDI.cpp:232
  do {              /* Repeat byte send */
    SEND(*data++);  /* Submission errors must be ignored */
  } while (--len);
  if (!set_cs_ctra(UPDI_GTVAL)) return false;
  return true;
}
     1e8:	82 e0       	ldi	r24, 0x02	; 2
_ZN4UPDI7sts8rsdEmPhh.constprop.17():
     1ea:	cf 91       	pop	r28
     1ec:	1f 91       	pop	r17
/Users/askn/Documents/Zinnia-tools/Products/hardware/UPDI4AVR/libraries/UPDI4AVR/examples/UPDI4AVR_FW634B/src/UPDI.cpp:317
  set_ptr[2] = data;
  return send_bytes(set_ptr, sizeof(set_ptr));
}

bool UPDI::set_cs_ctra (uint8_t data) {
  return set_cs_stat(UPDI_CS_CTRLA, data);
     1ee:	0f 91       	pop	r16
set_cs_ctra():
     1f0:	c3 cf       	rjmp	.-122    	; 0x178 <UPDI::set_cs_stat(unsigned char, unsigned char)>
_ZN4UPDI7sts8rsdEmPhh.constprop.17():
/Users/askn/Documents/Zinnia-tools/Products/hardware/UPDI4AVR/libraries/UPDI4AVR/examples/UPDI4AVR_FW634B/src/UPDI.cpp:232
  do {              /* Repeat byte send */
    SEND(*data++);  /* Submission errors must be ignored */
  } while (--len);
  if (!set_cs_ctra(UPDI_GTVAL)) return false;
  return true;
}
     1f2:	80 e0       	ldi	r24, 0x00	; 0
     1f4:	cf 91       	pop	r28
     1f6:	1f 91       	pop	r17
/Users/askn/Documents/Zinnia-tools/Products/hardware/UPDI4AVR/libraries/UPDI4AVR/examples/UPDI4AVR_FW634B/src/UPDI.cpp:288
 * Control status reception
 */

uint8_t UPDI::get_cs_stat (uint8_t code) {
  static uint8_t set_ptr[] = { UPDI_SYNCH, 0 };
  set_ptr[1] = UPDI_LDCS | code;
     1f8:	0f 91       	pop	r16
     1fa:	08 95       	ret

000001fc <UPDI::get_cs_stat(unsigned char)>:
_ZN4UPDI11get_cs_statEh():
     1fc:	80 68       	ori	r24, 0x80	; 128
/Users/askn/Documents/Zinnia-tools/Products/hardware/UPDI4AVR/libraries/UPDI4AVR/examples/UPDI4AVR_FW634B/src/UPDI.cpp:289
  send_bytes(set_ptr, sizeof(set_ptr));
     1fe:	80 93 12 38 	sts	0x3812, r24	; 0x803812 <UPDI::get_cs_stat(unsigned char)::set_ptr+0x1>
     202:	62 e0       	ldi	r22, 0x02	; 2
     204:	81 e1       	ldi	r24, 0x11	; 17
     206:	98 e3       	ldi	r25, 0x38	; 56
/Users/askn/Documents/Zinnia-tools/Products/hardware/UPDI4AVR/libraries/UPDI4AVR/examples/UPDI4AVR_FW634B/src/UPDI.cpp:290
  return RECV();
     208:	a6 df       	rcall	.-180    	; 0x156 <UPDI::send_bytes(unsigned char*, unsigned char)>
     20a:	7f cf       	rjmp	.-258    	; 0x10a <UPDI::RECV()>

0000020c <UPDI::st8(unsigned long, unsigned char)>:
_ZN4UPDI3st8Emh():
/Users/askn/Documents/Zinnia-tools/Products/hardware/UPDI4AVR/libraries/UPDI4AVR/examples/UPDI4AVR_FW634B/src/UPDI.cpp:179

/*
 * Single byte transmission
 */

bool UPDI::st8 (uint32_t addr, uint8_t data) {
     20c:	cf 93       	push	r28
     20e:	c4 2f       	mov	r28, r20
/Users/askn/Documents/Zinnia-tools/Products/hardware/UPDI4AVR/libraries/UPDI4AVR/examples/UPDI4AVR_FW634B/src/UPDI.cpp:185
  static uint8_t set_ptr[] = {
      UPDI_SYNCH
    , UPDI_STS | UPDI_ADDR3 | UPDI_DATA1
    , 0, 0, 0, 0    // 24bit address
  };
  _CAPS32(set_ptr[2])->dword = addr;
     210:	60 93 07 38 	sts	0x3807, r22	; 0x803807 <UPDI::st8(unsigned long, unsigned char)::set_ptr+0x2>
     214:	70 93 08 38 	sts	0x3808, r23	; 0x803808 <UPDI::st8(unsigned long, unsigned char)::set_ptr+0x3>
     218:	80 93 09 38 	sts	0x3809, r24	; 0x803809 <UPDI::st8(unsigned long, unsigned char)::set_ptr+0x4>
/Users/askn/Documents/Zinnia-tools/Products/hardware/UPDI4AVR/libraries/UPDI4AVR/examples/UPDI4AVR_FW634B/src/UPDI.cpp:186
  if (!send_bytes(set_ptr, sizeof(set_ptr) - 1)) return false;
     21c:	90 93 0a 38 	sts	0x380A, r25	; 0x80380a <UPDI::st8(unsigned long, unsigned char)::set_ptr+0x5>
     220:	65 e0       	ldi	r22, 0x05	; 5
     222:	85 e0       	ldi	r24, 0x05	; 5
     224:	98 e3       	ldi	r25, 0x38	; 56
/Users/askn/Documents/Zinnia-tools/Products/hardware/UPDI4AVR/libraries/UPDI4AVR/examples/UPDI4AVR_FW634B/src/UPDI.cpp:189
  if (UPDI_ACK != RECV()) return false;
  if (!SEND(data)) return false;
  return UPDI_ACK == RECV();
     226:	97 df       	rcall	.-210    	; 0x156 <UPDI::send_bytes(unsigned char*, unsigned char)>
     228:	81 11       	cpse	r24, r1
/Users/askn/Documents/Zinnia-tools/Products/hardware/UPDI4AVR/libraries/UPDI4AVR/examples/UPDI4AVR_FW634B/src/UPDI.cpp:187
    , UPDI_STS | UPDI_ADDR3 | UPDI_DATA1
    , 0, 0, 0, 0    // 24bit address
  };
  _CAPS32(set_ptr[2])->dword = addr;
  if (!send_bytes(set_ptr, sizeof(set_ptr) - 1)) return false;
  if (UPDI_ACK != RECV()) return false;
     22a:	02 c0       	rjmp	.+4      	; 0x230 <UPDI::st8(unsigned long, unsigned char)+0x24>
     22c:	90 e0       	ldi	r25, 0x00	; 0
     22e:	0b c0       	rjmp	.+22     	; 0x246 <UPDI::st8(unsigned long, unsigned char)+0x3a>
     230:	6c df       	rcall	.-296    	; 0x10a <UPDI::RECV()>
/Users/askn/Documents/Zinnia-tools/Products/hardware/UPDI4AVR/libraries/UPDI4AVR/examples/UPDI4AVR_FW634B/src/UPDI.cpp:188
  if (!SEND(data)) return false;
     232:	80 34       	cpi	r24, 0x40	; 64
     234:	d9 f7       	brne	.-10     	; 0x22c <UPDI::st8(unsigned long, unsigned char)+0x20>
     236:	8c 2f       	mov	r24, r28
     238:	74 df       	rcall	.-280    	; 0x122 <UPDI::SEND(unsigned char)>
     23a:	88 23       	and	r24, r24
/Users/askn/Documents/Zinnia-tools/Products/hardware/UPDI4AVR/libraries/UPDI4AVR/examples/UPDI4AVR_FW634B/src/UPDI.cpp:189
  return UPDI_ACK == RECV();
     23c:	b9 f3       	breq	.-18     	; 0x22c <UPDI::st8(unsigned long, unsigned char)+0x20>
     23e:	65 df       	rcall	.-310    	; 0x10a <UPDI::RECV()>
     240:	91 e0       	ldi	r25, 0x01	; 1
     242:	80 34       	cpi	r24, 0x40	; 64
     244:	99 f7       	brne	.-26     	; 0x22c <UPDI::st8(unsigned long, unsigned char)+0x20>
/Users/askn/Documents/Zinnia-tools/Products/hardware/UPDI4AVR/libraries/UPDI4AVR/examples/UPDI4AVR_FW634B/src/UPDI.cpp:190
}
     246:	89 2f       	mov	r24, r25
     248:	cf 91       	pop	r28
     24a:	08 95       	ret

0000024c <UPDI::send_repeat_header(unsigned long, unsigned char, unsigned char)>:
_ZN4UPDI18send_repeat_headerEmhh():
/Users/askn/Documents/Zinnia-tools/Products/hardware/UPDI4AVR/libraries/UPDI4AVR/examples/UPDI4AVR_FW634B/src/UPDI.cpp:167
 * Repeat header transmission
 */

/* __attribute__((optimize("O0"))) */
bool UPDI::send_repeat_header (uint32_t addr, uint8_t cmd, uint8_t len) {
  _CAPS32(_set_ptr_l[2])->dword = addr;
     24c:	60 93 41 38 	sts	0x3841, r22	; 0x803841 <UPDI::_set_ptr_l+0x2>
     250:	70 93 42 38 	sts	0x3842, r23	; 0x803842 <UPDI::_set_ptr_l+0x3>
     254:	80 93 43 38 	sts	0x3843, r24	; 0x803843 <UPDI::_set_ptr_l+0x4>
/Users/askn/Documents/Zinnia-tools/Products/hardware/UPDI4AVR/libraries/UPDI4AVR/examples/UPDI4AVR_FW634B/src/UPDI.cpp:168
  _set_repeat[2] = len - 1;
     258:	90 93 44 38 	sts	0x3844, r25	; 0x803844 <UPDI::_set_ptr_l+0x5>
     25c:	21 50       	subi	r18, 0x01	; 1
/Users/askn/Documents/Zinnia-tools/Products/hardware/UPDI4AVR/libraries/UPDI4AVR/examples/UPDI4AVR_FW634B/src/UPDI.cpp:169
  _set_repeat[4] = UPDI_PTR_INC | cmd;  // ST,LD + DATA1,DATA2
     25e:	20 93 3c 38 	sts	0x383C, r18	; 0x80383c <UPDI::_set_repeat+0x2>
/Users/askn/Documents/Zinnia-tools/Products/hardware/UPDI4AVR/libraries/UPDI4AVR/examples/UPDI4AVR_FW634B/src/UPDI.cpp:170
  if (!send_bytes(_set_ptr_l, sizeof(_set_ptr_l) - 1)) return false;
     262:	44 60       	ori	r20, 0x04	; 4
     264:	40 93 3e 38 	sts	0x383E, r20	; 0x80383e <UPDI::_set_repeat+0x4>
     268:	65 e0       	ldi	r22, 0x05	; 5
     26a:	8f e3       	ldi	r24, 0x3F	; 63
     26c:	98 e3       	ldi	r25, 0x38	; 56
     26e:	73 df       	rcall	.-282    	; 0x156 <UPDI::send_bytes(unsigned char*, unsigned char)>
/Users/askn/Documents/Zinnia-tools/Products/hardware/UPDI4AVR/libraries/UPDI4AVR/examples/UPDI4AVR_FW634B/src/UPDI.cpp:171
  if (UPDI_ACK != RECV()) return false;
     270:	88 23       	and	r24, r24
     272:	39 f0       	breq	.+14     	; 0x282 <UPDI::send_repeat_header(unsigned long, unsigned char, unsigned char)+0x36>
     274:	4a df       	rcall	.-364    	; 0x10a <UPDI::RECV()>
/Users/askn/Documents/Zinnia-tools/Products/hardware/UPDI4AVR/libraries/UPDI4AVR/examples/UPDI4AVR_FW634B/src/UPDI.cpp:172
  return send_bytes(_set_repeat, sizeof(_set_repeat));
     276:	80 34       	cpi	r24, 0x40	; 64
     278:	21 f4       	brne	.+8      	; 0x282 <UPDI::send_repeat_header(unsigned long, unsigned char, unsigned char)+0x36>
     27a:	65 e0       	ldi	r22, 0x05	; 5
     27c:	8a e3       	ldi	r24, 0x3A	; 58
     27e:	98 e3       	ldi	r25, 0x38	; 56
/Users/askn/Documents/Zinnia-tools/Products/hardware/UPDI4AVR/libraries/UPDI4AVR/examples/UPDI4AVR_FW634B/src/UPDI.cpp:173
}
     280:	6a cf       	rjmp	.-300    	; 0x156 <UPDI::send_bytes(unsigned char*, unsigned char)>
/Users/askn/Documents/Zinnia-tools/Products/hardware/UPDI4AVR/libraries/UPDI4AVR/examples/UPDI4AVR_FW634B/src/UPDI.cpp:196

/*
 * Transmission
 */

bool UPDI::sts8 (uint32_t addr, uint8_t *data, uint8_t len) {
     282:	80 e0       	ldi	r24, 0x00	; 0
     284:	08 95       	ret

00000286 <UPDI::sts8(unsigned long, unsigned char*, unsigned char)>:
_ZN4UPDI4sts8EmPhh():
     286:	ff 92       	push	r15
     288:	0f 93       	push	r16
     28a:	1f 93       	push	r17
     28c:	cf 93       	push	r28
     28e:	df 93       	push	r29
/Users/askn/Documents/Zinnia-tools/Products/hardware/UPDI4AVR/libraries/UPDI4AVR/examples/UPDI4AVR_FW634B/src/UPDI.cpp:197
  if (send_repeat_header(addr, UPDI_ST|UPDI_DATA1, len)) {
     290:	f4 2e       	mov	r15, r20
     292:	d5 2f       	mov	r29, r21
     294:	c2 2f       	mov	r28, r18
     296:	40 e6       	ldi	r20, 0x60	; 96
     298:	d9 df       	rcall	.-78     	; 0x24c <UPDI::send_repeat_header(unsigned long, unsigned char, unsigned char)>
     29a:	88 23       	and	r24, r24
     29c:	69 f0       	breq	.+26     	; 0x2b8 <UPDI::sts8(unsigned long, unsigned char*, unsigned char)+0x32>
/Users/askn/Documents/Zinnia-tools/Products/hardware/UPDI4AVR/libraries/UPDI4AVR/examples/UPDI4AVR_FW634B/src/UPDI.cpp:199
    do {
      if (!SEND(*data++)) break;
     29e:	0f 2d       	mov	r16, r15
     2a0:	1d 2f       	mov	r17, r29
     2a2:	f8 01       	movw	r30, r16
     2a4:	81 91       	ld	r24, Z+
     2a6:	8f 01       	movw	r16, r30
     2a8:	3c df       	rcall	.-392    	; 0x122 <UPDI::SEND(unsigned char)>
     2aa:	88 23       	and	r24, r24
/Users/askn/Documents/Zinnia-tools/Products/hardware/UPDI4AVR/libraries/UPDI4AVR/examples/UPDI4AVR_FW634B/src/UPDI.cpp:200
      if (UPDI_ACK != RECV()) break;
     2ac:	29 f0       	breq	.+10     	; 0x2b8 <UPDI::sts8(unsigned long, unsigned char*, unsigned char)+0x32>
     2ae:	2d df       	rcall	.-422    	; 0x10a <UPDI::RECV()>
     2b0:	80 34       	cpi	r24, 0x40	; 64
/Users/askn/Documents/Zinnia-tools/Products/hardware/UPDI4AVR/libraries/UPDI4AVR/examples/UPDI4AVR_FW634B/src/UPDI.cpp:201
    } while (--len);
     2b2:	11 f4       	brne	.+4      	; 0x2b8 <UPDI::sts8(unsigned long, unsigned char*, unsigned char)+0x32>
     2b4:	c1 50       	subi	r28, 0x01	; 1
/Users/askn/Documents/Zinnia-tools/Products/hardware/UPDI4AVR/libraries/UPDI4AVR/examples/UPDI4AVR_FW634B/src/UPDI.cpp:203
  }
  return len == 0;
     2b6:	a9 f7       	brne	.-22     	; 0x2a2 <UPDI::sts8(unsigned long, unsigned char*, unsigned char)+0x1c>
     2b8:	81 e0       	ldi	r24, 0x01	; 1
     2ba:	c1 11       	cpse	r28, r1
/Users/askn/Documents/Zinnia-tools/Products/hardware/UPDI4AVR/libraries/UPDI4AVR/examples/UPDI4AVR_FW634B/src/UPDI.cpp:204
}
     2bc:	80 e0       	ldi	r24, 0x00	; 0
     2be:	df 91       	pop	r29
     2c0:	cf 91       	pop	r28
     2c2:	1f 91       	pop	r17
     2c4:	0f 91       	pop	r16
     2c6:	ff 90       	pop	r15
/Users/askn/Documents/Zinnia-tools/Products/hardware/UPDI4AVR/libraries/UPDI4AVR/examples/UPDI4AVR_FW634B/src/UPDI.cpp:133
  if (!_r) bit_set(UPDI_LASTH, 0x20);
  return _r;
}

/* BREAK character : Generated by slowing down the sending speed */
void UPDI::BREAK (void) {
     2c8:	08 95       	ret

000002ca <UPDI::BREAK()>:
_ZN4UPDI5BREAKEv():
     2ca:	cf 93       	push	r28
/Users/askn/Documents/Zinnia-tools/Products/hardware/UPDI4AVR/libraries/UPDI4AVR/examples/UPDI4AVR_FW634B/src/UPDI.cpp:134
  UPDI_USART.BAUD = UPDI_BAUD_BREAK;
     2cc:	df 93       	push	r29
     2ce:	c0 e0       	ldi	r28, 0x00	; 0
     2d0:	d8 e0       	ldi	r29, 0x08	; 8
     2d2:	80 ec       	ldi	r24, 0xC0	; 192
     2d4:	94 e4       	ldi	r25, 0x44	; 68
/Users/askn/Documents/Zinnia-tools/Products/hardware/UPDI4AVR/libraries/UPDI4AVR/examples/UPDI4AVR_FW634B/src/UPDI.cpp:136
  /* Maintains low level signal at least 768bit long */
  SEND(UPDI_NOP);
     2d6:	88 87       	std	Y+8, r24	; 0x08
     2d8:	99 87       	std	Y+9, r25	; 0x09
/Users/askn/Documents/Zinnia-tools/Products/hardware/UPDI4AVR/libraries/UPDI4AVR/examples/UPDI4AVR_FW634B/src/UPDI.cpp:137
  UPDI_USART.BAUD = UPDI_BAUD_CALC;
     2da:	80 e0       	ldi	r24, 0x00	; 0
     2dc:	22 df       	rcall	.-444    	; 0x122 <UPDI::SEND(unsigned char)>
     2de:	80 eb       	ldi	r24, 0xB0	; 176
/Users/askn/Documents/Zinnia-tools/Products/hardware/UPDI4AVR/libraries/UPDI4AVR/examples/UPDI4AVR_FW634B/src/UPDI.cpp:138
  bit_clear(UPDI_CONTROL, UPDI_CLKU_bp);
     2e0:	90 e0       	ldi	r25, 0x00	; 0
/Users/askn/Documents/Zinnia-tools/Products/hardware/UPDI4AVR/libraries/UPDI4AVR/examples/UPDI4AVR_FW634B/src/UPDI.cpp:139
}
     2e2:	88 87       	std	Y+8, r24	; 0x08
     2e4:	99 87       	std	Y+9, r25	; 0x09
/Users/askn/Documents/Zinnia-tools/Products/hardware/UPDI4AVR/libraries/UPDI4AVR/examples/UPDI4AVR_FW634B/src/UPDI.cpp:261
  static uint8_t set_ptr[] = {
      UPDI_SYNCH
    , UPDI_LDS|UPDI_ADDR3|UPDI_DATA1
    , 0, 0, 0, 0  // 24bit address
  };
  _CAPS16(set_ptr[2])->word = (uint16_t)addr;
     2e6:	e6 98       	cbi	0x1c, 6	; 28
     2e8:	df 91       	pop	r29
     2ea:	cf 91       	pop	r28
     2ec:	08 95       	ret

000002ee <UPDI::ld8(unsigned long)>:
_ZN4UPDI3ld8Em():
/Users/askn/Documents/Zinnia-tools/Products/hardware/UPDI4AVR/libraries/UPDI4AVR/examples/UPDI4AVR_FW634B/src/UPDI.cpp:262
  while (!send_bytes(set_ptr, sizeof(set_ptr) - 1)) BREAK();
     2ee:	60 93 0d 38 	sts	0x380D, r22	; 0x80380d <UPDI::ld8(unsigned long)::set_ptr+0x2>
     2f2:	70 93 0e 38 	sts	0x380E, r23	; 0x80380e <UPDI::ld8(unsigned long)::set_ptr+0x3>
     2f6:	65 e0       	ldi	r22, 0x05	; 5
     2f8:	8b e0       	ldi	r24, 0x0B	; 11
     2fa:	98 e3       	ldi	r25, 0x38	; 56
     2fc:	2c df       	rcall	.-424    	; 0x156 <UPDI::send_bytes(unsigned char*, unsigned char)>
     2fe:	81 11       	cpse	r24, r1
/Users/askn/Documents/Zinnia-tools/Products/hardware/UPDI4AVR/libraries/UPDI4AVR/examples/UPDI4AVR_FW634B/src/UPDI.cpp:263
  return RECV();
     300:	02 c0       	rjmp	.+4      	; 0x306 <UPDI::ld8(unsigned long)+0x18>
     302:	e3 df       	rcall	.-58     	; 0x2ca <UPDI::BREAK()>
/Users/askn/Documents/Zinnia-tools/Products/hardware/UPDI4AVR/libraries/UPDI4AVR/examples/UPDI4AVR_FW634B/src/UPDI.cpp:93
  return send_bytes(set_ptr, sizeof(set_ptr));
}

/* This only does a system reset */
bool UPDI::updi_reset (bool logic) {
  return set_cs_stat(
     304:	f8 cf       	rjmp	.-16     	; 0x2f6 <UPDI::ld8(unsigned long)+0x8>
     306:	01 cf       	rjmp	.-510    	; 0x10a <UPDI::RECV()>

00000308 <UPDI::updi_reset(bool)>:
_ZN4UPDI10updi_resetEb():
     308:	60 e0       	ldi	r22, 0x00	; 0
/Users/askn/Documents/Zinnia-tools/Products/hardware/UPDI4AVR/libraries/UPDI4AVR/examples/UPDI4AVR_FW634B/src/UPDI.cpp:95
    UPDI_CS_ASI_RESET_REQ,
    (logic ? UPDI_RSTREQ : UPDI_NOP));
     30a:	81 11       	cpse	r24, r1
     30c:	69 e5       	ldi	r22, 0x59	; 89
     30e:	88 e0       	ldi	r24, 0x08	; 8
/Users/askn/Documents/Zinnia-tools/Products/hardware/UPDI4AVR/libraries/UPDI4AVR/examples/UPDI4AVR_FW634B/src/UPDI.cpp:78
  UPDI_USART.CTRLB = UPDI_USART_ON;
  bit_clear(UPDI_CONTROL, UPDI_CLKU_bp);
}

/* This special system reset will log you out of UPDI */
bool UPDI::Target_Reset (bool _enable) {
     310:	33 cf       	rjmp	.-410    	; 0x178 <UPDI::set_cs_stat(unsigned char, unsigned char)>

00000312 <UPDI::Target_Reset(bool)>:
_ZN4UPDI12Target_ResetEb():
     312:	cf 93       	push	r28
/Users/askn/Documents/Zinnia-tools/Products/hardware/UPDI4AVR/libraries/UPDI4AVR/examples/UPDI4AVR_FW634B/src/UPDI.cpp:86
    , UPDI_STCS | UPDI_CS_ASI_RESET_REQ
    , 0
    , UPDI_STCS | UPDI_CS_CTRLB
    , UPDI_SET_UPDIDIS
  };
  BREAK();
     314:	c8 2f       	mov	r28, r24
     316:	d9 df       	rcall	.-78     	; 0x2ca <UPDI::BREAK()>
/Users/askn/Documents/Zinnia-tools/Products/hardware/UPDI4AVR/libraries/UPDI4AVR/examples/UPDI4AVR_FW634B/src/UPDI.cpp:87
  set_ptr[2] = _enable ? UPDI_RSTREQ : UPDI_NOP;
     318:	80 e0       	ldi	r24, 0x00	; 0
     31a:	c1 11       	cpse	r28, r1
     31c:	89 e5       	ldi	r24, 0x59	; 89
     31e:	80 93 02 38 	sts	0x3802, r24	; 0x803802 <__DATA_REGION_ORIGIN__+0x2>
/Users/askn/Documents/Zinnia-tools/Products/hardware/UPDI4AVR/libraries/UPDI4AVR/examples/UPDI4AVR_FW634B/src/UPDI.cpp:88
  return send_bytes(set_ptr, sizeof(set_ptr));
     322:	65 e0       	ldi	r22, 0x05	; 5
     324:	80 e0       	ldi	r24, 0x00	; 0
     326:	98 e3       	ldi	r25, 0x38	; 56
/Users/askn/Documents/Zinnia-tools/Products/hardware/UPDI4AVR/libraries/UPDI4AVR/examples/UPDI4AVR_FW634B/src/UPDI.cpp:89
}
     328:	cf 91       	pop	r28
/Users/askn/Documents/Zinnia-tools/Products/hardware/UPDI4AVR/libraries/UPDI4AVR/examples/UPDI4AVR_FW634B/src/UPDI.cpp:88
    , UPDI_STCS | UPDI_CS_CTRLB
    , UPDI_SET_UPDIDIS
  };
  BREAK();
  set_ptr[2] = _enable ? UPDI_RSTREQ : UPDI_NOP;
  return send_bytes(set_ptr, sizeof(set_ptr));
     32a:	15 cf       	rjmp	.-470    	; 0x156 <UPDI::send_bytes(unsigned char*, unsigned char)>

0000032c <TIM::LED_Flash()>:
_ZN3TIM9LED_FlashEv():
     32c:	80 91 61 38 	lds	r24, 0x3861	; 0x803861 <TIM::mode>
/Users/askn/Documents/Zinnia-tools/Products/hardware/UPDI4AVR/libraries/UPDI4AVR/examples/UPDI4AVR_FW634B/src/TIM.cpp:139
    LEDG_EVOUT = EVSYS_USER_CHANNEL2_gc;
  }
}

void LED_TCB1 (uint8_t mode, uint16_t ccmp) {
  if (TIM::mode != mode) {
     330:	82 30       	cpi	r24, 0x02	; 2
     332:	99 f0       	breq	.+38     	; 0x35a <TIM::LED_Flash()+0x2e>
     334:	82 e0       	ldi	r24, 0x02	; 2
/Users/askn/Documents/Zinnia-tools/Products/hardware/UPDI4AVR/libraries/UPDI4AVR/examples/UPDI4AVR_FW634B/src/TIM.cpp:140
    TIM::mode = mode;
     336:	80 93 61 38 	sts	0x3861, r24	; 0x803861 <TIM::mode>
     33a:	89 ea       	ldi	r24, 0xA9	; 169
/Users/askn/Documents/Zinnia-tools/Products/hardware/UPDI4AVR/libraries/UPDI4AVR/examples/UPDI4AVR_FW634B/src/TIM.cpp:141
    TCB1_CCMP = ccmp;
     33c:	98 e0       	ldi	r25, 0x08	; 8
     33e:	80 93 9c 0a 	sts	0x0A9C, r24	; 0x800a9c <__RODATA_PM_OFFSET__+0x7f8a9c>
     342:	90 93 9d 0a 	sts	0x0A9D, r25	; 0x800a9d <__RODATA_PM_OFFSET__+0x7f8a9d>
     346:	10 92 9a 0a 	sts	0x0A9A, r1	; 0x800a9a <__RODATA_PM_OFFSET__+0x7f8a9a>
/Users/askn/Documents/Zinnia-tools/Products/hardware/UPDI4AVR/libraries/UPDI4AVR/examples/UPDI4AVR_FW634B/src/TIM.cpp:142
    TCB1_CNT = 0;
     34a:	10 92 9b 0a 	sts	0x0A9B, r1	; 0x800a9b <__RODATA_PM_OFFSET__+0x7f8a9b>
     34e:	8f e4       	ldi	r24, 0x4F	; 79
/Users/askn/Documents/Zinnia-tools/Products/hardware/UPDI4AVR/libraries/UPDI4AVR/examples/UPDI4AVR_FW634B/src/TIM.cpp:143
    TCB1_CTRLA = TCB_RUNSTDBY_bm | TCB_ENABLE_bm | TCB_CLKSEL_EVENT_gc;
     350:	80 93 90 0a 	sts	0x0A90, r24	; 0x800a90 <__RODATA_PM_OFFSET__+0x7f8a90>
     354:	81 e0       	ldi	r24, 0x01	; 1
/Users/askn/Documents/Zinnia-tools/Products/hardware/UPDI4AVR/libraries/UPDI4AVR/examples/UPDI4AVR_FW634B/src/TIM.cpp:144
    LEDG_EVOUT = EVSYS_USER_CHANNEL0_gc;
     356:	80 93 a9 01 	sts	0x01A9, r24	; 0x8001a9 <__RODATA_PM_OFFSET__+0x7f81a9>
     35a:	08 95       	ret

0000035c <TIM::Timeout_Stop()>:
_ZN3TIM12Timeout_StopEv():
/Users/askn/Documents/Zinnia-tools/Products/hardware/UPDI4AVR/libraries/UPDI4AVR/examples/UPDI4AVR_FW634B/src/TIM.cpp:151
}

/* Flash (after RTS assert/UPDI authorization) */
void TIM::LED_Flash (void) {
  LED_TCB1(2, TCB1_FLASH);
}
     35c:	8f b7       	in	r24, 0x3f	; 63
__iCliRetVal():
/Users/askn/Documents/Zinnia-tools/Products/hardware/UPDI4AVR/libraries/UPDI4AVR/examples/UPDI4AVR_FW634B/src/TIM.cpp:116
    TCB0_CTRLA = TCB_ENABLE_bm | TCB_CLKSEL_EVENT_gc;
  }
}

void TIM::Timeout_Stop (void) {
  ATOMIC_BLOCK(ATOMIC_RESTORESTATE) {
     35e:	f8 94       	cli
_ZN3TIM12Timeout_StopEv():
/Users/askn/Library/Arduino15/packages/MultiX-Zinnia/tools/avr-gcc/7.3.0-avr8-gnu-toolchain/avr/include/util/atomic.h:50
    return 1;
}

static __inline__ uint8_t __iCliRetVal(void)
{
    cli();
     360:	10 92 80 0a 	sts	0x0A80, r1	; 0x800a80 <__RODATA_PM_OFFSET__+0x7f8a80>
/Users/askn/Documents/Zinnia-tools/Products/hardware/UPDI4AVR/libraries/UPDI4AVR/examples/UPDI4AVR_FW634B/src/TIM.cpp:117
    TCB0_CTRLA = 0;
     364:	91 e0       	ldi	r25, 0x01	; 1
/Users/askn/Documents/Zinnia-tools/Products/hardware/UPDI4AVR/libraries/UPDI4AVR/examples/UPDI4AVR_FW634B/src/TIM.cpp:118
    TCB0_INTFLAGS = TCB_CAPT_bm;
     366:	90 93 86 0a 	sts	0x0A86, r25	; 0x800a86 <__RODATA_PM_OFFSET__+0x7f8a86>
__iRestore():
     36a:	8f bf       	out	0x3f, r24	; 63
_ZN3TIM12Timeout_StopEv():
/Users/askn/Library/Arduino15/packages/MultiX-Zinnia/tools/avr-gcc/7.3.0-avr8-gnu-toolchain/avr/include/util/atomic.h:70
    (void)__s;
}

static __inline__ void __iRestore(const  uint8_t *__s)
{
    SREG = *__s;
     36c:	18 95       	reti
/Users/askn/Documents/Zinnia-tools/Products/hardware/UPDI4AVR/libraries/UPDI4AVR/examples/UPDI4AVR_FW634B/src/TIM.cpp:120
  }
  reti();
     36e:	08 95       	ret

00000370 <SYS::WDT_SET(unsigned char)>:
_ZN3SYS7WDT_SETEh():
/Users/askn/Documents/Zinnia-tools/Products/hardware/UPDI4AVR/libraries/UPDI4AVR/examples/UPDI4AVR_FW634B/src/TIM.cpp:121
}
     370:	90 91 01 01 	lds	r25, 0x0101	; 0x800101 <__RODATA_PM_OFFSET__+0x7f8101>
/Users/askn/Documents/Zinnia-tools/Products/hardware/UPDI4AVR/libraries/UPDI4AVR/examples/UPDI4AVR_FW634B/src/SYS.cpp:160
/*****************
 * WDT operation *
 *****************/

void SYS::WDT_SET (uint8_t _wdt_period) {
  loop_until_bit_is_clear(WDT_STATUS, WDT_SYNCBUSY_bp);
     374:	90 fd       	sbrc	r25, 0
     376:	fc cf       	rjmp	.-8      	; 0x370 <SYS::WDT_SET(unsigned char)>
     378:	98 ed       	ldi	r25, 0xD8	; 216
/Users/askn/Documents/Zinnia-tools/Products/hardware/UPDI4AVR/libraries/UPDI4AVR/examples/UPDI4AVR_FW634B/src/SYS.cpp:161
  _PROTECTED_WRITE(WDT_CTRLA, _wdt_period);
     37a:	94 bf       	out	0x34, r25	; 52
     37c:	80 93 00 01 	sts	0x0100, r24	; 0x800100 <__RODATA_PM_OFFSET__+0x7f8100>
     380:	08 95       	ret

00000382 <SYS::get_vcc()>:
_ZN3SYS7get_vccEv():
/Users/askn/Documents/Zinnia-tools/Products/hardware/UPDI4AVR/libraries/UPDI4AVR/examples/UPDI4AVR_FW634B/src/SYS.cpp:162
}
     382:	81 e0       	ldi	r24, 0x01	; 1
/Users/askn/Documents/Zinnia-tools/Products/hardware/UPDI4AVR/libraries/UPDI4AVR/examples/UPDI4AVR_FW634B/src/SYS.cpp:70
 * Self VCC measurement *
 ************************/

/*** This routine is exclusive to the tinyAVR-2 series. ***/
uint16_t SYS::get_vcc (void) {
  ADC0_CTRLA = ADC_ENABLE_bm;
     384:	80 93 00 06 	sts	0x0600, r24	; 0x800600 <__RODATA_PM_OFFSET__+0x7f8600>
     388:	10 92 01 06 	sts	0x0601, r1	; 0x800601 <__RODATA_PM_OFFSET__+0x7f8601>
/Users/askn/Documents/Zinnia-tools/Products/hardware/UPDI4AVR/libraries/UPDI4AVR/examples/UPDI4AVR_FW634B/src/SYS.cpp:71
  ADC0_CTRLB = ADC_PRESC_DIV2_gc;
     38c:	84 e5       	ldi	r24, 0x54	; 84
/Users/askn/Documents/Zinnia-tools/Products/hardware/UPDI4AVR/libraries/UPDI4AVR/examples/UPDI4AVR_FW634B/src/SYS.cpp:72
  ADC0_CTRLC = ADC_REFSEL_1024MV_gc | ((F_CPU / 1000000UL) << ADC_TIMEBASE_gp);
     38e:	80 93 02 06 	sts	0x0602, r24	; 0x800602 <__RODATA_PM_OFFSET__+0x7f8602>
     392:	81 e1       	ldi	r24, 0x11	; 17
/Users/askn/Documents/Zinnia-tools/Products/hardware/UPDI4AVR/libraries/UPDI4AVR/examples/UPDI4AVR_FW634B/src/SYS.cpp:73
  ADC0_CTRLE = 17; /* (SAMPDUR + 0.5) * fCLK_ADC = 10.5 µs sample duration */
     394:	80 93 08 06 	sts	0x0608, r24	; 0x800608 <__RODATA_PM_OFFSET__+0x7f8608>
     398:	91 e3       	ldi	r25, 0x31	; 49
/Users/askn/Documents/Zinnia-tools/Products/hardware/UPDI4AVR/libraries/UPDI4AVR/examples/UPDI4AVR_FW634B/src/SYS.cpp:74
  ADC0_MUXPOS = ADC_MUXPOS_VDDDIV10_gc; /* ADC channel VDD/10 */
     39a:	90 93 0c 06 	sts	0x060C, r25	; 0x80060c <__RODATA_PM_OFFSET__+0x7f860c>
/Users/askn/Documents/Zinnia-tools/Products/hardware/UPDI4AVR/libraries/UPDI4AVR/examples/UPDI4AVR_FW634B/src/SYS.cpp:75
  ADC0_COMMAND = ADC_MODE_SINGLE_12BIT_gc | ADC_START_IMMEDIATE_gc;
     39e:	80 93 0a 06 	sts	0x060A, r24	; 0x80060a <__RODATA_PM_OFFSET__+0x7f860a>
/Users/askn/Documents/Zinnia-tools/Products/hardware/UPDI4AVR/libraries/UPDI4AVR/examples/UPDI4AVR_FW634B/src/SYS.cpp:76
  loop_until_bit_is_set(ADC0_INTFLAGS, ADC_SAMPRDY_bp);
     3a2:	80 91 05 06 	lds	r24, 0x0605	; 0x800605 <__RODATA_PM_OFFSET__+0x7f8605>
     3a6:	81 ff       	sbrs	r24, 1
/Users/askn/Documents/Zinnia-tools/Products/hardware/UPDI4AVR/libraries/UPDI4AVR/examples/UPDI4AVR_FW634B/src/SYS.cpp:77
  uint16_t adc_reading = ADC0_SAMPLE;
     3a8:	fc cf       	rjmp	.-8      	; 0x3a2 <SYS::get_vcc()+0x20>
     3aa:	20 91 14 06 	lds	r18, 0x0614	; 0x800614 <__RODATA_PM_OFFSET__+0x7f8614>
     3ae:	30 91 15 06 	lds	r19, 0x0615	; 0x800615 <__RODATA_PM_OFFSET__+0x7f8615>
/Users/askn/Documents/Zinnia-tools/Products/hardware/UPDI4AVR/libraries/UPDI4AVR/examples/UPDI4AVR_FW634B/src/SYS.cpp:78
  adc_reading += adc_reading + (adc_reading >> 1);  /* x2.5 */
     3b2:	c9 01       	movw	r24, r18
     3b4:	96 95       	lsr	r25
     3b6:	87 95       	ror	r24
/Users/askn/Documents/Zinnia-tools/Products/hardware/UPDI4AVR/libraries/UPDI4AVR/examples/UPDI4AVR_FW634B/src/SYS.cpp:79
  ADC0_CTRLA = 0;
     3b8:	22 0f       	add	r18, r18
     3ba:	33 1f       	adc	r19, r19
/Users/askn/Documents/Zinnia-tools/Products/hardware/UPDI4AVR/libraries/UPDI4AVR/examples/UPDI4AVR_FW634B/src/SYS.cpp:81
  return adc_reading;
}
     3bc:	10 92 00 06 	sts	0x0600, r1	; 0x800600 <__RODATA_PM_OFFSET__+0x7f8600>
/Users/askn/Documents/Zinnia-tools/Products/hardware/UPDI4AVR/libraries/UPDI4AVR/examples/UPDI4AVR_FW634B/src/NVM.cpp:61
    return UPDI_LASTL;
  }

  /* NVMCTRL version 0 (,2,3,5) */
  bool nvm_ctrl (uint8_t nvmcmd) {
    return UPDI::st8(NVMCTRL_REG_CTRLA, nvmcmd);
     3c0:	82 0f       	add	r24, r18
     3c2:	93 1f       	adc	r25, r19
     3c4:	08 95       	ret

000003c6 <NVM::nvm_ctrl(unsigned char)>:
_ZN3NVM8nvm_ctrlEh():
     3c6:	48 2f       	mov	r20, r24
     3c8:	60 e0       	ldi	r22, 0x00	; 0
     3ca:	70 e1       	ldi	r23, 0x10	; 16
     3cc:	80 e0       	ldi	r24, 0x00	; 0
/Users/askn/Documents/Zinnia-tools/Products/hardware/UPDI4AVR/libraries/UPDI4AVR/examples/UPDI4AVR_FW634B/src/NVM.cpp:65
  }

  /* NVMCTRL version 2,3,5 */
  bool nvm_ctrl_change (uint8_t nvmcmd) {
     3ce:	90 e0       	ldi	r25, 0x00	; 0
     3d0:	1d cf       	rjmp	.-454    	; 0x20c <UPDI::st8(unsigned long, unsigned char)>

000003d2 <NVM::nvm_ctrl_change(unsigned char)>:
_ZN3NVM15nvm_ctrl_changeEh():
/Users/askn/Documents/Zinnia-tools/Products/hardware/UPDI4AVR/libraries/UPDI4AVR/examples/UPDI4AVR_FW634B/src/NVM.cpp:66
    if (UPDI::ld8(NVMCTRL_REG_CTRLA) == nvmcmd) return true;
     3d2:	cf 93       	push	r28
     3d4:	c8 2f       	mov	r28, r24
     3d6:	60 e0       	ldi	r22, 0x00	; 0
     3d8:	70 e1       	ldi	r23, 0x10	; 16
     3da:	80 e0       	ldi	r24, 0x00	; 0
     3dc:	90 e0       	ldi	r25, 0x00	; 0
     3de:	87 df       	rcall	.-242    	; 0x2ee <UPDI::ld8(unsigned long)>
     3e0:	8c 13       	cpse	r24, r28
     3e2:	03 c0       	rjmp	.+6      	; 0x3ea <NVM::nvm_ctrl_change(unsigned char)+0x18>
/Users/askn/Documents/Zinnia-tools/Products/hardware/UPDI4AVR/libraries/UPDI4AVR/examples/UPDI4AVR_FW634B/src/NVM.cpp:70
    if (!nvm_ctrl(NVM_CMD_NOCMD)) return false;
    if (NVM_CMD_NOCMD != nvmcmd) return nvm_ctrl(nvmcmd);
    return true;
  }
     3e4:	81 e0       	ldi	r24, 0x01	; 1
     3e6:	cf 91       	pop	r28
/Users/askn/Documents/Zinnia-tools/Products/hardware/UPDI4AVR/libraries/UPDI4AVR/examples/UPDI4AVR_FW634B/src/NVM.cpp:67
  }

  /* NVMCTRL version 2,3,5 */
  bool nvm_ctrl_change (uint8_t nvmcmd) {
    if (UPDI::ld8(NVMCTRL_REG_CTRLA) == nvmcmd) return true;
    if (!nvm_ctrl(NVM_CMD_NOCMD)) return false;
     3e8:	08 95       	ret
     3ea:	80 e0       	ldi	r24, 0x00	; 0
     3ec:	ec df       	rcall	.-40     	; 0x3c6 <NVM::nvm_ctrl(unsigned char)>
     3ee:	88 23       	and	r24, r24
     3f0:	d1 f3       	breq	.-12     	; 0x3e6 <NVM::nvm_ctrl_change(unsigned char)+0x14>
/Users/askn/Documents/Zinnia-tools/Products/hardware/UPDI4AVR/libraries/UPDI4AVR/examples/UPDI4AVR_FW634B/src/NVM.cpp:68
    if (NVM_CMD_NOCMD != nvmcmd) return nvm_ctrl(nvmcmd);
     3f2:	cc 23       	and	r28, r28
     3f4:	b9 f3       	breq	.-18     	; 0x3e4 <NVM::nvm_ctrl_change(unsigned char)+0x12>
     3f6:	8c 2f       	mov	r24, r28
/Users/askn/Documents/Zinnia-tools/Products/hardware/UPDI4AVR/libraries/UPDI4AVR/examples/UPDI4AVR_FW634B/src/NVM.cpp:70
    return true;
  }
     3f8:	cf 91       	pop	r28
/Users/askn/Documents/Zinnia-tools/Products/hardware/UPDI4AVR/libraries/UPDI4AVR/examples/UPDI4AVR_FW634B/src/NVM.cpp:68

  /* NVMCTRL version 2,3,5 */
  bool nvm_ctrl_change (uint8_t nvmcmd) {
    if (UPDI::ld8(NVMCTRL_REG_CTRLA) == nvmcmd) return true;
    if (!nvm_ctrl(NVM_CMD_NOCMD)) return false;
    if (NVM_CMD_NOCMD != nvmcmd) return nvm_ctrl(nvmcmd);
     3fa:	e5 cf       	rjmp	.-54     	; 0x3c6 <NVM::nvm_ctrl(unsigned char)>

000003fc <JTAG2::set_response(JTAG2::jtag_response_e)>:
_ZN5JTAG212set_responseENS_15jtag_response_eE():
     3fc:	ee e8       	ldi	r30, 0x8E	; 142
/Users/askn/Documents/Zinnia-tools/Products/hardware/UPDI4AVR/libraries/UPDI4AVR/examples/UPDI4AVR_FW634B/src/JTAG2.cpp:470
/*****************
 * JTAG Response *
 *****************/

void JTAG2::set_response (jtag_response_e response_code) {
  packet.size = 4;
     3fe:	f8 e3       	ldi	r31, 0x38	; 56
     400:	44 e0       	ldi	r20, 0x04	; 4
     402:	50 e0       	ldi	r21, 0x00	; 0
     404:	60 e0       	ldi	r22, 0x00	; 0
     406:	70 e0       	ldi	r23, 0x00	; 0
     408:	43 83       	std	Z+3, r20	; 0x03
     40a:	54 83       	std	Z+4, r21	; 0x04
     40c:	65 83       	std	Z+5, r22	; 0x05
     40e:	76 83       	std	Z+6, r23	; 0x06
     410:	80 87       	std	Z+8, r24	; 0x08
/Users/askn/Documents/Zinnia-tools/Products/hardware/UPDI4AVR/libraries/UPDI4AVR/examples/UPDI4AVR_FW634B/src/JTAG2.cpp:472
  /* response number */
  packet.body[MESSAGE_ID] = response_code;
     412:	8c b3       	in	r24, 0x1c	; 28
/Users/askn/Documents/Zinnia-tools/Products/hardware/UPDI4AVR/libraries/UPDI4AVR/examples/UPDI4AVR_FW634B/src/JTAG2.cpp:474
  /* Internal status flag */
  packet.body[RSP_DATA    ] = UPDI_CONTROL;
     414:	81 87       	std	Z+9, r24	; 0x09
     416:	8d b3       	in	r24, 0x1d	; 29
/Users/askn/Documents/Zinnia-tools/Products/hardware/UPDI4AVR/libraries/UPDI4AVR/examples/UPDI4AVR_FW634B/src/JTAG2.cpp:475
  packet.body[RSP_DATA + 1] = UPDI_NVMCTRL;
     418:	82 87       	std	Z+10, r24	; 0x0a
     41a:	8e b3       	in	r24, 0x1e	; 30
/Users/askn/Documents/Zinnia-tools/Products/hardware/UPDI4AVR/libraries/UPDI4AVR/examples/UPDI4AVR_FW634B/src/JTAG2.cpp:476
  packet.body[RSP_DATA + 2] = UPDI_LASTL;
     41c:	83 87       	std	Z+11, r24	; 0x0b
     41e:	08 95       	ret

00000420 <_crc_ccitt_update(unsigned int, unsigned char)>:
_ZL17_crc_ccitt_updatejh():
/Users/askn/Documents/Zinnia-tools/Products/hardware/UPDI4AVR/libraries/UPDI4AVR/examples/UPDI4AVR_FW634B/src/JTAG2.cpp:477
}
     420:	86 27       	eor	r24, r22
/Users/askn/Library/Arduino15/packages/MultiX-Zinnia/tools/avr-gcc/7.3.0-avr8-gnu-toolchain/avr/include/util/crc16.h:285
        "eor    %A0,__tmp_reg__"

        : "=d" (__ret)
        : "r" (__data), "0" (__crc)
        : "r0"
    );
     422:	08 2e       	mov	r0, r24
     424:	82 95       	swap	r24
     426:	80 7f       	andi	r24, 0xF0	; 240
     428:	80 25       	eor	r24, r0
     42a:	09 2e       	mov	r0, r25
     42c:	98 2f       	mov	r25, r24
     42e:	82 95       	swap	r24
     430:	8f 70       	andi	r24, 0x0F	; 15
     432:	08 26       	eor	r0, r24
     434:	86 95       	lsr	r24
     436:	98 27       	eor	r25, r24
     438:	89 27       	eor	r24, r25
     43a:	88 0f       	add	r24, r24
     43c:	88 0f       	add	r24, r24
     43e:	88 0f       	add	r24, r24
     440:	80 25       	eor	r24, r0
     442:	08 95       	ret

00000444 <JTAG2::answer_transfer()>:
_ZN5JTAG215answer_transferEv():
/Users/askn/Library/Arduino15/packages/MultiX-Zinnia/tools/avr-gcc/7.3.0-avr8-gnu-toolchain/avr/include/util/crc16.h:287
    return __ret;
}
     444:	af 92       	push	r10
/Users/askn/Documents/Zinnia-tools/Products/hardware/UPDI4AVR/libraries/UPDI4AVR/examples/UPDI4AVR_FW634B/src/JTAG2.cpp:150

  /***************
   * JTAG Answer *
   ***************/

  void answer_transfer (void) {
     446:	bf 92       	push	r11
     448:	cf 92       	push	r12
     44a:	df 92       	push	r13
     44c:	ef 92       	push	r14
     44e:	ff 92       	push	r15
     450:	0f 93       	push	r16
     452:	1f 93       	push	r17
     454:	cf 93       	push	r28
     456:	df 93       	push	r29
     458:	00 d0       	rcall	.+0      	; 0x45a <JTAG2::answer_transfer()+0x16>
     45a:	cd b7       	in	r28, 0x3d	; 61
     45c:	de b7       	in	r29, 0x3e	; 62
/Users/askn/Documents/Zinnia-tools/Products/hardware/UPDI4AVR/libraries/UPDI4AVR/examples/UPDI4AVR_FW634B/src/JTAG2.cpp:151
    uint16_t _crc = ~0;
     45e:	8f ef       	ldi	r24, 0xFF	; 255
     460:	9f ef       	ldi	r25, 0xFF	; 255
     462:	89 83       	std	Y+1, r24	; 0x01
     464:	9a 83       	std	Y+2, r25	; 0x02
/Users/askn/Documents/Zinnia-tools/Products/hardware/UPDI4AVR/libraries/UPDI4AVR/examples/UPDI4AVR_FW634B/src/JTAG2.cpp:152
    int16_t _len = packet.size_word[0] + 8;
     466:	e0 90 91 38 	lds	r14, 0x3891	; 0x803891 <JTAG2::packet+0x3>
     46a:	f0 90 92 38 	lds	r15, 0x3892	; 0x803892 <JTAG2::packet+0x4>
     46e:	87 01       	movw	r16, r14
     470:	08 5f       	subi	r16, 0xF8	; 248
     472:	1f 4f       	sbci	r17, 0xFF	; 255
     474:	8e e8       	ldi	r24, 0x8E	; 142
     476:	c8 2e       	mov	r12, r24
     478:	88 e3       	ldi	r24, 0x38	; 56
     47a:	d8 2e       	mov	r13, r24
     47c:	56 01       	movw	r10, r12
     47e:	81 e0       	ldi	r24, 0x01	; 1
     480:	e8 1a       	sub	r14, r24
     482:	f1 08       	sbc	r15, r1
/Users/askn/Documents/Zinnia-tools/Products/hardware/UPDI4AVR/libraries/UPDI4AVR/examples/UPDI4AVR_FW634B/src/JTAG2.cpp:155
    uint8_t *_p = (uint8_t*) &packet.soh;
    uint8_t *_q = (uint8_t*) &packet.soh;
    while (_len--) _crc = crc16_update(_crc, *_q++);
     484:	a7 ef       	ldi	r26, 0xF7	; 247
     486:	ea 16       	cp	r14, r26
     488:	af ef       	ldi	r26, 0xFF	; 255
     48a:	fa 06       	cpc	r15, r26
     48c:	49 f0       	breq	.+18     	; 0x4a0 <JTAG2::answer_transfer()+0x5c>
     48e:	f5 01       	movw	r30, r10
     490:	61 91       	ld	r22, Z+
     492:	5f 01       	movw	r10, r30
crc16_update():
/Users/askn/Documents/Zinnia-tools/Products/hardware/UPDI4AVR/libraries/UPDI4AVR/examples/UPDI4AVR_FW634B/src/JTAG2.cpp:101
  void flush (void) {
    loop_until_bit_is_set(JTAG_USART.STATUS, USART_TXCIF_bp);
  }

  uint16_t crc16_update(uint16_t _crc, uint8_t _data) {
    return _crc_ccitt_update(_crc, _data);
     494:	89 81       	ldd	r24, Y+1	; 0x01
     496:	9a 81       	ldd	r25, Y+2	; 0x02
     498:	c3 df       	rcall	.-122    	; 0x420 <_crc_ccitt_update(unsigned int, unsigned char)>
_ZN5JTAG215answer_transferEv():
     49a:	89 83       	std	Y+1, r24	; 0x01
/Users/askn/Documents/Zinnia-tools/Products/hardware/UPDI4AVR/libraries/UPDI4AVR/examples/UPDI4AVR_FW634B/src/JTAG2.cpp:155
  void answer_transfer (void) {
    uint16_t _crc = ~0;
    int16_t _len = packet.size_word[0] + 8;
    uint8_t *_p = (uint8_t*) &packet.soh;
    uint8_t *_q = (uint8_t*) &packet.soh;
    while (_len--) _crc = crc16_update(_crc, *_q++);
     49c:	9a 83       	std	Y+2, r25	; 0x02
     49e:	ef cf       	rjmp	.-34     	; 0x47e <JTAG2::answer_transfer()+0x3a>
     4a0:	f8 01       	movw	r30, r16
     4a2:	e2 57       	subi	r30, 0x72	; 114
     4a4:	f7 4c       	sbci	r31, 0xC7	; 199
     4a6:	89 81       	ldd	r24, Y+1	; 0x01
/Users/askn/Documents/Zinnia-tools/Products/hardware/UPDI4AVR/libraries/UPDI4AVR/examples/UPDI4AVR_FW634B/src/JTAG2.cpp:156
    (*_q++) = _CAPS16(_crc)->bytes[0];
     4a8:	80 83       	st	Z, r24
     4aa:	8a 81       	ldd	r24, Y+2	; 0x02
/Users/askn/Documents/Zinnia-tools/Products/hardware/UPDI4AVR/libraries/UPDI4AVR/examples/UPDI4AVR_FW634B/src/JTAG2.cpp:157
    (*_q++) = _CAPS16(_crc)->bytes[1];
     4ac:	81 83       	std	Z+1, r24	; 0x01
     4ae:	2f b7       	in	r18, 0x3f	; 63
__iCliRetVal():
/Users/askn/Documents/Zinnia-tools/Products/hardware/UPDI4AVR/libraries/UPDI4AVR/examples/UPDI4AVR_FW634B/src/JTAG2.cpp:158
    ATOMIC_BLOCK(ATOMIC_RESTORESTATE) {
     4b0:	f8 94       	cli
_ZN5JTAG215answer_transferEv():
/Users/askn/Library/Arduino15/packages/MultiX-Zinnia/tools/avr-gcc/7.3.0-avr8-gnu-toolchain/avr/include/util/atomic.h:50
    return 1;
}

static __inline__ uint8_t __iCliRetVal(void)
{
    cli();
     4b2:	32 96       	adiw	r30, 0x02	; 2
put():
/Users/askn/Documents/Zinnia-tools/Products/hardware/UPDI4AVR/libraries/UPDI4AVR/examples/UPDI4AVR_FW634B/src/JTAG2.cpp:157
    int16_t _len = packet.size_word[0] + 8;
    uint8_t *_p = (uint8_t*) &packet.soh;
    uint8_t *_q = (uint8_t*) &packet.soh;
    while (_len--) _crc = crc16_update(_crc, *_q++);
    (*_q++) = _CAPS16(_crc)->bytes[0];
    (*_q++) = _CAPS16(_crc)->bytes[1];
     4b4:	90 e4       	ldi	r25, 0x40	; 64
_ZN5JTAG215answer_transferEv():
/Users/askn/Documents/Zinnia-tools/Products/hardware/UPDI4AVR/libraries/UPDI4AVR/examples/UPDI4AVR_FW634B/src/JTAG2.cpp:92
    return JTAG_USART.RXDATAL;
  }

  uint8_t put (uint8_t _data) {
    loop_until_bit_is_set(JTAG_USART.STATUS, USART_DREIF_bp);
    JTAG_USART.STATUS = USART_TXCIF_bm;
     4b6:	ce 16       	cp	r12, r30
/Users/askn/Documents/Zinnia-tools/Products/hardware/UPDI4AVR/libraries/UPDI4AVR/examples/UPDI4AVR_FW634B/src/JTAG2.cpp:159
    uint8_t *_q = (uint8_t*) &packet.soh;
    while (_len--) _crc = crc16_update(_crc, *_q++);
    (*_q++) = _CAPS16(_crc)->bytes[0];
    (*_q++) = _CAPS16(_crc)->bytes[1];
    ATOMIC_BLOCK(ATOMIC_RESTORESTATE) {
      while (_p != _q) put(*_p++);
     4b8:	df 06       	cpc	r13, r31
     4ba:	71 f4       	brne	.+28     	; 0x4d8 <JTAG2::answer_transfer()+0x94>
__iRestore():
     4bc:	2f bf       	out	0x3f, r18	; 63
_ZN5JTAG215answer_transferEv():
/Users/askn/Documents/Zinnia-tools/Products/hardware/UPDI4AVR/libraries/UPDI4AVR/examples/UPDI4AVR_FW634B/src/JTAG2.cpp:161
    }
  }
     4be:	0f 90       	pop	r0
     4c0:	0f 90       	pop	r0
     4c2:	df 91       	pop	r29
     4c4:	cf 91       	pop	r28
     4c6:	1f 91       	pop	r17
     4c8:	0f 91       	pop	r16
     4ca:	ff 90       	pop	r15
     4cc:	ef 90       	pop	r14
     4ce:	df 90       	pop	r13
     4d0:	cf 90       	pop	r12
     4d2:	bf 90       	pop	r11
     4d4:	af 90       	pop	r10
     4d6:	08 95       	ret
/Users/askn/Documents/Zinnia-tools/Products/hardware/UPDI4AVR/libraries/UPDI4AVR/examples/UPDI4AVR_FW634B/src/JTAG2.cpp:159
    uint8_t *_q = (uint8_t*) &packet.soh;
    while (_len--) _crc = crc16_update(_crc, *_q++);
    (*_q++) = _CAPS16(_crc)->bytes[0];
    (*_q++) = _CAPS16(_crc)->bytes[1];
    ATOMIC_BLOCK(ATOMIC_RESTORESTATE) {
      while (_p != _q) put(*_p++);
     4d8:	d6 01       	movw	r26, r12
     4da:	8d 91       	ld	r24, X+
     4dc:	6d 01       	movw	r12, r26
put():
/Users/askn/Documents/Zinnia-tools/Products/hardware/UPDI4AVR/libraries/UPDI4AVR/examples/UPDI4AVR_FW634B/src/JTAG2.cpp:91
    loop_until_bit_is_set(JTAG_USART.STATUS, USART_RXCIF_bp);
    return JTAG_USART.RXDATAL;
  }

  uint8_t put (uint8_t _data) {
    loop_until_bit_is_set(JTAG_USART.STATUS, USART_DREIF_bp);
     4de:	30 91 24 08 	lds	r19, 0x0824	; 0x800824 <__RODATA_PM_OFFSET__+0x7f8824>
     4e2:	35 ff       	sbrs	r19, 5
/Users/askn/Documents/Zinnia-tools/Products/hardware/UPDI4AVR/libraries/UPDI4AVR/examples/UPDI4AVR_FW634B/src/JTAG2.cpp:92
    JTAG_USART.STATUS = USART_TXCIF_bm;
     4e4:	fc cf       	rjmp	.-8      	; 0x4de <JTAG2::answer_transfer()+0x9a>
     4e6:	90 93 24 08 	sts	0x0824, r25	; 0x800824 <__RODATA_PM_OFFSET__+0x7f8824>
/Users/askn/Documents/Zinnia-tools/Products/hardware/UPDI4AVR/libraries/UPDI4AVR/examples/UPDI4AVR_FW634B/src/JTAG2.cpp:93
    return JTAG_USART.TXDATAL = _data;
     4ea:	80 93 22 08 	sts	0x0822, r24	; 0x800822 <__RODATA_PM_OFFSET__+0x7f8822>
/Users/askn/Documents/Zinnia-tools/Products/hardware/UPDI4AVR/libraries/UPDI4AVR/examples/UPDI4AVR_FW634B/src/UPDI.cpp:374
  } while (--limit);
  return false;
}

/* __attribute__((optimize("O0"))) */
bool UPDI::loop_until_key_stat_is_set (uint8_t bitmap, uint16_t limit) {
     4ee:	e3 cf       	rjmp	.-58     	; 0x4b6 <JTAG2::answer_transfer()+0x72>

000004f0 <UPDI::loop_until_key_stat_is_set(unsigned char, unsigned int) [clone .constprop.20]>:
_ZN4UPDI26loop_until_key_stat_is_setEhj.constprop.20():
     4f0:	1f 93       	push	r17
     4f2:	cf 93       	push	r28
     4f4:	df 93       	push	r29
     4f6:	18 2f       	mov	r17, r24
/Users/askn/Documents/Zinnia-tools/Products/hardware/UPDI4AVR/libraries/UPDI4AVR/examples/UPDI4AVR_FW634B/src/UPDI.cpp:294
  send_bytes(set_ptr, sizeof(set_ptr));
  return RECV();
}

bool UPDI::is_cs_stat (uint8_t code, uint8_t check) {
  return check == (get_cs_stat(code) & check);
     4f8:	d0 e0       	ldi	r29, 0x00	; 0
     4fa:	c0 e0       	ldi	r28, 0x00	; 0
is_cs_stat():
     4fc:	87 e0       	ldi	r24, 0x07	; 7
/Users/askn/Documents/Zinnia-tools/Products/hardware/UPDI4AVR/libraries/UPDI4AVR/examples/UPDI4AVR_FW634B/src/UPDI.cpp:379
bool UPDI::loop_until_key_stat_is_set (uint8_t bitmap, uint16_t limit) {
  #ifdef ENABLE_DEBUG_UPDI_SENDER
  uint16_t _back = _send_ptr;
  #endif
  do {
    if (is_key_stat(bitmap)) return true;
     4fe:	7e de       	rcall	.-772    	; 0x1fc <UPDI::get_cs_stat(unsigned char)>
     500:	81 23       	and	r24, r17
_ZN4UPDI26loop_until_key_stat_is_setEhj.constprop.20():
/Users/askn/Library/Arduino15/packages/MultiX-Zinnia/hardware/UPDI4AVR/0.2.8/cores/megaAVR/api/delay_busywait.h:31
static __inline__ __attribute__((__always_inline__)) void delay_micros (uint32_t _us);
static __inline__ __attribute__((__always_inline__)) void delay_millis (uint32_t _ms);

void delay_micros (uint32_t _us) {
  if (F_CPU >= 1000000L) {
    __builtin_avr_delay_cycles((F_CPU / 1000000L) * _us);
     502:	18 17       	cp	r17, r24
     504:	59 f0       	breq	.+22     	; 0x51c <UPDI::loop_until_key_stat_is_set(unsigned char, unsigned int) [clone .constprop.20]+0x2c>
delay_micros():
     506:	86 ea       	ldi	r24, 0xA6	; 166
     508:	8a 95       	dec	r24
/Users/askn/Documents/Zinnia-tools/Products/hardware/UPDI4AVR/libraries/UPDI4AVR/examples/UPDI4AVR_FW634B/src/UPDI.cpp:384
    #ifdef ENABLE_DEBUG_UPDI_SENDER
    _send_ptr = _back;
    #endif
    TIM::delay_50us();
  } while (--limit);
     50a:	f1 f7       	brne	.-4      	; 0x508 <UPDI::loop_until_key_stat_is_set(unsigned char, unsigned int) [clone .constprop.20]+0x18>
     50c:	00 c0       	rjmp	.+0      	; 0x50e <UPDI::loop_until_key_stat_is_set(unsigned char, unsigned int) [clone .constprop.20]+0x1e>
_ZN4UPDI26loop_until_key_stat_is_setEhj.constprop.20():
/Users/askn/Documents/Zinnia-tools/Products/hardware/UPDI4AVR/libraries/UPDI4AVR/examples/UPDI4AVR_FW634B/src/UPDI.cpp:385
  return false;
     50e:	21 97       	sbiw	r28, 0x01	; 1
/Users/askn/Documents/Zinnia-tools/Products/hardware/UPDI4AVR/libraries/UPDI4AVR/examples/UPDI4AVR_FW634B/src/UPDI.cpp:386
}
     510:	a9 f7       	brne	.-22     	; 0x4fc <UPDI::loop_until_key_stat_is_set(unsigned char, unsigned int) [clone .constprop.20]+0xc>
     512:	80 e0       	ldi	r24, 0x00	; 0
     514:	df 91       	pop	r29
     516:	cf 91       	pop	r28
/Users/askn/Documents/Zinnia-tools/Products/hardware/UPDI4AVR/libraries/UPDI4AVR/examples/UPDI4AVR_FW634B/src/UPDI.cpp:379
bool UPDI::loop_until_key_stat_is_set (uint8_t bitmap, uint16_t limit) {
  #ifdef ENABLE_DEBUG_UPDI_SENDER
  uint16_t _back = _send_ptr;
  #endif
  do {
    if (is_key_stat(bitmap)) return true;
     518:	1f 91       	pop	r17
     51a:	08 95       	ret
/Users/askn/Documents/Zinnia-tools/Products/hardware/UPDI4AVR/libraries/UPDI4AVR/examples/UPDI4AVR_FW634B/src/UPDI.cpp:390
  return false;
}

/* __attribute__((optimize("O0"))) */
bool UPDI::set_nvmprog_key (void) {
  if (!send_bytes(nvmprog_key, sizeof(nvmprog_key))) return false;
     51c:	81 e0       	ldi	r24, 0x01	; 1
     51e:	fa cf       	rjmp	.-12     	; 0x514 <UPDI::loop_until_key_stat_is_set(unsigned char, unsigned int) [clone .constprop.20]+0x24>

00000520 <UPDI::set_nvmprog_key()>:
_ZN4UPDI15set_nvmprog_keyEv():
     520:	6a e0       	ldi	r22, 0x0A	; 10
     522:	86 e1       	ldi	r24, 0x16	; 22
     524:	98 e3       	ldi	r25, 0x38	; 56
     526:	17 de       	rcall	.-978    	; 0x156 <UPDI::send_bytes(unsigned char*, unsigned char)>
/Users/askn/Documents/Zinnia-tools/Products/hardware/UPDI4AVR/libraries/UPDI4AVR/examples/UPDI4AVR_FW634B/src/UPDI.cpp:391
  return loop_until_key_stat_is_set(UPDI_KEY_NVMPROG);
     528:	88 23       	and	r24, r24
     52a:	11 f0       	breq	.+4      	; 0x530 <UPDI::set_nvmprog_key()+0x10>
     52c:	80 e1       	ldi	r24, 0x10	; 16
/Users/askn/Documents/Zinnia-tools/Products/hardware/UPDI4AVR/libraries/UPDI4AVR/examples/UPDI4AVR_FW634B/src/UPDI.cpp:392
}
     52e:	e0 cf       	rjmp	.-64     	; 0x4f0 <UPDI::loop_until_key_stat_is_set(unsigned char, unsigned int) [clone .constprop.20]>
     530:	80 e0       	ldi	r24, 0x00	; 0
/Users/askn/Documents/Zinnia-tools/Products/hardware/UPDI4AVR/libraries/UPDI4AVR/examples/UPDI4AVR_FW634B/src/UPDI.cpp:344
  } while (--limit);
  return false;
}

/* __attribute__((optimize("O0"))) */
bool UPDI::loop_until_sys_stat_is_set (uint8_t bitmap, uint16_t limit) {
     532:	08 95       	ret

00000534 <UPDI::loop_until_sys_stat_is_set(unsigned char, unsigned int) [clone .constprop.23]>:
_ZN4UPDI26loop_until_sys_stat_is_setEhj.constprop.23():
     534:	1f 93       	push	r17
     536:	cf 93       	push	r28
     538:	df 93       	push	r29
     53a:	18 2f       	mov	r17, r24
     53c:	d0 e0       	ldi	r29, 0x00	; 0
/Users/askn/Documents/Zinnia-tools/Products/hardware/UPDI4AVR/libraries/UPDI4AVR/examples/UPDI4AVR_FW634B/src/UPDI.cpp:294
  send_bytes(set_ptr, sizeof(set_ptr));
  return RECV();
}

bool UPDI::is_cs_stat (uint8_t code, uint8_t check) {
  return check == (get_cs_stat(code) & check);
     53e:	c0 e0       	ldi	r28, 0x00	; 0
is_cs_stat():
     540:	8b e0       	ldi	r24, 0x0B	; 11
     542:	5c de       	rcall	.-840    	; 0x1fc <UPDI::get_cs_stat(unsigned char)>
     544:	81 23       	and	r24, r17
_ZN4UPDI26loop_until_sys_stat_is_setEhj.constprop.23():
/Users/askn/Documents/Zinnia-tools/Products/hardware/UPDI4AVR/libraries/UPDI4AVR/examples/UPDI4AVR_FW634B/src/UPDI.cpp:349
bool UPDI::loop_until_sys_stat_is_set (uint8_t bitmap, uint16_t limit) {
  #ifdef ENABLE_DEBUG_UPDI_SENDER
  uint16_t _back = _send_ptr;
  #endif
  do {
    if (is_sys_stat(bitmap)) return true;
     546:	18 17       	cp	r17, r24
     548:	59 f0       	breq	.+22     	; 0x560 <UPDI::loop_until_sys_stat_is_set(unsigned char, unsigned int) [clone .constprop.23]+0x2c>
delay_micros():
/Users/askn/Library/Arduino15/packages/MultiX-Zinnia/hardware/UPDI4AVR/0.2.8/cores/megaAVR/api/delay_busywait.h:31
     54a:	86 ea       	ldi	r24, 0xA6	; 166
     54c:	8a 95       	dec	r24
     54e:	f1 f7       	brne	.-4      	; 0x54c <UPDI::loop_until_sys_stat_is_set(unsigned char, unsigned int) [clone .constprop.23]+0x18>
     550:	00 c0       	rjmp	.+0      	; 0x552 <UPDI::loop_until_sys_stat_is_set(unsigned char, unsigned int) [clone .constprop.23]+0x1e>
_ZN4UPDI26loop_until_sys_stat_is_setEhj.constprop.23():
/Users/askn/Documents/Zinnia-tools/Products/hardware/UPDI4AVR/libraries/UPDI4AVR/examples/UPDI4AVR_FW634B/src/UPDI.cpp:354
    #ifdef ENABLE_DEBUG_UPDI_SENDER
    _send_ptr = _back;
    #endif
    TIM::delay_50us();
  } while (--limit);
     552:	21 97       	sbiw	r28, 0x01	; 1
     554:	a9 f7       	brne	.-22     	; 0x540 <UPDI::loop_until_sys_stat_is_set(unsigned char, unsigned int) [clone .constprop.23]+0xc>
/Users/askn/Documents/Zinnia-tools/Products/hardware/UPDI4AVR/libraries/UPDI4AVR/examples/UPDI4AVR_FW634B/src/UPDI.cpp:355
  return false;
     556:	80 e0       	ldi	r24, 0x00	; 0
/Users/askn/Documents/Zinnia-tools/Products/hardware/UPDI4AVR/libraries/UPDI4AVR/examples/UPDI4AVR_FW634B/src/UPDI.cpp:356
}
     558:	df 91       	pop	r29
     55a:	cf 91       	pop	r28
     55c:	1f 91       	pop	r17
     55e:	08 95       	ret
/Users/askn/Documents/Zinnia-tools/Products/hardware/UPDI4AVR/libraries/UPDI4AVR/examples/UPDI4AVR_FW634B/src/UPDI.cpp:349
bool UPDI::loop_until_sys_stat_is_set (uint8_t bitmap, uint16_t limit) {
  #ifdef ENABLE_DEBUG_UPDI_SENDER
  uint16_t _back = _send_ptr;
  #endif
  do {
    if (is_sys_stat(bitmap)) return true;
     560:	81 e0       	ldi	r24, 0x01	; 1
     562:	fa cf       	rjmp	.-12     	; 0x558 <UPDI::loop_until_sys_stat_is_set(unsigned char, unsigned int) [clone .constprop.23]+0x24>

00000564 <UPDI::loop_until_sys_stat_is_clear(unsigned char, unsigned int)>:
_ZN4UPDI28loop_until_sys_stat_is_clearEhj():
/Users/askn/Documents/Zinnia-tools/Products/hardware/UPDI4AVR/libraries/UPDI4AVR/examples/UPDI4AVR_FW634B/src/UPDI.cpp:329
uint8_t UPDI::get_cs_asi_ctra (void) {
  return get_cs_stat(UPDI_CS_ASI_CTRLA);
}

/* __attribute__((optimize("O0"))) */
bool UPDI::loop_until_sys_stat_is_clear (uint8_t bitmap, uint16_t limit) {
     564:	1f 93       	push	r17
     566:	cf 93       	push	r28
     568:	df 93       	push	r29
     56a:	18 2f       	mov	r17, r24
     56c:	eb 01       	movw	r28, r22
is_cs_stat():
/Users/askn/Documents/Zinnia-tools/Products/hardware/UPDI4AVR/libraries/UPDI4AVR/examples/UPDI4AVR_FW634B/src/UPDI.cpp:294
  send_bytes(set_ptr, sizeof(set_ptr));
  return RECV();
}

bool UPDI::is_cs_stat (uint8_t code, uint8_t check) {
  return check == (get_cs_stat(code) & check);
     56e:	8b e0       	ldi	r24, 0x0B	; 11
     570:	45 de       	rcall	.-886    	; 0x1fc <UPDI::get_cs_stat(unsigned char)>
     572:	81 23       	and	r24, r17
_ZN4UPDI28loop_until_sys_stat_is_clearEhj():
     574:	18 13       	cpse	r17, r24
/Users/askn/Documents/Zinnia-tools/Products/hardware/UPDI4AVR/libraries/UPDI4AVR/examples/UPDI4AVR_FW634B/src/UPDI.cpp:334
bool UPDI::loop_until_sys_stat_is_clear (uint8_t bitmap, uint16_t limit) {
  #ifdef ENABLE_DEBUG_UPDI_SENDER
  uint16_t _back = _send_ptr;
  #endif
  do {
    if (!is_sys_stat(bitmap)) return true;
     576:	0b c0       	rjmp	.+22     	; 0x58e <UPDI::loop_until_sys_stat_is_clear(unsigned char, unsigned int)+0x2a>
delay_micros():
     578:	86 ea       	ldi	r24, 0xA6	; 166
/Users/askn/Library/Arduino15/packages/MultiX-Zinnia/hardware/UPDI4AVR/0.2.8/cores/megaAVR/api/delay_busywait.h:31
     57a:	8a 95       	dec	r24
     57c:	f1 f7       	brne	.-4      	; 0x57a <UPDI::loop_until_sys_stat_is_clear(unsigned char, unsigned int)+0x16>
     57e:	00 c0       	rjmp	.+0      	; 0x580 <UPDI::loop_until_sys_stat_is_clear(unsigned char, unsigned int)+0x1c>
_ZN4UPDI28loop_until_sys_stat_is_clearEhj():
     580:	21 97       	sbiw	r28, 0x01	; 1
/Users/askn/Documents/Zinnia-tools/Products/hardware/UPDI4AVR/libraries/UPDI4AVR/examples/UPDI4AVR_FW634B/src/UPDI.cpp:339
    #ifdef ENABLE_DEBUG_UPDI_SENDER
    _send_ptr = _back;
    #endif
    TIM::delay_50us();
  } while (--limit);
     582:	a9 f7       	brne	.-22     	; 0x56e <UPDI::loop_until_sys_stat_is_clear(unsigned char, unsigned int)+0xa>
     584:	80 e0       	ldi	r24, 0x00	; 0
/Users/askn/Documents/Zinnia-tools/Products/hardware/UPDI4AVR/libraries/UPDI4AVR/examples/UPDI4AVR_FW634B/src/UPDI.cpp:340
  return false;
     586:	df 91       	pop	r29
/Users/askn/Documents/Zinnia-tools/Products/hardware/UPDI4AVR/libraries/UPDI4AVR/examples/UPDI4AVR_FW634B/src/UPDI.cpp:341
}
     588:	cf 91       	pop	r28
     58a:	1f 91       	pop	r17
     58c:	08 95       	ret
     58e:	81 e0       	ldi	r24, 0x01	; 1
/Users/askn/Documents/Zinnia-tools/Products/hardware/UPDI4AVR/libraries/UPDI4AVR/examples/UPDI4AVR_FW634B/src/UPDI.cpp:334
bool UPDI::loop_until_sys_stat_is_clear (uint8_t bitmap, uint16_t limit) {
  #ifdef ENABLE_DEBUG_UPDI_SENDER
  uint16_t _back = _send_ptr;
  #endif
  do {
    if (!is_sys_stat(bitmap)) return true;
     590:	fa cf       	rjmp	.-12     	; 0x586 <UPDI::loop_until_sys_stat_is_clear(unsigned char, unsigned int)+0x22>

00000592 <UPDI::HV_Pulse()>:
_ZN4UPDI8HV_PulseEv():
     592:	80 91 64 38 	lds	r24, 0x3864	; 0x803864 <JTAG2::updi_desc+0x2>
/Users/askn/Documents/Zinnia-tools/Products/hardware/UPDI4AVR/libraries/UPDI4AVR/examples/UPDI4AVR_FW634B/src/UPDI.cpp:422

void UPDI::HV_Pulse (void) {
  #ifdef ENABLE_DEBUG_UPDI_SENDER
  UPDI::_send_buf_push(JTAG2::updi_desc.hvupdi_variant);
  #endif
  if (JTAG2::updi_desc.hvupdi_variant != '0'
     596:	8d 7f       	andi	r24, 0xFD	; 253
     598:	80 33       	cpi	r24, 0x30	; 48
     59a:	09 f0       	breq	.+2      	; 0x59e <UPDI::HV_Pulse()+0xc>
     59c:	38 c0       	rjmp	.+112    	; 0x60e <UPDI::HV_Pulse()+0x7c>
HV_Pulse_ON():
     59e:	80 93 01 0a 	sts	0x0A01, r24	; 0x800a01 <__RODATA_PM_OFFSET__+0x7f8a01>
_ZN4UPDI8HV_PulseEv():
/Users/askn/Documents/Zinnia-tools/Products/hardware/UPDI4AVR/libraries/UPDI4AVR/examples/UPDI4AVR_FW634B/src/UPDI.cpp:429

  /* Run high voltage generator */
  TIM::HV_Pulse_ON();

  /* Perform a hardware reset (if wired) */
  openDrainWrite(TRST_PIN, LOW);
     5a2:	21 9a       	sbi	0x04, 1	; 4
delay_micros():
/Users/askn/Library/Arduino15/packages/MultiX-Zinnia/hardware/UPDI4AVR/0.2.8/cores/megaAVR/api/delay_busywait.h:31
     5a4:	86 ea       	ldi	r24, 0xA6	; 166
     5a6:	8a 95       	dec	r24
     5a8:	f1 f7       	brne	.-4      	; 0x5a6 <UPDI::HV_Pulse()+0x14>
     5aa:	00 c0       	rjmp	.+0      	; 0x5ac <UPDI::HV_Pulse()+0x1a>
_ZN4UPDI8HV_PulseEv():
/Users/askn/Documents/Zinnia-tools/Products/hardware/UPDI4AVR/libraries/UPDI4AVR/examples/UPDI4AVR_FW634B/src/UPDI.cpp:431
  TIM::delay_50us();
  openDrainWrite(TRST_PIN, HIGH);
     5ac:	21 98       	cbi	0x04, 1	; 4
delay_micros():
/Users/askn/Library/Arduino15/packages/MultiX-Zinnia/hardware/UPDI4AVR/0.2.8/cores/megaAVR/api/delay_busywait.h:31
     5ae:	8f ec       	ldi	r24, 0xCF	; 207
     5b0:	97 e0       	ldi	r25, 0x07	; 7
     5b2:	01 97       	sbiw	r24, 0x01	; 1
     5b4:	f1 f7       	brne	.-4      	; 0x5b2 <UPDI::HV_Pulse()+0x20>
     5b6:	00 c0       	rjmp	.+0      	; 0x5b8 <UPDI::HV_Pulse()+0x26>
/Users/askn/Documents/Zinnia-tools/Products/hardware/UPDI4AVR/libraries/UPDI4AVR/examples/UPDI4AVR_FW634B/src/UPDI.cpp:435
  TIM::delay_800us();
  /* During this time, raise the circuit to sufficient voltage */

  if (JTAG2::updi_desc.hvupdi_variant == '0')
     5b8:	00 00       	nop
_ZN4UPDI8HV_PulseEv():
     5ba:	80 91 64 38 	lds	r24, 0x3864	; 0x803864 <JTAG2::updi_desc+0x2>
     5be:	80 33       	cpi	r24, 0x30	; 48
/Users/askn/Documents/Zinnia-tools/Products/hardware/UPDI4AVR/libraries/UPDI4AVR/examples/UPDI4AVR_FW634B/src/UPDI.cpp:436
    digitalWrite(HV12_PIN, HIGH);
     5c0:	11 f5       	brne	.+68     	; 0x606 <UPDI::HV_Pulse()+0x74>
/Users/askn/Library/Arduino15/packages/MultiX-Zinnia/hardware/UPDI4AVR/0.2.8/cores/megaAVR/api/delay_busywait.h:31
     5c2:	0e 9a       	sbi	0x01, 6	; 1
delay_micros():
     5c4:	8f ec       	ldi	r24, 0xCF	; 207
     5c6:	97 e0       	ldi	r25, 0x07	; 7
     5c8:	01 97       	sbiw	r24, 0x01	; 1
     5ca:	f1 f7       	brne	.-4      	; 0x5c8 <UPDI::HV_Pulse()+0x36>
     5cc:	00 c0       	rjmp	.+0      	; 0x5ce <UPDI::HV_Pulse()+0x3c>
/Users/askn/Documents/Zinnia-tools/Products/hardware/UPDI4AVR/libraries/UPDI4AVR/examples/UPDI4AVR_FW634B/src/UPDI.cpp:443
    digitalWrite(HV8_PIN, HIGH);

  /* Apply high voltage only for the required time */
  TIM::delay_800us();

  if (JTAG2::updi_desc.hvupdi_variant == '0')
     5ce:	00 00       	nop
_ZN4UPDI8HV_PulseEv():
     5d0:	80 91 64 38 	lds	r24, 0x3864	; 0x803864 <JTAG2::updi_desc+0x2>
     5d4:	80 33       	cpi	r24, 0x30	; 48
/Users/askn/Documents/Zinnia-tools/Products/hardware/UPDI4AVR/libraries/UPDI4AVR/examples/UPDI4AVR_FW634B/src/UPDI.cpp:444
    digitalWrite(HV12_PIN, LOW);
     5d6:	c9 f4       	brne	.+50     	; 0x60a <UPDI::HV_Pulse()+0x78>
/Users/askn/Documents/Zinnia-tools/Products/hardware/UPDI4AVR/libraries/UPDI4AVR/examples/UPDI4AVR_FW634B/src/TIM.cpp:183
void TIM::HV_Pulse_ON (void) {
  TCA0_SPLIT_CTRLB = TCA_SPLIT_HCMP0EN_bm | TCA_SPLIT_HCMP1EN_bm;
}

void TIM::HV_Pulse_OFF (void) {
  TCA0_SPLIT_CTRLB = 0;
     5d8:	0e 98       	cbi	0x01, 6	; 1
HV_Pulse_OFF():
     5da:	10 92 01 0a 	sts	0x0A01, r1	; 0x800a01 <__RODATA_PM_OFFSET__+0x7f8a01>
_ZN4UPDI8HV_PulseEv():
/Users/askn/Documents/Zinnia-tools/Products/hardware/UPDI4AVR/libraries/UPDI4AVR/examples/UPDI4AVR_FW634B/src/UPDI.cpp:451
    digitalWrite(HV8_PIN, LOW);

  TIM::HV_Pulse_OFF();

  /* Keep the UPDI signal low for as long as necessary */
  UPDI_USART.BAUD = UPDI_BAUD_SHORT_BREAK;
     5de:	88 ee       	ldi	r24, 0xE8	; 232
     5e0:	93 e0       	ldi	r25, 0x03	; 3
     5e2:	80 93 08 08 	sts	0x0808, r24	; 0x800808 <__RODATA_PM_OFFSET__+0x7f8808>
/Users/askn/Documents/Zinnia-tools/Products/hardware/UPDI4AVR/libraries/UPDI4AVR/examples/UPDI4AVR_FW634B/src/UPDI.cpp:452
  SEND(UPDI_NOP);
     5e6:	90 93 09 08 	sts	0x0809, r25	; 0x800809 <__RODATA_PM_OFFSET__+0x7f8809>
/Users/askn/Documents/Zinnia-tools/Products/hardware/UPDI4AVR/libraries/UPDI4AVR/examples/UPDI4AVR_FW634B/src/UPDI.cpp:453
  UPDI_USART.BAUD = UPDI_BAUD_CALC;
     5ea:	80 e0       	ldi	r24, 0x00	; 0
     5ec:	9a dd       	rcall	.-1228   	; 0x122 <UPDI::SEND(unsigned char)>
     5ee:	80 eb       	ldi	r24, 0xB0	; 176
     5f0:	90 e0       	ldi	r25, 0x00	; 0
     5f2:	80 93 08 08 	sts	0x0808, r24	; 0x800808 <__RODATA_PM_OFFSET__+0x7f8808>
/Users/askn/Documents/Zinnia-tools/Products/hardware/UPDI4AVR/libraries/UPDI4AVR/examples/UPDI4AVR_FW634B/src/UPDI.cpp:456

  bit_clear(UPDI_CONTROL, UPDI_CLKU_bp);
  bit_set(UPDI_CONTROL, UPDI_ERHV_bp);
     5f6:	90 93 09 08 	sts	0x0809, r25	; 0x800809 <__RODATA_PM_OFFSET__+0x7f8809>
/Users/askn/Documents/Zinnia-tools/Products/hardware/UPDI4AVR/libraries/UPDI4AVR/examples/UPDI4AVR_FW634B/src/UPDI.cpp:459

  /* Wait for system reset to finish */
  loop_until_sys_stat_is_clear(UPDI_SYS_RSTSYS);
     5fa:	e6 98       	cbi	0x1c, 6	; 28
     5fc:	e3 9a       	sbi	0x1c, 3	; 28
     5fe:	70 e0       	ldi	r23, 0x00	; 0
/Users/askn/Documents/Zinnia-tools/Products/hardware/UPDI4AVR/libraries/UPDI4AVR/examples/UPDI4AVR_FW634B/src/UPDI.cpp:438
  /* During this time, raise the circuit to sufficient voltage */

  if (JTAG2::updi_desc.hvupdi_variant == '0')
    digitalWrite(HV12_PIN, HIGH);
  else
    digitalWrite(HV8_PIN, HIGH);
     600:	60 e0       	ldi	r22, 0x00	; 0
     602:	80 e2       	ldi	r24, 0x20	; 32
/Users/askn/Documents/Zinnia-tools/Products/hardware/UPDI4AVR/libraries/UPDI4AVR/examples/UPDI4AVR_FW634B/src/UPDI.cpp:446
  TIM::delay_800us();

  if (JTAG2::updi_desc.hvupdi_variant == '0')
    digitalWrite(HV12_PIN, LOW);
  else
    digitalWrite(HV8_PIN, LOW);
     604:	af cf       	rjmp	.-162    	; 0x564 <UPDI::loop_until_sys_stat_is_clear(unsigned char, unsigned int)>
/Users/askn/Documents/Zinnia-tools/Products/hardware/UPDI4AVR/libraries/UPDI4AVR/examples/UPDI4AVR_FW634B/src/UPDI.cpp:460
  bit_clear(UPDI_CONTROL, UPDI_CLKU_bp);
  bit_set(UPDI_CONTROL, UPDI_ERHV_bp);

  /* Wait for system reset to finish */
  loop_until_sys_stat_is_clear(UPDI_SYS_RSTSYS);
}
     606:	2d 9a       	sbi	0x05, 5	; 5
/Users/askn/Documents/Zinnia-tools/Products/hardware/UPDI4AVR/libraries/UPDI4AVR/examples/UPDI4AVR_FW634B/src/UPDI.cpp:560

/**********************
 * UPDI control start *
 **********************/

bool UPDI::enter_updi (bool skip) {
     608:	dd cf       	rjmp	.-70     	; 0x5c4 <UPDI::HV_Pulse()+0x32>
     60a:	2d 98       	cbi	0x05, 5	; 5
     60c:	e6 cf       	rjmp	.-52     	; 0x5da <UPDI::HV_Pulse()+0x48>
/Users/askn/Documents/Zinnia-tools/Products/hardware/UPDI4AVR/libraries/UPDI4AVR/examples/UPDI4AVR_FW634B/src/UPDI.cpp:562
  /* Release the physical reset */
  openDrainWrite(TRST_PIN, HIGH);
     60e:	08 95       	ret

00000610 <UPDI::enter_updi(bool)>:
_ZN4UPDI10enter_updiEb():
/Users/askn/Documents/Zinnia-tools/Products/hardware/UPDI4AVR/libraries/UPDI4AVR/examples/UPDI4AVR_FW634B/src/UPDI.cpp:563
  JTAG2::updi_desc.signature[0] = 0;
     610:	0f 93       	push	r16
     612:	1f 93       	push	r17
/Users/askn/Documents/Zinnia-tools/Products/hardware/UPDI4AVR/libraries/UPDI4AVR/examples/UPDI4AVR_FW634B/src/UPDI.cpp:564
  JTAG2::updi_desc.signature[1] = 0;
     614:	cf 93       	push	r28
/Users/askn/Documents/Zinnia-tools/Products/hardware/UPDI4AVR/libraries/UPDI4AVR/examples/UPDI4AVR_FW634B/src/UPDI.cpp:565
  JTAG2::updi_desc.signature[2] = 0;
     616:	df 93       	push	r29
     618:	21 98       	cbi	0x04, 1	; 4
/Users/askn/Documents/Zinnia-tools/Products/hardware/UPDI4AVR/libraries/UPDI4AVR/examples/UPDI4AVR_FW634B/src/UPDI.cpp:568

  /* target reset deactive */
  if (!skip) {
     61a:	10 92 69 38 	sts	0x3869, r1	; 0x803869 <JTAG2::updi_desc+0x7>
/Users/askn/Documents/Zinnia-tools/Products/hardware/UPDI4AVR/libraries/UPDI4AVR/examples/UPDI4AVR_FW634B/src/UPDI.cpp:570
    /* HV control forced permission */
    if (bit_is_set(UPDI_CONTROL, UPDI_FCHV_bp)) {
     61e:	10 92 6a 38 	sts	0x386A, r1	; 0x80386a <JTAG2::updi_desc+0x8>
/Users/askn/Documents/Zinnia-tools/Products/hardware/UPDI4AVR/libraries/UPDI4AVR/examples/UPDI4AVR_FW634B/src/UPDI.cpp:571
      HV_Pulse();
     622:	10 92 6b 38 	sts	0x386B, r1	; 0x80386b <JTAG2::updi_desc+0x9>
/Users/askn/Documents/Zinnia-tools/Products/hardware/UPDI4AVR/libraries/UPDI4AVR/examples/UPDI4AVR_FW634B/src/UPDI.cpp:572
      loop_until_sys_stat_is_clear(UPDI_SYS_RSTSYS, 500);
     626:	81 11       	cpse	r24, r1
     628:	1f c0       	rjmp	.+62     	; 0x668 <UPDI::enter_updi(bool)+0x58>
     62a:	e4 9b       	sbis	0x1c, 4	; 28
     62c:	59 c0       	rjmp	.+178    	; 0x6e0 <UPDI::enter_updi(bool)+0xd0>
/Users/askn/Documents/Zinnia-tools/Products/hardware/UPDI4AVR/libraries/UPDI4AVR/examples/UPDI4AVR_FW634B/src/UPDI.cpp:573
      JTAG2::updi_desc.signature[0] = 0xff;
     62e:	b1 df       	rcall	.-158    	; 0x592 <UPDI::HV_Pulse()>
     630:	64 ef       	ldi	r22, 0xF4	; 244
     632:	71 e0       	ldi	r23, 0x01	; 1
/Users/askn/Documents/Zinnia-tools/Products/hardware/UPDI4AVR/libraries/UPDI4AVR/examples/UPDI4AVR_FW634B/src/UPDI.cpp:574
      JTAG2::updi_desc.signature[1] = 0xff;
     634:	80 e2       	ldi	r24, 0x20	; 32
/Users/askn/Documents/Zinnia-tools/Products/hardware/UPDI4AVR/libraries/UPDI4AVR/examples/UPDI4AVR_FW634B/src/UPDI.cpp:575
      JTAG2::updi_desc.signature[2] = 0xff;
     636:	96 df       	rcall	.-212    	; 0x564 <UPDI::loop_until_sys_stat_is_clear(unsigned char, unsigned int)>
     638:	8f ef       	ldi	r24, 0xFF	; 255
/Users/askn/Documents/Zinnia-tools/Products/hardware/UPDI4AVR/libraries/UPDI4AVR/examples/UPDI4AVR_FW634B/src/UPDI.cpp:578

      /* send nvmprog_key */
      if (!set_nvmprog_key()) return false;
     63a:	80 93 69 38 	sts	0x3869, r24	; 0x803869 <JTAG2::updi_desc+0x7>
     63e:	80 93 6a 38 	sts	0x386A, r24	; 0x80386a <JTAG2::updi_desc+0x8>
/Users/askn/Documents/Zinnia-tools/Products/hardware/UPDI4AVR/libraries/UPDI4AVR/examples/UPDI4AVR_FW634B/src/UPDI.cpp:642
        /* Version 4 is now considered the same as 2. */
        bit_set(UPDI_NVMCTRL, UPDI_GEN2_bp);
        break;
      }
      default : {
        return false;
     642:	80 93 6b 38 	sts	0x386B, r24	; 0x80386b <JTAG2::updi_desc+0x9>
/Users/askn/Documents/Zinnia-tools/Products/hardware/UPDI4AVR/libraries/UPDI4AVR/examples/UPDI4AVR_FW634B/src/UPDI.cpp:581

      /* send nvmprog_key */
      if (!set_nvmprog_key()) return false;

      /* restart target : change mode */
      if (!updi_reset(true) || !updi_reset(false)) return false;
     646:	6c df       	rcall	.-296    	; 0x520 <UPDI::set_nvmprog_key()>
     648:	81 11       	cpse	r24, r1
     64a:	02 c0       	rjmp	.+4      	; 0x650 <UPDI::enter_updi(bool)+0x40>
     64c:	80 e0       	ldi	r24, 0x00	; 0
     64e:	6b c0       	rjmp	.+214    	; 0x726 <UPDI::enter_updi(bool)+0x116>
     650:	81 e0       	ldi	r24, 0x01	; 1
     652:	5a de       	rcall	.-844    	; 0x308 <UPDI::updi_reset(bool)>
     654:	88 23       	and	r24, r24
     656:	d1 f3       	breq	.-12     	; 0x64c <UPDI::enter_updi(bool)+0x3c>
/Users/askn/Documents/Zinnia-tools/Products/hardware/UPDI4AVR/libraries/UPDI4AVR/examples/UPDI4AVR_FW634B/src/UPDI.cpp:582
      loop_until_sys_stat_is_clear(UPDI_SYS_RSTSYS);
     658:	80 e0       	ldi	r24, 0x00	; 0
     65a:	56 de       	rcall	.-852    	; 0x308 <UPDI::updi_reset(bool)>
     65c:	88 23       	and	r24, r24
     65e:	b1 f3       	breq	.-20     	; 0x64c <UPDI::enter_updi(bool)+0x3c>
     660:	70 e0       	ldi	r23, 0x00	; 0
/Users/askn/Documents/Zinnia-tools/Products/hardware/UPDI4AVR/libraries/UPDI4AVR/examples/UPDI4AVR_FW634B/src/UPDI.cpp:587
    }
    else
      BREAK();
  }
  if (bit_is_clear(UPDI_CONTROL, UPDI_INFO_bp)) {
     662:	60 e0       	ldi	r22, 0x00	; 0
     664:	80 e2       	ldi	r24, 0x20	; 32
/Users/askn/Documents/Zinnia-tools/Products/hardware/UPDI4AVR/libraries/UPDI4AVR/examples/UPDI4AVR_FW634B/src/UPDI.cpp:317
  set_ptr[2] = data;
  return send_bytes(set_ptr, sizeof(set_ptr));
}

bool UPDI::set_cs_ctra (uint8_t data) {
  return set_cs_stat(UPDI_CS_CTRLA, data);
     666:	7e df       	rcall	.-260    	; 0x564 <UPDI::loop_until_sys_stat_is_clear(unsigned char, unsigned int)>
     668:	e0 99       	sbic	0x1c, 0	; 28
     66a:	50 c0       	rjmp	.+160    	; 0x70c <UPDI::enter_updi(bool)+0xfc>
set_cs_ctra():
     66c:	66 e0       	ldi	r22, 0x06	; 6
/Users/askn/Documents/Zinnia-tools/Products/hardware/UPDI4AVR/libraries/UPDI4AVR/examples/UPDI4AVR_FW634B/src/UPDI.cpp:589
    else
      BREAK();
  }
  if (bit_is_clear(UPDI_CONTROL, UPDI_INFO_bp)) {
    /* Minimize guard time */
    if (!set_cs_ctra(UPDI_GTVAL)) return false;
     66e:	82 e0       	ldi	r24, 0x02	; 2
     670:	83 dd       	rcall	.-1274   	; 0x178 <UPDI::set_cs_stat(unsigned char, unsigned char)>
_ZN4UPDI10enter_updiEb():
/Users/askn/Documents/Zinnia-tools/Products/hardware/UPDI4AVR/libraries/UPDI4AVR/examples/UPDI4AVR_FW634B/src/UPDI.cpp:591

    JTAG2::updi_desc.signature[0] = 0xff;
     672:	88 23       	and	r24, r24
     674:	59 f3       	breq	.-42     	; 0x64c <UPDI::enter_updi(bool)+0x3c>
     676:	8f ef       	ldi	r24, 0xFF	; 255
/Users/askn/Documents/Zinnia-tools/Products/hardware/UPDI4AVR/libraries/UPDI4AVR/examples/UPDI4AVR_FW634B/src/UPDI.cpp:592
    JTAG2::updi_desc.signature[1] = 0xff;
     678:	80 93 69 38 	sts	0x3869, r24	; 0x803869 <JTAG2::updi_desc+0x7>
/Users/askn/Documents/Zinnia-tools/Products/hardware/UPDI4AVR/libraries/UPDI4AVR/examples/UPDI4AVR_FW634B/src/UPDI.cpp:593
    JTAG2::updi_desc.signature[2] = 0xff;
     67c:	80 93 6a 38 	sts	0x386A, r24	; 0x80386a <JTAG2::updi_desc+0x8>
/Users/askn/Documents/Zinnia-tools/Products/hardware/UPDI4AVR/libraries/UPDI4AVR/examples/UPDI4AVR_FW634B/src/UPDI.cpp:294
  send_bytes(set_ptr, sizeof(set_ptr));
  return RECV();
}

bool UPDI::is_cs_stat (uint8_t code, uint8_t check) {
  return check == (get_cs_stat(code) & check);
     680:	80 93 6b 38 	sts	0x386B, r24	; 0x80386b <JTAG2::updi_desc+0x9>
is_cs_stat():
/Users/askn/Documents/Zinnia-tools/Products/hardware/UPDI4AVR/libraries/UPDI4AVR/examples/UPDI4AVR_FW634B/src/UPDI.cpp:595

    JTAG2::updi_desc.signature[0] = 0xff;
    JTAG2::updi_desc.signature[1] = 0xff;
    JTAG2::updi_desc.signature[2] = 0xff;

    if (is_sys_stat(UPDI_SYS_RSTSYS)) {
     684:	8b e0       	ldi	r24, 0x0B	; 11
/Users/askn/Documents/Zinnia-tools/Products/hardware/UPDI4AVR/libraries/UPDI4AVR/examples/UPDI4AVR_FW634B/src/UPDI.cpp:409
}

bool UPDI::read_sib (uint8_t *s_ptr) {
  static uint8_t set_ptr[] = { UPDI_SYNCH, UPDI_SIB_256 };
  uint8_t _len = 32;
  if (!send_bytes(set_ptr, sizeof(set_ptr))) return false;
     686:	ba dd       	rcall	.-1164   	; 0x1fc <UPDI::get_cs_stat(unsigned char)>
_ZN4UPDI10enter_updiEb():
     688:	85 fd       	sbrc	r24, 5
     68a:	2c c0       	rjmp	.+88     	; 0x6e4 <UPDI::enter_updi(bool)+0xd4>
read_sib():
     68c:	62 e0       	ldi	r22, 0x02	; 2
     68e:	80 e2       	ldi	r24, 0x20	; 32
     690:	98 e3       	ldi	r25, 0x38	; 56
     692:	61 dd       	rcall	.-1342   	; 0x156 <UPDI::send_bytes(unsigned char*, unsigned char)>
     694:	ce e6       	ldi	r28, 0x6E	; 110
     696:	d8 e3       	ldi	r29, 0x38	; 56
     698:	0e e8       	ldi	r16, 0x8E	; 142
/Users/askn/Documents/Zinnia-tools/Products/hardware/UPDI4AVR/libraries/UPDI4AVR/examples/UPDI4AVR_FW634B/src/UPDI.cpp:410
  do { *s_ptr++ = RECV(); } while (--_len);
     69a:	18 e3       	ldi	r17, 0x38	; 56
     69c:	88 23       	and	r24, r24
     69e:	b1 f2       	breq	.-84     	; 0x64c <UPDI::enter_updi(bool)+0x3c>
     6a0:	34 dd       	rcall	.-1432   	; 0x10a <UPDI::RECV()>
     6a2:	89 93       	st	Y+, r24
/Users/askn/Documents/Zinnia-tools/Products/hardware/UPDI4AVR/libraries/UPDI4AVR/examples/UPDI4AVR_FW634B/src/UPDI.cpp:604

    /*** Get System Information Block ***/
    /* Determine system requirements not announced by host control here */
    uint8_t* _p = &JTAG2::updi_desc.sib[0];
    if (!read_sib(_p)) return false;
    JTAG2::updi_desc.nvmctrl_version = _p[10];
     6a4:	0c 17       	cp	r16, r28
     6a6:	1d 07       	cpc	r17, r29
     6a8:	d9 f7       	brne	.-10     	; 0x6a0 <UPDI::enter_updi(bool)+0x90>
_ZN4UPDI10enter_updiEb():
/Users/askn/Documents/Zinnia-tools/Products/hardware/UPDI4AVR/libraries/UPDI4AVR/examples/UPDI4AVR_FW634B/src/UPDI.cpp:605
    JTAG2::updi_desc.signature[0] = 0x1e;
     6aa:	90 91 78 38 	lds	r25, 0x3878	; 0x803878 <JTAG2::updi_desc+0x16>
     6ae:	90 93 65 38 	sts	0x3865, r25	; 0x803865 <JTAG2::updi_desc+0x3>
/Users/askn/Documents/Zinnia-tools/Products/hardware/UPDI4AVR/libraries/UPDI4AVR/examples/UPDI4AVR_FW634B/src/UPDI.cpp:606
    JTAG2::updi_desc.signature[1] = _p[0];
     6b2:	8e e1       	ldi	r24, 0x1E	; 30
     6b4:	80 93 69 38 	sts	0x3869, r24	; 0x803869 <JTAG2::updi_desc+0x7>
/Users/askn/Documents/Zinnia-tools/Products/hardware/UPDI4AVR/libraries/UPDI4AVR/examples/UPDI4AVR_FW634B/src/UPDI.cpp:607
    JTAG2::updi_desc.signature[2] = _p[10];
     6b8:	80 91 6e 38 	lds	r24, 0x386E	; 0x80386e <JTAG2::updi_desc+0xc>
/Users/askn/Documents/Zinnia-tools/Products/hardware/UPDI4AVR/libraries/UPDI4AVR/examples/UPDI4AVR_FW634B/src/UPDI.cpp:608
    switch (_p[0]) {
     6bc:	80 93 6a 38 	sts	0x386A, r24	; 0x80386a <JTAG2::updi_desc+0x8>
     6c0:	90 93 6b 38 	sts	0x386B, r25	; 0x80386b <JTAG2::updi_desc+0x9>
     6c4:	81 34       	cpi	r24, 0x41	; 65
     6c6:	21 f0       	breq	.+8      	; 0x6d0 <UPDI::enter_updi(bool)+0xc0>
/Users/askn/Documents/Zinnia-tools/Products/hardware/UPDI4AVR/libraries/UPDI4AVR/examples/UPDI4AVR_FW634B/src/UPDI.cpp:627
        /* AVR Dx SIB = 'AVR     P:2D:1-3' */
        /* AVR DA SIB = '    AVR P:2D:1-3' (Regacy) */
        /* AVR EA SIB = 'AVR     P:3D:1-3' */
        /* AVR DU SIB = 'AVR     P:4D:1-3' */
        /* AVR EB SIB = 'AVR     P:5D:1-3' */
        JTAG2::updi_desc.signature[1] = 'A';
     6c8:	b0 f4       	brcc	.+44     	; 0x6f6 <UPDI::enter_updi(bool)+0xe6>
     6ca:	80 32       	cpi	r24, 0x20	; 32
     6cc:	09 f0       	breq	.+2      	; 0x6d0 <UPDI::enter_updi(bool)+0xc0>
/Users/askn/Documents/Zinnia-tools/Products/hardware/UPDI4AVR/libraries/UPDI4AVR/examples/UPDI4AVR_FW634B/src/UPDI.cpp:628
        if (JTAG2::updi_desc.nvmctrl_version == '3') {
     6ce:	be cf       	rjmp	.-132    	; 0x64c <UPDI::enter_updi(bool)+0x3c>
     6d0:	81 e4       	ldi	r24, 0x41	; 65
/Users/askn/Documents/Zinnia-tools/Products/hardware/UPDI4AVR/libraries/UPDI4AVR/examples/UPDI4AVR_FW634B/src/UPDI.cpp:635
          bit_set(UPDI_NVMCTRL, UPDI_GEN3_bp);
        }
        else if (JTAG2::updi_desc.nvmctrl_version == '5') {
          // 'AVR_EB' series
          bit_set(UPDI_NVMCTRL, UPDI_GEN5_bp);
          bit_set(UPDI_NVMCTRL, UPDI_GEN3_bp);
     6d2:	80 93 6a 38 	sts	0x386A, r24	; 0x80386a <JTAG2::updi_desc+0x8>
/Users/askn/Documents/Zinnia-tools/Products/hardware/UPDI4AVR/libraries/UPDI4AVR/examples/UPDI4AVR_FW634B/src/UPDI.cpp:638
        }
        /* Version 4 is now considered the same as 2. */
        bit_set(UPDI_NVMCTRL, UPDI_GEN2_bp);
     6d6:	93 33       	cpi	r25, 0x33	; 51
/Users/askn/Documents/Zinnia-tools/Products/hardware/UPDI4AVR/libraries/UPDI4AVR/examples/UPDI4AVR_FW634B/src/UPDI.cpp:585
      /* restart target : change mode */
      if (!updi_reset(true) || !updi_reset(false)) return false;
      loop_until_sys_stat_is_clear(UPDI_SYS_RSTSYS);
    }
    else
      BREAK();
     6d8:	69 f5       	brne	.+90     	; 0x734 <UPDI::enter_updi(bool)+0x124>
     6da:	ed 9a       	sbi	0x1d, 5	; 29
     6dc:	ee 9a       	sbi	0x1d, 6	; 29
/Users/askn/Documents/Zinnia-tools/Products/hardware/UPDI4AVR/libraries/UPDI4AVR/examples/UPDI4AVR_FW634B/src/UPDI.cpp:596
    JTAG2::updi_desc.signature[0] = 0xff;
    JTAG2::updi_desc.signature[1] = 0xff;
    JTAG2::updi_desc.signature[2] = 0xff;

    if (is_sys_stat(UPDI_SYS_RSTSYS)) {
      UPDI::Target_Reset(false);
     6de:	10 c0       	rjmp	.+32     	; 0x700 <UPDI::enter_updi(bool)+0xf0>
     6e0:	f4 dd       	rcall	.-1048   	; 0x2ca <UPDI::BREAK()>
     6e2:	c2 cf       	rjmp	.-124    	; 0x668 <UPDI::enter_updi(bool)+0x58>
/Users/askn/Documents/Zinnia-tools/Products/hardware/UPDI4AVR/libraries/UPDI4AVR/examples/UPDI4AVR_FW634B/src/UPDI.cpp:597
      if (!loop_until_sys_stat_is_clear(UPDI_SYS_RSTSYS, 500)) return false;
     6e4:	80 e0       	ldi	r24, 0x00	; 0
     6e6:	15 de       	rcall	.-982    	; 0x312 <UPDI::Target_Reset(bool)>
     6e8:	64 ef       	ldi	r22, 0xF4	; 244
     6ea:	71 e0       	ldi	r23, 0x01	; 1
     6ec:	80 e2       	ldi	r24, 0x20	; 32
     6ee:	3a df       	rcall	.-396    	; 0x564 <UPDI::loop_until_sys_stat_is_clear(unsigned char, unsigned int)>
     6f0:	81 11       	cpse	r24, r1
/Users/askn/Documents/Zinnia-tools/Products/hardware/UPDI4AVR/libraries/UPDI4AVR/examples/UPDI4AVR_FW634B/src/UPDI.cpp:608
    if (!read_sib(_p)) return false;
    JTAG2::updi_desc.nvmctrl_version = _p[10];
    JTAG2::updi_desc.signature[0] = 0x1e;
    JTAG2::updi_desc.signature[1] = _p[0];
    JTAG2::updi_desc.signature[2] = _p[10];
    switch (_p[0]) {
     6f2:	cc cf       	rjmp	.-104    	; 0x68c <UPDI::enter_updi(bool)+0x7c>
     6f4:	ab cf       	rjmp	.-170    	; 0x64c <UPDI::enter_updi(bool)+0x3c>
     6f6:	8d 36       	cpi	r24, 0x6D	; 109
     6f8:	d9 f0       	breq	.+54     	; 0x730 <UPDI::enter_updi(bool)+0x120>
     6fa:	84 37       	cpi	r24, 0x74	; 116
/Users/askn/Documents/Zinnia-tools/Products/hardware/UPDI4AVR/libraries/UPDI4AVR/examples/UPDI4AVR_FW634B/src/UPDI.cpp:645
      }
      default : {
        return false;
      }
    }
    bit_set(UPDI_CONTROL, UPDI_INFO_bp);
     6fc:	09 f0       	breq	.+2      	; 0x700 <UPDI::enter_updi(bool)+0xf0>
/Users/askn/Documents/Zinnia-tools/Products/hardware/UPDI4AVR/libraries/UPDI4AVR/examples/UPDI4AVR_FW634B/src/UPDI.cpp:648

    /* Measure the power supply voltage */
    bool hvol = SYS::get_vcc() >= 4250
     6fe:	a6 cf       	rjmp	.-180    	; 0x64c <UPDI::enter_updi(bool)+0x3c>
     700:	e0 9a       	sbi	0x1c, 0	; 28
/Users/askn/Documents/Zinnia-tools/Products/hardware/UPDI4AVR/libraries/UPDI4AVR/examples/UPDI4AVR_FW634B/src/UPDI.cpp:650
              // && JTAG2::updi_desc.nvmctrl_version == '2'
              && bit_is_clear(UPDI_CONTROL, UPDI_ERHV_bp);
     702:	3f de       	rcall	.-898    	; 0x382 <SYS::get_vcc()>
     704:	8a 39       	cpi	r24, 0x9A	; 154
     706:	90 41       	sbci	r25, 0x10	; 16
/Users/askn/Documents/Zinnia-tools/Products/hardware/UPDI4AVR/libraries/UPDI4AVR/examples/UPDI4AVR_FW634B/src/UPDI.cpp:325
bool UPDI::set_cs_asi_ctra (uint8_t data) {
  return set_cs_stat(UPDI_CS_ASI_CTRLA, data);
}

uint8_t UPDI::get_cs_asi_ctra (void) {
  return get_cs_stat(UPDI_CS_ASI_CTRLA);
     708:	08 f0       	brcs	.+2      	; 0x70c <UPDI::enter_updi(bool)+0xfc>
     70a:	8c b3       	in	r24, 0x1c	; 28
get_cs_asi_ctra():
     70c:	89 e0       	ldi	r24, 0x09	; 9
/Users/askn/Documents/Zinnia-tools/Products/hardware/UPDI4AVR/libraries/UPDI4AVR/examples/UPDI4AVR_FW634B/src/UPDI.cpp:657
    /* Instructs double speed mode if there is sufficient voltage and not after HV control */
    // if (hvol && !set_cs_asi_ctra(UPDI_SET_UPDICLKSEL_8M)) return false;
  }

  /* If the double speed mode change is successful, change the speed */
  if ((get_cs_asi_ctra() & UPDI_SET_UPDICLKSEL_bm)
     70e:	76 dd       	rcall	.-1300   	; 0x1fc <UPDI::get_cs_stat(unsigned char)>
_ZN4UPDI10enter_updiEb():
     710:	83 70       	andi	r24, 0x03	; 3
     712:	82 30       	cpi	r24, 0x02	; 2
/Users/askn/Documents/Zinnia-tools/Products/hardware/UPDI4AVR/libraries/UPDI4AVR/examples/UPDI4AVR_FW634B/src/UPDI.cpp:659
                        == UPDI_SET_UPDICLKSEL_8M) {
    UPDI_USART.BAUD = UPDI_BAUD_CALC >> 1;
     714:	99 f4       	brne	.+38     	; 0x73c <UPDI::enter_updi(bool)+0x12c>
     716:	88 e5       	ldi	r24, 0x58	; 88
     718:	90 e0       	ldi	r25, 0x00	; 0
     71a:	80 93 08 08 	sts	0x0808, r24	; 0x800808 <__RODATA_PM_OFFSET__+0x7f8808>
     71e:	90 93 09 08 	sts	0x0809, r25	; 0x800809 <__RODATA_PM_OFFSET__+0x7f8809>
/Users/askn/Documents/Zinnia-tools/Products/hardware/UPDI4AVR/libraries/UPDI4AVR/examples/UPDI4AVR_FW634B/src/UPDI.cpp:666
  }
  else {
    UPDI_USART.BAUD = UPDI_BAUD_CALC;
    bit_clear(UPDI_CONTROL, UPDI_CLKU_bp);
  }
  return true;
     722:	e6 9a       	sbi	0x1c, 6	; 28
/Users/askn/Documents/Zinnia-tools/Products/hardware/UPDI4AVR/libraries/UPDI4AVR/examples/UPDI4AVR_FW634B/src/UPDI.cpp:667
}
     724:	81 e0       	ldi	r24, 0x01	; 1
     726:	df 91       	pop	r29
     728:	cf 91       	pop	r28
     72a:	1f 91       	pop	r17
     72c:	0f 91       	pop	r16
/Users/askn/Documents/Zinnia-tools/Products/hardware/UPDI4AVR/libraries/UPDI4AVR/examples/UPDI4AVR_FW634B/src/UPDI.cpp:612
    JTAG2::updi_desc.signature[2] = _p[10];
    switch (_p[0]) {
      case 'm' : {              // 'megaAVR' series
        /* megaAVR SIB = 'megaAVR P:0D:1-3' */
        /* always vesrion 0 */
        bit_set(UPDI_NVMCTRL, UPDI_LOWF_bp);
     72e:	08 95       	ret
     730:	ef 9a       	sbi	0x1d, 7	; 29
/Users/askn/Documents/Zinnia-tools/Products/hardware/UPDI4AVR/libraries/UPDI4AVR/examples/UPDI4AVR_FW634B/src/UPDI.cpp:632
        JTAG2::updi_desc.signature[1] = 'A';
        if (JTAG2::updi_desc.nvmctrl_version == '3') {
          // 'AVR_Ex' series
          bit_set(UPDI_NVMCTRL, UPDI_GEN3_bp);
        }
        else if (JTAG2::updi_desc.nvmctrl_version == '5') {
     732:	e6 cf       	rjmp	.-52     	; 0x700 <UPDI::enter_updi(bool)+0xf0>
     734:	95 33       	cpi	r25, 0x35	; 53
/Users/askn/Documents/Zinnia-tools/Products/hardware/UPDI4AVR/libraries/UPDI4AVR/examples/UPDI4AVR_FW634B/src/UPDI.cpp:634
          // 'AVR_EB' series
          bit_set(UPDI_NVMCTRL, UPDI_GEN5_bp);
     736:	91 f6       	brne	.-92     	; 0x6dc <UPDI::enter_updi(bool)+0xcc>
     738:	eb 9a       	sbi	0x1d, 3	; 29
/Users/askn/Documents/Zinnia-tools/Products/hardware/UPDI4AVR/libraries/UPDI4AVR/examples/UPDI4AVR_FW634B/src/UPDI.cpp:663
                        == UPDI_SET_UPDICLKSEL_8M) {
    UPDI_USART.BAUD = UPDI_BAUD_CALC >> 1;
    bit_set(UPDI_CONTROL, UPDI_CLKU_bp);
  }
  else {
    UPDI_USART.BAUD = UPDI_BAUD_CALC;
     73a:	cf cf       	rjmp	.-98     	; 0x6da <UPDI::enter_updi(bool)+0xca>
     73c:	80 eb       	ldi	r24, 0xB0	; 176
     73e:	90 e0       	ldi	r25, 0x00	; 0
     740:	80 93 08 08 	sts	0x0808, r24	; 0x800808 <__RODATA_PM_OFFSET__+0x7f8808>
/Users/askn/Documents/Zinnia-tools/Products/hardware/UPDI4AVR/libraries/UPDI4AVR/examples/UPDI4AVR_FW634B/src/UPDI.cpp:664
    bit_clear(UPDI_CONTROL, UPDI_CLKU_bp);
     744:	90 93 09 08 	sts	0x0809, r25	; 0x800809 <__RODATA_PM_OFFSET__+0x7f8809>
/Users/askn/Documents/Zinnia-tools/Products/hardware/UPDI4AVR/libraries/UPDI4AVR/examples/UPDI4AVR_FW634B/src/NVM.cpp:50
  /* NVMCTRL version 3,5 */
  uint8_t nvm_wait_v3 (void) {
    #ifdef ENABLE_DEBUG_UPDI_SENDER
    uint16_t _back = UPDI::_send_ptr;
    #endif
    while (UPDI::ld8(NVMCTRL_V3_REG_STATUS) & 3) {
     748:	e6 98       	cbi	0x1c, 6	; 28
     74a:	ec cf       	rjmp	.-40     	; 0x724 <UPDI::enter_updi(bool)+0x114>

0000074c <NVM::nvm_wait_v3()>:
_ZN3NVM11nvm_wait_v3Ev():
     74c:	66 e0       	ldi	r22, 0x06	; 6
     74e:	70 e1       	ldi	r23, 0x10	; 16
     750:	80 e0       	ldi	r24, 0x00	; 0
     752:	90 e0       	ldi	r25, 0x00	; 0
     754:	cc dd       	rcall	.-1128   	; 0x2ee <UPDI::ld8(unsigned long)>
     756:	83 70       	andi	r24, 0x03	; 3
/Users/askn/Library/Arduino15/packages/MultiX-Zinnia/hardware/UPDI4AVR/0.2.8/cores/megaAVR/api/delay_busywait.h:31
     758:	29 f0       	breq	.+10     	; 0x764 <NVM::nvm_wait_v3()+0x18>
delay_micros():
     75a:	86 ea       	ldi	r24, 0xA6	; 166
     75c:	8a 95       	dec	r24
     75e:	f1 f7       	brne	.-4      	; 0x75c <NVM::nvm_wait_v3()+0x10>
     760:	00 c0       	rjmp	.+0      	; 0x762 <NVM::nvm_wait_v3()+0x16>
/Users/askn/Documents/Zinnia-tools/Products/hardware/UPDI4AVR/libraries/UPDI4AVR/examples/UPDI4AVR_FW634B/src/NVM.cpp:56
      #ifdef ENABLE_DEBUG_UPDI_SENDER
      UPDI::_send_ptr = _back;
      #endif
      TIM::delay_50us();
    }
    return UPDI_LASTL;
     762:	f4 cf       	rjmp	.-24     	; 0x74c <NVM::nvm_wait_v3()>
_ZN3NVM11nvm_wait_v3Ev():
/Users/askn/Documents/Zinnia-tools/Products/hardware/UPDI4AVR/libraries/UPDI4AVR/examples/UPDI4AVR_FW634B/src/NVM.cpp:57
  }
     764:	8e b3       	in	r24, 0x1e	; 30
/Users/askn/Documents/Zinnia-tools/Products/hardware/UPDI4AVR/libraries/UPDI4AVR/examples/UPDI4AVR_FW634B/src/NVM.cpp:36
  /* NVMCTRL version 0,2,4 */
  uint8_t nvm_wait (void) {
    #ifdef ENABLE_DEBUG_UPDI_SENDER
    uint16_t _back = UPDI::_send_ptr;
    #endif
    while (UPDI::ld8(NVMCTRL_REG_STATUS) & 3) {
     766:	08 95       	ret

00000768 <NVM::nvm_wait()>:
_ZN3NVM8nvm_waitEv():
     768:	62 e0       	ldi	r22, 0x02	; 2
     76a:	70 e1       	ldi	r23, 0x10	; 16
     76c:	80 e0       	ldi	r24, 0x00	; 0
     76e:	90 e0       	ldi	r25, 0x00	; 0
     770:	be dd       	rcall	.-1156   	; 0x2ee <UPDI::ld8(unsigned long)>
     772:	83 70       	andi	r24, 0x03	; 3
     774:	29 f0       	breq	.+10     	; 0x780 <NVM::nvm_wait()+0x18>
delay_micros():
/Users/askn/Library/Arduino15/packages/MultiX-Zinnia/hardware/UPDI4AVR/0.2.8/cores/megaAVR/api/delay_busywait.h:31
     776:	86 ea       	ldi	r24, 0xA6	; 166
     778:	8a 95       	dec	r24
     77a:	f1 f7       	brne	.-4      	; 0x778 <NVM::nvm_wait()+0x10>
     77c:	00 c0       	rjmp	.+0      	; 0x77e <NVM::nvm_wait()+0x16>
     77e:	f4 cf       	rjmp	.-24     	; 0x768 <NVM::nvm_wait()>
_ZN3NVM8nvm_waitEv():
/Users/askn/Documents/Zinnia-tools/Products/hardware/UPDI4AVR/libraries/UPDI4AVR/examples/UPDI4AVR_FW634B/src/NVM.cpp:42
      #ifdef ENABLE_DEBUG_UPDI_SENDER
      UPDI::_send_ptr = _back;
      #endif
      TIM::delay_50us();
    }
    return UPDI_LASTL;
     780:	8e b3       	in	r24, 0x1e	; 30
/Users/askn/Documents/Zinnia-tools/Products/hardware/UPDI4AVR/libraries/UPDI4AVR/examples/UPDI4AVR_FW634B/src/NVM.cpp:43
  }
     782:	08 95       	ret

00000784 <UPDI::runtime(unsigned char)>:
_ZN4UPDI7runtimeEh():
/Users/askn/Documents/Zinnia-tools/Products/hardware/UPDI4AVR/libraries/UPDI4AVR/examples/UPDI4AVR_FW634B/src/UPDI.cpp:715

/************************
 * UPDI control process *
 ************************/

bool UPDI::runtime (uint8_t updi_cmd) {
     784:	af 92       	push	r10
     786:	bf 92       	push	r11
     788:	cf 92       	push	r12
     78a:	df 92       	push	r13
     78c:	ef 92       	push	r14
     78e:	ff 92       	push	r15
     790:	0f 93       	push	r16
     792:	1f 93       	push	r17
     794:	cf 93       	push	r28
     796:	df 93       	push	r29
     798:	cd b7       	in	r28, 0x3d	; 61
     79a:	de b7       	in	r29, 0x3e	; 62
     79c:	26 97       	sbiw	r28, 0x06	; 6
     79e:	cd bf       	out	0x3d, r28	; 61
     7a0:	de bf       	out	0x3e, r29	; 62
     7a2:	8e 83       	std	Y+6, r24	; 0x06
/Users/askn/Documents/Zinnia-tools/Products/hardware/UPDI4AVR/libraries/UPDI4AVR/examples/UPDI4AVR_FW634B/src/UPDI.cpp:716
  volatile bool _result = false;
     7a4:	1d 82       	std	Y+5, r1	; 0x05
/Users/askn/Documents/Zinnia-tools/Products/hardware/UPDI4AVR/libraries/UPDI4AVR/examples/UPDI4AVR_FW634B/src/UPDI.cpp:717
  if (setjmp(TIM::CONTEXT) == 0) {
     7a6:	86 e4       	ldi	r24, 0x46	; 70
     7a8:	98 e3       	ldi	r25, 0x38	; 56
     7aa:	e2 d6       	rcall	.+3524   	; 0x1570 <setjmp>
     7ac:	89 2b       	or	r24, r25
     7ae:	09 f0       	breq	.+2      	; 0x7b2 <UPDI::runtime(unsigned char)+0x2e>
     7b0:	55 c0       	rjmp	.+170    	; 0x85c <__DATA_REGION_LENGTH__+0x5c>
Timeout_Start():
     7b2:	9f b7       	in	r25, 0x3f	; 63
__iCliRetVal():
/Users/askn/Documents/Zinnia-tools/Products/hardware/UPDI4AVR/libraries/UPDI4AVR/examples/UPDI4AVR_FW634B/src/TIM.cpp:106
/*
 * Timeout control
 */

void TIM::Timeout_Start (uint16_t _ms) {
  ATOMIC_BLOCK(ATOMIC_RESTORESTATE) {
     7b4:	f8 94       	cli
Timeout_Start():
/Users/askn/Library/Arduino15/packages/MultiX-Zinnia/tools/avr-gcc/7.3.0-avr8-gnu-toolchain/avr/include/util/atomic.h:50
     7b6:	10 92 8a 0a 	sts	0x0A8A, r1	; 0x800a8a <__RODATA_PM_OFFSET__+0x7f8a8a>
/Users/askn/Documents/Zinnia-tools/Products/hardware/UPDI4AVR/libraries/UPDI4AVR/examples/UPDI4AVR_FW634B/src/TIM.cpp:107
    TCB0_CNT = 0;
     7ba:	10 92 8b 0a 	sts	0x0A8B, r1	; 0x800a8b <__RODATA_PM_OFFSET__+0x7f8a8b>
     7be:	28 ec       	ldi	r18, 0xC8	; 200
/Users/askn/Documents/Zinnia-tools/Products/hardware/UPDI4AVR/libraries/UPDI4AVR/examples/UPDI4AVR_FW634B/src/TIM.cpp:108
    TCB0_CCMP = _ms >> 2;
     7c0:	30 e0       	ldi	r19, 0x00	; 0
     7c2:	20 93 8c 0a 	sts	0x0A8C, r18	; 0x800a8c <__RODATA_PM_OFFSET__+0x7f8a8c>
     7c6:	30 93 8d 0a 	sts	0x0A8D, r19	; 0x800a8d <__RODATA_PM_OFFSET__+0x7f8a8d>
     7ca:	81 e0       	ldi	r24, 0x01	; 1
/Users/askn/Documents/Zinnia-tools/Products/hardware/UPDI4AVR/libraries/UPDI4AVR/examples/UPDI4AVR_FW634B/src/TIM.cpp:109
    TCB0_INTCTRL = TCB_CAPT_bm;
     7cc:	80 93 85 0a 	sts	0x0A85, r24	; 0x800a85 <__RODATA_PM_OFFSET__+0x7f8a85>
     7d0:	80 93 86 0a 	sts	0x0A86, r24	; 0x800a86 <__RODATA_PM_OFFSET__+0x7f8a86>
/Users/askn/Documents/Zinnia-tools/Products/hardware/UPDI4AVR/libraries/UPDI4AVR/examples/UPDI4AVR_FW634B/src/TIM.cpp:110
    TCB0_INTFLAGS = TCB_CAPT_bm;
     7d4:	8f e0       	ldi	r24, 0x0F	; 15
/Users/askn/Documents/Zinnia-tools/Products/hardware/UPDI4AVR/libraries/UPDI4AVR/examples/UPDI4AVR_FW634B/src/TIM.cpp:111
    TCB0_CTRLA = TCB_ENABLE_bm | TCB_CLKSEL_EVENT_gc;
     7d6:	80 93 80 0a 	sts	0x0A80, r24	; 0x800a80 <__RODATA_PM_OFFSET__+0x7f8a80>
__iRestore():
     7da:	9f bf       	out	0x3f, r25	; 63
_ZN4UPDI7runtimeEh():
/Users/askn/Library/Arduino15/packages/MultiX-Zinnia/tools/avr-gcc/7.3.0-avr8-gnu-toolchain/avr/include/util/atomic.h:70
    (void)__s;
}

static __inline__ void __iRestore(const  uint8_t *__s)
{
    SREG = *__s;
     7dc:	2e 81       	ldd	r18, Y+6	; 0x06
/Users/askn/Documents/Zinnia-tools/Products/hardware/UPDI4AVR/libraries/UPDI4AVR/examples/UPDI4AVR_FW634B/src/UPDI.cpp:719
    TIM::Timeout_Start(800);
    switch (updi_cmd) {
     7de:	23 30       	cpi	r18, 0x03	; 3
     7e0:	09 f4       	brne	.+2      	; 0x7e4 <UPDI::runtime(unsigned char)+0x60>
     7e2:	5e c2       	rjmp	.+1212   	; 0xca0 <__DATA_REGION_LENGTH__+0x4a0>
     7e4:	24 30       	cpi	r18, 0x04	; 4
     7e6:	09 f4       	brne	.+2      	; 0x7ea <UPDI::runtime(unsigned char)+0x66>
     7e8:	a4 c2       	rjmp	.+1352   	; 0xd32 <__DATA_REGION_LENGTH__+0x532>
write_memory():
/Users/askn/Documents/Zinnia-tools/Products/hardware/UPDI4AVR/libraries/UPDI4AVR/examples/UPDI4AVR_FW634B/src/NVM.cpp:267
/******************
 * NVM write core *
 ******************/

bool NVM::write_memory (void) {
  uint8_t mem_type = JTAG2::packet.body[JTAG2::MEM_TYPE];
     7ea:	ee e8       	ldi	r30, 0x8E	; 142
     7ec:	f8 e3       	ldi	r31, 0x38	; 56
_ZN4UPDI7runtimeEh():
/Users/askn/Documents/Zinnia-tools/Products/hardware/UPDI4AVR/libraries/UPDI4AVR/examples/UPDI4AVR_FW634B/src/UPDI.cpp:719
     7ee:	22 30       	cpi	r18, 0x02	; 2
     7f0:	09 f4       	brne	.+2      	; 0x7f4 <UPDI::runtime(unsigned char)+0x70>
     7f2:	82 c0       	rjmp	.+260    	; 0x8f8 <__DATA_REGION_LENGTH__+0xf8>
/Users/askn/Documents/Zinnia-tools/Products/hardware/UPDI4AVR/libraries/UPDI4AVR/examples/UPDI4AVR_FW634B/src/UPDI.cpp:721
      case UPDI_CMD_READ_MEMORY : {
        size_t byte_count = _CAPS16(JTAG2::packet.body[JTAG2::DATA_LENGTH])->word;
     7f4:	22 85       	ldd	r18, Z+10	; 0x0a
     7f6:	33 85       	ldd	r19, Z+11	; 0x0b
/Users/askn/Documents/Zinnia-tools/Products/hardware/UPDI4AVR/libraries/UPDI4AVR/examples/UPDI4AVR_FW634B/src/UPDI.cpp:722
        uint32_t start_addr = _CAPS32(JTAG2::packet.body[JTAG2::DATA_ADDRESS])->dword;
     7f8:	66 85       	ldd	r22, Z+14	; 0x0e
     7fa:	77 85       	ldd	r23, Z+15	; 0x0f
     7fc:	80 89       	ldd	r24, Z+16	; 0x10
     7fe:	91 89       	ldd	r25, Z+17	; 0x11
read_memory():
/Users/askn/Documents/Zinnia-tools/Products/hardware/UPDI4AVR/libraries/UPDI4AVR/examples/UPDI4AVR_FW634B/src/NVM.cpp:219
/***********************
 * Memory reading core *
 ***********************/

bool NVM::read_memory (uint32_t start_addr, size_t byte_count) {
  JTAG2::packet.body[JTAG2::MESSAGE_ID] = JTAG2::RSP_MEMORY;
     800:	42 e8       	ldi	r20, 0x82	; 130
     802:	40 87       	std	Z+8, r20	; 0x08
/Users/askn/Documents/Zinnia-tools/Products/hardware/UPDI4AVR/libraries/UPDI4AVR/examples/UPDI4AVR_FW634B/src/NVM.cpp:223
  uint8_t *data = &JTAG2::packet.body[JTAG2::RSP_DATA];

  /* Reads from 1 to 256 bytes and even bytes 258 to 512 are allowed */
  if (byte_count == 0 || byte_count > 512 || (byte_count > 256 && byte_count & 1)) {
     804:	a9 01       	movw	r20, r18
     806:	41 50       	subi	r20, 0x01	; 1
     808:	51 09       	sbc	r21, r1
     80a:	41 15       	cp	r20, r1
     80c:	e2 e0       	ldi	r30, 0x02	; 2
     80e:	5e 07       	cpc	r21, r30
     810:	30 f4       	brcc	.+12     	; 0x81e <__DATA_REGION_LENGTH__+0x1e>
     812:	21 30       	cpi	r18, 0x01	; 1
     814:	f1 e0       	ldi	r31, 0x01	; 1
     816:	3f 07       	cpc	r19, r31
     818:	28 f0       	brcs	.+10     	; 0x824 <__DATA_REGION_LENGTH__+0x24>
     81a:	20 ff       	sbrs	r18, 0
     81c:	03 c0       	rjmp	.+6      	; 0x824 <__DATA_REGION_LENGTH__+0x24>
write_memory():
/Users/askn/Documents/Zinnia-tools/Products/hardware/UPDI4AVR/libraries/UPDI4AVR/examples/UPDI4AVR_FW634B/src/NVM.cpp:317
    }
  }

  /* Other writes are allowed from 1 to 256 bytes */
  if (byte_count == 0 || byte_count > 256) {
    set_response(JTAG2::RSP_ILLEGAL_MEMORY_RANGE);
     81e:	83 ea       	ldi	r24, 0xA3	; 163
     820:	90 e0       	ldi	r25, 0x00	; 0
     822:	ec c0       	rjmp	.+472    	; 0x9fc <__DATA_REGION_LENGTH__+0x1fc>
read_memory():
/Users/askn/Documents/Zinnia-tools/Products/hardware/UPDI4AVR/libraries/UPDI4AVR/examples/UPDI4AVR_FW634B/src/NVM.cpp:227
  /* Reads from 1 to 256 bytes and even bytes 258 to 512 are allowed */
  if (byte_count == 0 || byte_count > 512 || (byte_count > 256 && byte_count & 1)) {
    set_response(JTAG2::RSP_ILLEGAL_MEMORY_RANGE);
    return true;
  }
  JTAG2::packet.size_word[0] = byte_count + 1;
     824:	ae e8       	ldi	r26, 0x8E	; 142
     826:	b8 e3       	ldi	r27, 0x38	; 56
     828:	f9 01       	movw	r30, r18
     82a:	31 96       	adiw	r30, 0x01	; 1
     82c:	13 96       	adiw	r26, 0x03	; 3
     82e:	ed 93       	st	X+, r30
     830:	fc 93       	st	X, r31
     832:	14 97       	sbiw	r26, 0x04	; 4
/Users/askn/Documents/Zinnia-tools/Products/hardware/UPDI4AVR/libraries/UPDI4AVR/examples/UPDI4AVR_FW634B/src/NVM.cpp:230

  /* Reading only 1 byte may be special */
  if (byte_count == 1) {
     834:	21 30       	cpi	r18, 0x01	; 1
     836:	31 05       	cpc	r19, r1
/Users/askn/Documents/Zinnia-tools/Products/hardware/UPDI4AVR/libraries/UPDI4AVR/examples/UPDI4AVR_FW634B/src/NVM.cpp:233
    #ifdef ENABLE_ADDFEATS_LOCK_SIG
    if (bit_is_clear(UPDI_CONTROL, UPDI::UPDI_PROG_bp)
      && JTAG2::packet.body[JTAG2::MEM_TYPE] == JTAG2::MTYPE_SIGN_JTAG) {
     838:	29 f5       	brne	.+74     	; 0x884 <__DATA_REGION_LENGTH__+0x84>
     83a:	e1 99       	sbic	0x1c, 1	; 28
     83c:	23 c0       	rjmp	.+70     	; 0x884 <__DATA_REGION_LENGTH__+0x84>
     83e:	19 96       	adiw	r26, 0x09	; 9
     840:	ec 91       	ld	r30, X
     842:	19 97       	sbiw	r26, 0x09	; 9
/Users/askn/Documents/Zinnia-tools/Products/hardware/UPDI4AVR/libraries/UPDI4AVR/examples/UPDI4AVR_FW634B/src/NVM.cpp:235
      /* Signature reading branches to special processing */
      JTAG2::packet.body[JTAG2::RSP_DATA] = JTAG2::updi_desc.signature[(uint8_t)start_addr & 3];
     844:	e4 3b       	cpi	r30, 0xB4	; 180
     846:	f1 f4       	brne	.+60     	; 0x884 <__DATA_REGION_LENGTH__+0x84>
     848:	63 70       	andi	r22, 0x03	; 3
     84a:	e6 2f       	mov	r30, r22
     84c:	f0 e0       	ldi	r31, 0x00	; 0
     84e:	ee 59       	subi	r30, 0x9E	; 158
     850:	f7 4c       	sbci	r31, 0xC7	; 199
/Users/askn/Documents/Zinnia-tools/Products/hardware/UPDI4AVR/libraries/UPDI4AVR/examples/UPDI4AVR_FW634B/src/NVM.cpp:236
      return true;
     852:	87 81       	ldd	r24, Z+7	; 0x07
/Users/askn/Documents/Zinnia-tools/Products/hardware/UPDI4AVR/libraries/UPDI4AVR/examples/UPDI4AVR_FW634B/src/UPDI.cpp:737
          _result = chip_erase();
        }
        break;
      }
      case UPDI_CMD_GO : {
        _result = Target_Reset(true) && Target_Reset(false);
     854:	19 96       	adiw	r26, 0x09	; 9
/Users/askn/Documents/Zinnia-tools/Products/hardware/UPDI4AVR/libraries/UPDI4AVR/examples/UPDI4AVR_FW634B/src/UPDI.cpp:742
        break;
      }
    }
  }
  TIM::Timeout_Stop();
     856:	8c 93       	st	X, r24
_ZN4UPDI7runtimeEh():
     858:	81 e0       	ldi	r24, 0x01	; 1
/Users/askn/Documents/Zinnia-tools/Products/hardware/UPDI4AVR/libraries/UPDI4AVR/examples/UPDI4AVR_FW634B/src/UPDI.cpp:743
  UPDI_USART.CTRLB = UPDI_USART_ON;
     85a:	8d 83       	std	Y+5, r24	; 0x05
     85c:	7f dd       	rcall	.-1282   	; 0x35c <TIM::Timeout_Stop()>
     85e:	88 ec       	ldi	r24, 0xC8	; 200
/Users/askn/Documents/Zinnia-tools/Products/hardware/UPDI4AVR/libraries/UPDI4AVR/examples/UPDI4AVR_FW634B/src/UPDI.cpp:744
  wdt_reset();
     860:	80 93 06 08 	sts	0x0806, r24	; 0x800806 <__RODATA_PM_OFFSET__+0x7f8806>
/Users/askn/Documents/Zinnia-tools/Products/hardware/UPDI4AVR/libraries/UPDI4AVR/examples/UPDI4AVR_FW634B/src/UPDI.cpp:746
  return _result;
}
     864:	a8 95       	wdr
     866:	8d 81       	ldd	r24, Y+5	; 0x05
     868:	26 96       	adiw	r28, 0x06	; 6
     86a:	cd bf       	out	0x3d, r28	; 61
     86c:	de bf       	out	0x3e, r29	; 62
     86e:	df 91       	pop	r29
     870:	cf 91       	pop	r28
     872:	1f 91       	pop	r17
     874:	0f 91       	pop	r16
     876:	ff 90       	pop	r15
     878:	ef 90       	pop	r14
     87a:	df 90       	pop	r13
/Users/askn/Documents/Zinnia-tools/Products/hardware/UPDI4AVR/libraries/UPDI4AVR/examples/UPDI4AVR_FW634B/src/NVM.cpp:250
      return true;
    }
    #endif
  }

  if (bit_is_clear(UPDI_CONTROL, UPDI::UPDI_PROG_bp)) {
     87c:	cf 90       	pop	r12
     87e:	bf 90       	pop	r11
     880:	af 90       	pop	r10
     882:	08 95       	ret
read_memory():
/Users/askn/Documents/Zinnia-tools/Products/hardware/UPDI4AVR/libraries/UPDI4AVR/examples/UPDI4AVR_FW634B/src/NVM.cpp:252
    /* A normal read when the device is locked returns a dummy. */
    do { *data++ = 0xFF; } while (--byte_count);
     884:	e1 99       	sbic	0x1c, 1	; 28
     886:	08 c0       	rjmp	.+16     	; 0x898 <__DATA_REGION_LENGTH__+0x98>
     888:	e7 e9       	ldi	r30, 0x97	; 151
     88a:	f8 e3       	ldi	r31, 0x38	; 56
     88c:	8f ef       	ldi	r24, 0xFF	; 255
     88e:	81 93       	st	Z+, r24
/Users/askn/Documents/Zinnia-tools/Products/hardware/UPDI4AVR/libraries/UPDI4AVR/examples/UPDI4AVR_FW634B/src/NVM.cpp:256
    return true;
  }

  if ((byte_count - 1) >> 8)
     890:	21 50       	subi	r18, 0x01	; 1
     892:	31 09       	sbc	r19, r1
     894:	e1 f7       	brne	.-8      	; 0x88e <__DATA_REGION_LENGTH__+0x8e>
     896:	e0 cf       	rjmp	.-64     	; 0x858 <__DATA_REGION_LENGTH__+0x58>
/Users/askn/Documents/Zinnia-tools/Products/hardware/UPDI4AVR/libraries/UPDI4AVR/examples/UPDI4AVR_FW634B/src/UPDI.cpp:273
  do { *data++ = RECV(); } while (--len);
  return UPDI_LASTH == 0;
}

bool UPDI::lds16 (uint32_t addr, uint8_t *data, size_t len) {
  uint8_t repeat = (uint16_t)len >> 1;
     898:	45 2f       	mov	r20, r21
     89a:	55 27       	eor	r21, r21
     89c:	45 2b       	or	r20, r21
/Users/askn/Documents/Zinnia-tools/Products/hardware/UPDI4AVR/libraries/UPDI4AVR/examples/UPDI4AVR_FW634B/src/UPDI.cpp:274
  if (!send_repeat_header(addr, UPDI_LD|UPDI_DATA2, repeat)) return false;
     89e:	e1 f0       	breq	.+56     	; 0x8d8 <__DATA_REGION_LENGTH__+0xd8>
lds16():
     8a0:	36 95       	lsr	r19
     8a2:	27 95       	ror	r18
     8a4:	f2 2e       	mov	r15, r18
     8a6:	41 e2       	ldi	r20, 0x21	; 33
     8a8:	d1 dc       	rcall	.-1630   	; 0x24c <UPDI::send_repeat_header(unsigned long, unsigned char, unsigned char)>
     8aa:	0e e8       	ldi	r16, 0x8E	; 142
/Users/askn/Documents/Zinnia-tools/Products/hardware/UPDI4AVR/libraries/UPDI4AVR/examples/UPDI4AVR_FW634B/src/UPDI.cpp:529
  if (bit_is_clear(UPDI_CONTROL, UPDI_INFO_bp)) {
    HV_Pulse();
  }

  /* Transition to CHIPERASE mode by system reset */
  if (!set_erase_key()) return false;
     8ac:	18 e3       	ldi	r17, 0x38	; 56
     8ae:	81 11       	cpse	r24, r1
/Users/askn/Documents/Zinnia-tools/Products/hardware/UPDI4AVR/libraries/UPDI4AVR/examples/UPDI4AVR_FW634B/src/UPDI.cpp:276

bool UPDI::lds16 (uint32_t addr, uint8_t *data, size_t len) {
  uint8_t repeat = (uint16_t)len >> 1;
  if (!send_repeat_header(addr, UPDI_LD|UPDI_DATA2, repeat)) return false;
  do {
    *data++ = RECV();
     8b0:	02 c0       	rjmp	.+4      	; 0x8b6 <__DATA_REGION_LENGTH__+0xb6>
_ZN4UPDI7runtimeEh():
     8b2:	80 e0       	ldi	r24, 0x00	; 0
     8b4:	d2 cf       	rjmp	.-92     	; 0x85a <__DATA_REGION_LENGTH__+0x5a>
lds16():
     8b6:	29 dc       	rcall	.-1966   	; 0x10a <UPDI::RECV()>
/Users/askn/Documents/Zinnia-tools/Products/hardware/UPDI4AVR/libraries/UPDI4AVR/examples/UPDI4AVR_FW634B/src/UPDI.cpp:277
    *data++ = RECV();
     8b8:	f8 01       	movw	r30, r16
     8ba:	81 87       	std	Z+9, r24	; 0x09
     8bc:	26 dc       	rcall	.-1972   	; 0x10a <UPDI::RECV()>
     8be:	f8 01       	movw	r30, r16
/Users/askn/Documents/Zinnia-tools/Products/hardware/UPDI4AVR/libraries/UPDI4AVR/examples/UPDI4AVR_FW634B/src/UPDI.cpp:278
  } while (--repeat);
     8c0:	82 87       	std	Z+10, r24	; 0x0a
     8c2:	fa 94       	dec	r15
     8c4:	0e 5f       	subi	r16, 0xFE	; 254
     8c6:	1f 4f       	sbci	r17, 0xFF	; 255
/Users/askn/Documents/Zinnia-tools/Products/hardware/UPDI4AVR/libraries/UPDI4AVR/examples/UPDI4AVR_FW634B/src/UPDI.cpp:269
}

bool UPDI::lds8 (uint32_t addr, uint8_t *data, uint8_t len) {
  if (!send_repeat_header(addr, UPDI_LD|UPDI_DATA1, len)) return false;
  do { *data++ = RECV(); } while (--len);
  return UPDI_LASTH == 0;
     8c8:	f1 10       	cpse	r15, r1
     8ca:	f5 cf       	rjmp	.-22     	; 0x8b6 <__DATA_REGION_LENGTH__+0xb6>
lds8():
     8cc:	9f b3       	in	r25, 0x1f	; 31
     8ce:	81 e0       	ldi	r24, 0x01	; 1
     8d0:	99 23       	and	r25, r25
/Users/askn/Documents/Zinnia-tools/Products/hardware/UPDI4AVR/libraries/UPDI4AVR/examples/UPDI4AVR_FW634B/src/NVM.cpp:259
    return UPDI::lds16(start_addr, data, byte_count);
  else
    return UPDI::lds8(start_addr, data, byte_count);
     8d2:	09 f4       	brne	.+2      	; 0x8d6 <__DATA_REGION_LENGTH__+0xd6>
/Users/askn/Documents/Zinnia-tools/Products/hardware/UPDI4AVR/libraries/UPDI4AVR/examples/UPDI4AVR_FW634B/src/UPDI.cpp:267
  while (!send_bytes(set_ptr, sizeof(set_ptr) - 1)) BREAK();
  return RECV();
}

bool UPDI::lds8 (uint32_t addr, uint8_t *data, uint8_t len) {
  if (!send_repeat_header(addr, UPDI_LD|UPDI_DATA1, len)) return false;
     8d4:	c2 cf       	rjmp	.-124    	; 0x85a <__DATA_REGION_LENGTH__+0x5a>
     8d6:	ed cf       	rjmp	.-38     	; 0x8b2 <__DATA_REGION_LENGTH__+0xb2>
read_memory():
     8d8:	12 2f       	mov	r17, r18
lds8():
     8da:	40 e2       	ldi	r20, 0x20	; 32
     8dc:	b7 dc       	rcall	.-1682   	; 0x24c <UPDI::send_repeat_header(unsigned long, unsigned char, unsigned char)>
     8de:	88 23       	and	r24, r24
     8e0:	41 f3       	breq	.-48     	; 0x8b2 <__DATA_REGION_LENGTH__+0xb2>
/Users/askn/Documents/Zinnia-tools/Products/hardware/UPDI4AVR/libraries/UPDI4AVR/examples/UPDI4AVR_FW634B/src/UPDI.cpp:268
  do { *data++ = RECV(); } while (--len);
     8e2:	47 e9       	ldi	r20, 0x97	; 151
     8e4:	e4 2e       	mov	r14, r20
     8e6:	48 e3       	ldi	r20, 0x38	; 56
     8e8:	f4 2e       	mov	r15, r20
     8ea:	0f dc       	rcall	.-2018   	; 0x10a <UPDI::RECV()>
     8ec:	f7 01       	movw	r30, r14
/Users/askn/Documents/Zinnia-tools/Products/hardware/UPDI4AVR/libraries/UPDI4AVR/examples/UPDI4AVR_FW634B/src/NVM.cpp:267
/******************
 * NVM write core *
 ******************/

bool NVM::write_memory (void) {
  uint8_t mem_type = JTAG2::packet.body[JTAG2::MEM_TYPE];
     8ee:	81 93       	st	Z+, r24
/Users/askn/Documents/Zinnia-tools/Products/hardware/UPDI4AVR/libraries/UPDI4AVR/examples/UPDI4AVR_FW634B/src/NVM.cpp:269
  uint8_t *data = &JTAG2::packet.body[JTAG2::DATA_START];
  size_t byte_count = _CAPS16(JTAG2::packet.body[JTAG2::DATA_LENGTH])->word;
     8f0:	7f 01       	movw	r14, r30
/Users/askn/Documents/Zinnia-tools/Products/hardware/UPDI4AVR/libraries/UPDI4AVR/examples/UPDI4AVR_FW634B/src/NVM.cpp:270
  uint32_t start_addr = _CAPS32(JTAG2::packet.body[JTAG2::DATA_ADDRESS])->dword;
     8f2:	11 50       	subi	r17, 0x01	; 1
     8f4:	d1 f7       	brne	.-12     	; 0x8ea <__DATA_REGION_LENGTH__+0xea>
     8f6:	ea cf       	rjmp	.-44     	; 0x8cc <__DATA_REGION_LENGTH__+0xcc>
write_memory():
/Users/askn/Documents/Zinnia-tools/Products/hardware/UPDI4AVR/libraries/UPDI4AVR/examples/UPDI4AVR_FW634B/src/NVM.cpp:273

  /* Address specification outside the processing range is considered an IO area operation */
  if (start_addr >> 24) {
     8f8:	81 85       	ldd	r24, Z+9	; 0x09
     8fa:	02 85       	ldd	r16, Z+10	; 0x0a
     8fc:	13 85       	ldd	r17, Z+11	; 0x0b
     8fe:	c6 84       	ldd	r12, Z+14	; 0x0e
     900:	d7 84       	ldd	r13, Z+15	; 0x0f
     902:	e0 88       	ldd	r14, Z+16	; 0x10
/Users/askn/Documents/Zinnia-tools/Products/hardware/UPDI4AVR/libraries/UPDI4AVR/examples/UPDI4AVR_FW634B/src/NVM.cpp:274
    start_addr &= 0xFFFF;
     904:	f1 88       	ldd	r15, Z+17	; 0x11
/Users/askn/Documents/Zinnia-tools/Products/hardware/UPDI4AVR/libraries/UPDI4AVR/examples/UPDI4AVR_FW634B/src/NVM.cpp:275
    mem_type = JTAG2::MTYPE_SRAM;
     906:	4f 2d       	mov	r20, r15
/Users/askn/Documents/Zinnia-tools/Products/hardware/UPDI4AVR/libraries/UPDI4AVR/examples/UPDI4AVR_FW634B/src/NVM.cpp:281
  }

  /* Can only be written to USERROW on locked devices */
  /* This write is only allowed in multiples of 32 bytes */
  if (bit_is_set(UPDI_CONTROL, UPDI::UPDI_INFO_bp)
   && mem_type == JTAG2::MTYPE_XMEGA_USERSIG) // 0xC5
     908:	55 27       	eor	r21, r21
     90a:	66 27       	eor	r22, r22
     90c:	77 27       	eor	r23, r23
     90e:	45 2b       	or	r20, r21
/Users/askn/Documents/Zinnia-tools/Products/hardware/UPDI4AVR/libraries/UPDI4AVR/examples/UPDI4AVR_FW634B/src/UPDI.cpp:468
 * USERROW region writing *
 *****************************************/

bool UPDI::write_userrow (const uint32_t start_addr, uint8_t *data, const size_t byte_count) {
  /* Only data lengths that are multiples of 32 bytes are allowed. */
  if (byte_count == 0 || byte_count & 0x1F) {
     910:	46 2b       	or	r20, r22
     912:	47 2b       	or	r20, r23
     914:	19 f0       	breq	.+6      	; 0x91c <__DATA_REGION_LENGTH__+0x11c>
     916:	ee 24       	eor	r14, r14
     918:	ff 24       	eor	r15, r15
_ZN4UPDI7runtimeEh():
     91a:	80 e2       	ldi	r24, 0x20	; 32
write_memory():
     91c:	e0 9b       	sbis	0x1c, 0	; 28
/Users/askn/Documents/Zinnia-tools/Products/hardware/UPDI4AVR/libraries/UPDI4AVR/examples/UPDI4AVR_FW634B/src/UPDI.cpp:469
    JTAG2::packet.body[JTAG2::MESSAGE_ID] = JTAG2::RSP_ILLEGAL_MEMORY_RANGE;
     91e:	50 c0       	rjmp	.+160    	; 0x9c0 <__DATA_REGION_LENGTH__+0x1c0>
     920:	85 3c       	cpi	r24, 0xC5	; 197
     922:	09 f0       	breq	.+2      	; 0x926 <__DATA_REGION_LENGTH__+0x126>
/Users/askn/Documents/Zinnia-tools/Products/hardware/UPDI4AVR/libraries/UPDI4AVR/examples/UPDI4AVR_FW634B/src/UPDI.cpp:402
  return loop_until_key_stat_is_set(UPDI_KEY_CHIPERASE);
}

/* __attribute__((optimize("O0"))) */
bool UPDI::set_urowwrite_key (void) {
  if (!send_bytes(urowwrite_key, sizeof(urowwrite_key))) return false;
     924:	4d c0       	rjmp	.+154    	; 0x9c0 <__DATA_REGION_LENGTH__+0x1c0>
write_userrow():
     926:	01 15       	cp	r16, r1
     928:	11 05       	cpc	r17, r1
     92a:	29 f0       	breq	.+10     	; 0x936 <__DATA_REGION_LENGTH__+0x136>
     92c:	c8 01       	movw	r24, r16
     92e:	8f 71       	andi	r24, 0x1F	; 31
     930:	99 27       	eor	r25, r25
     932:	89 2b       	or	r24, r25
/Users/askn/Documents/Zinnia-tools/Products/hardware/UPDI4AVR/libraries/UPDI4AVR/examples/UPDI4AVR_FW634B/src/UPDI.cpp:403
  return loop_until_key_stat_is_set(UPDI_KEY_UROWWRITE);
     934:	21 f0       	breq	.+8      	; 0x93e <__DATA_REGION_LENGTH__+0x13e>
     936:	83 ea       	ldi	r24, 0xA3	; 163
     938:	80 93 96 38 	sts	0x3896, r24	; 0x803896 <JTAG2::packet+0x8>
/Users/askn/Documents/Zinnia-tools/Products/hardware/UPDI4AVR/libraries/UPDI4AVR/examples/UPDI4AVR_FW634B/src/UPDI.cpp:474
    JTAG2::packet.body[JTAG2::MESSAGE_ID] = JTAG2::RSP_ILLEGAL_MEMORY_RANGE;
    return true;
  }

  /* Send the authentication key */
  if (!set_urowwrite_key()) return false;
     93c:	8d cf       	rjmp	.-230    	; 0x858 <__DATA_REGION_LENGTH__+0x58>
set_urowwrite_key():
     93e:	6a e0       	ldi	r22, 0x0A	; 10
/Users/askn/Documents/Zinnia-tools/Products/hardware/UPDI4AVR/libraries/UPDI4AVR/examples/UPDI4AVR_FW634B/src/UPDI.cpp:477

  /* Transition to USERROW mode by system reset */
  if (!updi_reset(true) || !updi_reset(false)) return false;
     940:	82 e2       	ldi	r24, 0x22	; 34
     942:	98 e3       	ldi	r25, 0x38	; 56
     944:	08 dc       	rcall	.-2032   	; 0x156 <UPDI::send_bytes(unsigned char*, unsigned char)>
     946:	88 23       	and	r24, r24
     948:	09 f4       	brne	.+2      	; 0x94c <__DATA_REGION_LENGTH__+0x14c>
     94a:	b3 cf       	rjmp	.-154    	; 0x8b2 <__DATA_REGION_LENGTH__+0xb2>
     94c:	80 e2       	ldi	r24, 0x20	; 32
     94e:	d0 dd       	rcall	.-1120   	; 0x4f0 <UPDI::loop_until_key_stat_is_set(unsigned char, unsigned int) [clone .constprop.20]>
write_userrow():
     950:	88 23       	and	r24, r24
     952:	09 f4       	brne	.+2      	; 0x956 <__DATA_REGION_LENGTH__+0x156>
     954:	ae cf       	rjmp	.-164    	; 0x8b2 <__DATA_REGION_LENGTH__+0xb2>
     956:	81 e0       	ldi	r24, 0x01	; 1
/Users/askn/Documents/Zinnia-tools/Products/hardware/UPDI4AVR/libraries/UPDI4AVR/examples/UPDI4AVR_FW634B/src/UPDI.cpp:480

  /* Wait for system reset to finish */
  loop_until_sys_stat_is_clear(UPDI_SYS_RSTSYS);
     958:	d7 dc       	rcall	.-1618   	; 0x308 <UPDI::updi_reset(bool)>
     95a:	88 23       	and	r24, r24
     95c:	09 f4       	brne	.+2      	; 0x960 <__DATA_REGION_LENGTH__+0x160>
     95e:	a9 cf       	rjmp	.-174    	; 0x8b2 <__DATA_REGION_LENGTH__+0xb2>
     960:	80 e0       	ldi	r24, 0x00	; 0
/Users/askn/Documents/Zinnia-tools/Products/hardware/UPDI4AVR/libraries/UPDI4AVR/examples/UPDI4AVR_FW634B/src/UPDI.cpp:483

  /* Make sure you are in USERROW mode */
  loop_until_sys_stat_is_set(UPDI_SYS_UROWPROG);
     962:	d2 dc       	rcall	.-1628   	; 0x308 <UPDI::updi_reset(bool)>
     964:	88 23       	and	r24, r24
/Users/askn/Documents/Zinnia-tools/Products/hardware/UPDI4AVR/libraries/UPDI4AVR/examples/UPDI4AVR_FW634B/src/UPDI.cpp:486

  /* Write data to buffer memory */
  sts8rsd(start_addr, data, byte_count);
     966:	09 f4       	brne	.+2      	; 0x96a <__DATA_REGION_LENGTH__+0x16a>
     968:	a4 cf       	rjmp	.-184    	; 0x8b2 <__DATA_REGION_LENGTH__+0xb2>
     96a:	70 e0       	ldi	r23, 0x00	; 0
     96c:	60 e0       	ldi	r22, 0x00	; 0
     96e:	80 e2       	ldi	r24, 0x20	; 32
/Users/askn/Documents/Zinnia-tools/Products/hardware/UPDI4AVR/libraries/UPDI4AVR/examples/UPDI4AVR_FW634B/src/UPDI.cpp:490
  /* Ignore any errors here */

  /* After writing the memory, write the end flag */
  set_cs_stat(UPDI_CS_ASI_SYS_CTRLA, UPDI_SET_UROWDONE | UPDI_SET_CLKREQ);
     970:	f9 dd       	rcall	.-1038   	; 0x564 <UPDI::loop_until_sys_stat_is_clear(unsigned char, unsigned int)>
     972:	84 e0       	ldi	r24, 0x04	; 4
     974:	df dd       	rcall	.-1090   	; 0x534 <UPDI::loop_until_sys_stat_is_set(unsigned char, unsigned int) [clone .constprop.23]>
     976:	40 2f       	mov	r20, r16
/Users/askn/Documents/Zinnia-tools/Products/hardware/UPDI4AVR/libraries/UPDI4AVR/examples/UPDI4AVR_FW634B/src/UPDI.cpp:495

  /* Wait for data to be transferred to USERROW */
  /* AVR_Dx requires at least 100 * 50us wait loops */
  /* AVR_Ex may not end forever, so give up midway */
  loop_until_sys_stat_is_clear(UPDI_SYS_UROWPROG, 200);
     978:	c7 01       	movw	r24, r14
     97a:	b6 01       	movw	r22, r12
     97c:	05 dc       	rcall	.-2038   	; 0x188 <UPDI::sts8rsd(unsigned long, unsigned char*, unsigned char) [clone .constprop.17]>
     97e:	63 e0       	ldi	r22, 0x03	; 3
     980:	8a e0       	ldi	r24, 0x0A	; 10
/Users/askn/Documents/Zinnia-tools/Products/hardware/UPDI4AVR/libraries/UPDI4AVR/examples/UPDI4AVR_FW634B/src/UPDI.cpp:499
  /* Ignore any errors here */

  /* Step completed */
  set_cs_stat(UPDI_CS_ASI_KEY_STATUS, UPDI_KEY_UROWWRITE);
     982:	fa db       	rcall	.-2060   	; 0x178 <UPDI::set_cs_stat(unsigned char, unsigned char)>
     984:	68 ec       	ldi	r22, 0xC8	; 200
     986:	70 e0       	ldi	r23, 0x00	; 0
     988:	84 e0       	ldi	r24, 0x04	; 4
/Users/askn/Documents/Zinnia-tools/Products/hardware/UPDI4AVR/libraries/UPDI4AVR/examples/UPDI4AVR_FW634B/src/UPDI.cpp:502

  /* If previously in program mode, send unlock key */
  if (bit_is_set(UPDI_CONTROL, UPDI_PROG_bp)) {
     98a:	ec dd       	rcall	.-1064   	; 0x564 <UPDI::loop_until_sys_stat_is_clear(unsigned char, unsigned int)>
     98c:	60 e2       	ldi	r22, 0x20	; 32
/Users/askn/Documents/Zinnia-tools/Products/hardware/UPDI4AVR/libraries/UPDI4AVR/examples/UPDI4AVR_FW634B/src/UPDI.cpp:507
    set_nvmprog_key();
  }

  /* Exit USERROW mode */
  if (!updi_reset(true) || !updi_reset(false)) return false;
     98e:	87 e0       	ldi	r24, 0x07	; 7
     990:	f3 db       	rcall	.-2074   	; 0x178 <UPDI::set_cs_stat(unsigned char, unsigned char)>
     992:	e1 99       	sbic	0x1c, 1	; 28
     994:	13 c0       	rjmp	.+38     	; 0x9bc <__DATA_REGION_LENGTH__+0x1bc>
     996:	81 e0       	ldi	r24, 0x01	; 1
     998:	b7 dc       	rcall	.-1682   	; 0x308 <UPDI::updi_reset(bool)>
     99a:	88 23       	and	r24, r24
     99c:	09 f4       	brne	.+2      	; 0x9a0 <__DATA_REGION_LENGTH__+0x1a0>
     99e:	89 cf       	rjmp	.-238    	; 0x8b2 <__DATA_REGION_LENGTH__+0xb2>
     9a0:	80 e0       	ldi	r24, 0x00	; 0
     9a2:	b2 dc       	rcall	.-1692   	; 0x308 <UPDI::updi_reset(bool)>
     9a4:	88 23       	and	r24, r24
/Users/askn/Documents/Zinnia-tools/Products/hardware/UPDI4AVR/libraries/UPDI4AVR/examples/UPDI4AVR_FW634B/src/UPDI.cpp:508
  loop_until_sys_stat_is_clear(UPDI_SYS_RSTSYS);
     9a6:	09 f4       	brne	.+2      	; 0x9aa <__DATA_REGION_LENGTH__+0x1aa>
     9a8:	84 cf       	rjmp	.-248    	; 0x8b2 <__DATA_REGION_LENGTH__+0xb2>
     9aa:	70 e0       	ldi	r23, 0x00	; 0
     9ac:	60 e0       	ldi	r22, 0x00	; 0
/Users/askn/Documents/Zinnia-tools/Products/hardware/UPDI4AVR/libraries/UPDI4AVR/examples/UPDI4AVR_FW634B/src/UPDI.cpp:511

  /* Make sure you are in program mode if necessary */
  if (bit_is_set(UPDI_CONTROL, UPDI_PROG_bp)) {
     9ae:	80 e2       	ldi	r24, 0x20	; 32
/Users/askn/Documents/Zinnia-tools/Products/hardware/UPDI4AVR/libraries/UPDI4AVR/examples/UPDI4AVR_FW634B/src/UPDI.cpp:512
    loop_until_sys_stat_is_set(UPDI_SYS_NVMPROG);
     9b0:	d9 dd       	rcall	.-1102   	; 0x564 <UPDI::loop_until_sys_stat_is_clear(unsigned char, unsigned int)>
     9b2:	e1 9b       	sbis	0x1c, 1	; 28
     9b4:	51 cf       	rjmp	.-350    	; 0x858 <__DATA_REGION_LENGTH__+0x58>
/Users/askn/Documents/Zinnia-tools/Products/hardware/UPDI4AVR/libraries/UPDI4AVR/examples/UPDI4AVR_FW634B/src/UPDI.cpp:503
  /* Step completed */
  set_cs_stat(UPDI_CS_ASI_KEY_STATUS, UPDI_KEY_UROWWRITE);

  /* If previously in program mode, send unlock key */
  if (bit_is_set(UPDI_CONTROL, UPDI_PROG_bp)) {
    set_nvmprog_key();
     9b6:	88 e0       	ldi	r24, 0x08	; 8
     9b8:	bd dd       	rcall	.-1158   	; 0x534 <UPDI::loop_until_sys_stat_is_set(unsigned char, unsigned int) [clone .constprop.23]>
/Users/askn/Documents/Zinnia-tools/Products/hardware/UPDI4AVR/libraries/UPDI4AVR/examples/UPDI4AVR_FW634B/src/NVM.cpp:285
    return UPDI::write_userrow(start_addr, data, byte_count);

  /* From this point on, only program mode is allowed. */
  if (bit_is_clear(UPDI_CONTROL, UPDI::UPDI_PROG_bp)) return false;
     9ba:	4e cf       	rjmp	.-356    	; 0x858 <__DATA_REGION_LENGTH__+0x58>
     9bc:	b1 dd       	rcall	.-1182   	; 0x520 <UPDI::set_nvmprog_key()>
/Users/askn/Documents/Zinnia-tools/Products/hardware/UPDI4AVR/libraries/UPDI4AVR/examples/UPDI4AVR_FW634B/src/NVM.cpp:288

  /* About flash regions */
  switch (mem_type) {
     9be:	eb cf       	rjmp	.-42     	; 0x996 <__DATA_REGION_LENGTH__+0x196>
write_memory():
     9c0:	e1 9b       	sbis	0x1c, 1	; 28
     9c2:	77 cf       	rjmp	.-274    	; 0x8b2 <__DATA_REGION_LENGTH__+0xb2>
     9c4:	80 3b       	cpi	r24, 0xB0	; 176
     9c6:	39 f0       	breq	.+14     	; 0x9d6 <__DATA_REGION_LENGTH__+0x1d6>
     9c8:	08 f4       	brcc	.+2      	; 0x9cc <__DATA_REGION_LENGTH__+0x1cc>
     9ca:	d9 c0       	rjmp	.+434    	; 0xb7e <__DATA_REGION_LENGTH__+0x37e>
     9cc:	90 e4       	ldi	r25, 0x40	; 64
/Users/askn/Documents/Zinnia-tools/Products/hardware/UPDI4AVR/libraries/UPDI4AVR/examples/UPDI4AVR_FW634B/src/NVM.cpp:294
    case JTAG2::MTYPE_FLASH_PAGE :            // 0xB0
    case JTAG2::MTYPE_XMEGA_APP_FLASH :       // 0xC0
    case JTAG2::MTYPE_XMEGA_BOOT_FLASH : {    // 0xC1

      /* Instructions with mismatched page sizes are rejected */
      if (JTAG2::updi_desc.flash_page_size != byte_count && 256 != byte_count && 64 != byte_count && 2 != byte_count) {
     9ce:	98 0f       	add	r25, r24
     9d0:	92 30       	cpi	r25, 0x02	; 2
     9d2:	08 f0       	brcs	.+2      	; 0x9d6 <__DATA_REGION_LENGTH__+0x1d6>
     9d4:	d4 c0       	rjmp	.+424    	; 0xb7e <__DATA_REGION_LENGTH__+0x37e>
     9d6:	80 91 66 38 	lds	r24, 0x3866	; 0x803866 <JTAG2::updi_desc+0x4>
     9da:	90 91 67 38 	lds	r25, 0x3867	; 0x803867 <JTAG2::updi_desc+0x5>
     9de:	08 17       	cp	r16, r24
     9e0:	19 07       	cpc	r17, r25
     9e2:	71 f0       	breq	.+28     	; 0xa00 <__DATA_REGION_LENGTH__+0x200>
     9e4:	01 15       	cp	r16, r1
     9e6:	f1 e0       	ldi	r31, 0x01	; 1
/Users/askn/Documents/Zinnia-tools/Products/hardware/UPDI4AVR/libraries/UPDI4AVR/examples/UPDI4AVR_FW634B/src/NVM.cpp:296
        /* Kill the process with a strong error */
        set_response(JTAG2::RSP_NO_TARGET_POWER);
     9e8:	1f 07       	cpc	r17, r31
/Users/askn/Documents/Zinnia-tools/Products/hardware/UPDI4AVR/libraries/UPDI4AVR/examples/UPDI4AVR_FW634B/src/NVM.cpp:317
    }
  }

  /* Other writes are allowed from 1 to 256 bytes */
  if (byte_count == 0 || byte_count > 256) {
    set_response(JTAG2::RSP_ILLEGAL_MEMORY_RANGE);
     9ea:	51 f0       	breq	.+20     	; 0xa00 <__DATA_REGION_LENGTH__+0x200>
     9ec:	00 34       	cpi	r16, 0x40	; 64
     9ee:	11 05       	cpc	r17, r1
/Users/askn/Documents/Zinnia-tools/Products/hardware/UPDI4AVR/libraries/UPDI4AVR/examples/UPDI4AVR_FW634B/src/NVM.cpp:303
      }

      /* Page boundaries require special handling */
      bool is_bound = bit_is_clear(UPDI_CONTROL, UPDI::UPDI_ERFM_bp)
        && before_address != start_addr
        && ((JTAG2::updi_desc.flash_page_size - 1) & (uint16_t)start_addr) == 0;
     9f0:	39 f0       	breq	.+14     	; 0xa00 <__DATA_REGION_LENGTH__+0x200>
     9f2:	02 30       	cpi	r16, 0x02	; 2
/Users/askn/Documents/Zinnia-tools/Products/hardware/UPDI4AVR/libraries/UPDI4AVR/examples/UPDI4AVR_FW634B/src/NVM.cpp:302
        return true;
      }

      /* Page boundaries require special handling */
      bool is_bound = bit_is_clear(UPDI_CONTROL, UPDI::UPDI_ERFM_bp)
        && before_address != start_addr
     9f4:	11 05       	cpc	r17, r1
     9f6:	21 f0       	breq	.+8      	; 0xa00 <__DATA_REGION_LENGTH__+0x200>
     9f8:	8b ea       	ldi	r24, 0xAB	; 171
     9fa:	90 e0       	ldi	r25, 0x00	; 0
     9fc:	ff dc       	rcall	.-1538   	; 0x3fc <JTAG2::set_response(JTAG2::jtag_response_e)>
     9fe:	2c cf       	rjmp	.-424    	; 0x858 <__DATA_REGION_LENGTH__+0x58>
     a00:	e2 99       	sbic	0x1c, 2	; 28
     a02:	14 c0       	rjmp	.+40     	; 0xa2c <__DATA_REGION_LENGTH__+0x22c>
     a04:	40 91 5d 38 	lds	r20, 0x385D	; 0x80385d <NVM::before_address>
/Users/askn/Documents/Zinnia-tools/Products/hardware/UPDI4AVR/libraries/UPDI4AVR/examples/UPDI4AVR_FW634B/src/NVM.cpp:303
        && ((JTAG2::updi_desc.flash_page_size - 1) & (uint16_t)start_addr) == 0;
     a08:	50 91 5e 38 	lds	r21, 0x385E	; 0x80385e <NVM::before_address+0x1>
     a0c:	60 91 5f 38 	lds	r22, 0x385F	; 0x80385f <NVM::before_address+0x2>
     a10:	70 91 60 38 	lds	r23, 0x3860	; 0x803860 <NVM::before_address+0x3>
     a14:	c4 16       	cp	r12, r20
/Users/askn/Documents/Zinnia-tools/Products/hardware/UPDI4AVR/libraries/UPDI4AVR/examples/UPDI4AVR_FW634B/src/NVM.cpp:304
      before_address = start_addr;
     a16:	d5 06       	cpc	r13, r21
     a18:	e6 06       	cpc	r14, r22
     a1a:	f7 06       	cpc	r15, r23
     a1c:	39 f0       	breq	.+14     	; 0xa2c <__DATA_REGION_LENGTH__+0x22c>
     a1e:	01 97       	sbiw	r24, 0x01	; 1
     a20:	9c 01       	movw	r18, r24
     a22:	2c 21       	and	r18, r12
     a24:	3d 21       	and	r19, r13
/Users/askn/Documents/Zinnia-tools/Products/hardware/UPDI4AVR/libraries/UPDI4AVR/examples/UPDI4AVR_FW634B/src/NVM.cpp:306

      if (bit_is_set(UPDI_NVMCTRL, UPDI::UPDI_GEN3_bp))
     a26:	81 e0       	ldi	r24, 0x01	; 1
     a28:	23 2b       	or	r18, r19
/Users/askn/Documents/Zinnia-tools/Products/hardware/UPDI4AVR/libraries/UPDI4AVR/examples/UPDI4AVR_FW634B/src/NVM.cpp:163

  bool write_flash_v3 (uint32_t start_addr, uint8_t *data, size_t byte_count, bool is_bound) {
    /* NVMCTRL version 3 or 5 */
    /* If the chip is not erased, erase the page. */
    /* However, only when the beginning of the page boundary is addressed */
    if (is_bound) {
     a2a:	09 f0       	breq	.+2      	; 0xa2e <__DATA_REGION_LENGTH__+0x22e>
_ZN4UPDI7runtimeEh():
     a2c:	80 e0       	ldi	r24, 0x00	; 0
write_memory():
/Users/askn/Documents/Zinnia-tools/Products/hardware/UPDI4AVR/libraries/UPDI4AVR/examples/UPDI4AVR_FW634B/src/NVM.cpp:164
      nvm_wait_v3();
     a2e:	c0 92 5d 38 	sts	0x385D, r12	; 0x80385d <NVM::before_address>
/Users/askn/Documents/Zinnia-tools/Products/hardware/UPDI4AVR/libraries/UPDI4AVR/examples/UPDI4AVR_FW634B/src/NVM.cpp:165
      if (!UPDI::st8(start_addr, 0xFF)) return false;
     a32:	d0 92 5e 38 	sts	0x385E, r13	; 0x80385e <NVM::before_address+0x1>
     a36:	e0 92 5f 38 	sts	0x385F, r14	; 0x80385f <NVM::before_address+0x2>
     a3a:	f0 92 60 38 	sts	0x3860, r15	; 0x803860 <NVM::before_address+0x3>
     a3e:	ed 9b       	sbis	0x1d, 5	; 29
     a40:	25 c0       	rjmp	.+74     	; 0xa8c <__DATA_REGION_LENGTH__+0x28c>
write_flash_v3():
/Users/askn/Documents/Zinnia-tools/Products/hardware/UPDI4AVR/libraries/UPDI4AVR/examples/UPDI4AVR_FW634B/src/NVM.cpp:80
    return nvm_ctrl_change(nvmcmd);
  }

  /* NVMCTRL version 3,5 */
  bool nvm_ctrl_v3 (uint8_t nvmcmd) {
    nvm_wait_v3();
     a42:	88 23       	and	r24, r24
     a44:	d9 f0       	breq	.+54     	; 0xa7c <__DATA_REGION_LENGTH__+0x27c>
/Users/askn/Documents/Zinnia-tools/Products/hardware/UPDI4AVR/libraries/UPDI4AVR/examples/UPDI4AVR_FW634B/src/NVM.cpp:81
    return nvm_ctrl_change(nvmcmd);
     a46:	82 de       	rcall	.-764    	; 0x74c <NVM::nvm_wait_v3()>
     a48:	4f ef       	ldi	r20, 0xFF	; 255
/Users/askn/Documents/Zinnia-tools/Products/hardware/UPDI4AVR/libraries/UPDI4AVR/examples/UPDI4AVR_FW634B/src/NVM.cpp:168
    if (is_bound) {
      nvm_wait_v3();
      if (!UPDI::st8(start_addr, 0xFF)) return false;
      if (!nvm_ctrl_v3(NVM_V3_CMD_FLPER)) return false;
    }
    else if (!nvm_ctrl_v3(NVM_V3_CMD_FLPBCLR)) return false;
     a4a:	c7 01       	movw	r24, r14
     a4c:	b6 01       	movw	r22, r12
/Users/askn/Documents/Zinnia-tools/Products/hardware/UPDI4AVR/libraries/UPDI4AVR/examples/UPDI4AVR_FW634B/src/NVM.cpp:169
    nvm_wait_v3();
     a4e:	de db       	rcall	.-2116   	; 0x20c <UPDI::st8(unsigned long, unsigned char)>
     a50:	88 23       	and	r24, r24
/Users/askn/Documents/Zinnia-tools/Products/hardware/UPDI4AVR/libraries/UPDI4AVR/examples/UPDI4AVR_FW634B/src/NVM.cpp:171

    if (byte_count == 1) UPDI::st8(start_addr, *data);
     a52:	09 f4       	brne	.+2      	; 0xa56 <__DATA_REGION_LENGTH__+0x256>
     a54:	2e cf       	rjmp	.-420    	; 0x8b2 <__DATA_REGION_LENGTH__+0xb2>
nvm_ctrl_v3():
     a56:	7a de       	rcall	.-780    	; 0x74c <NVM::nvm_wait_v3()>
     a58:	88 e0       	ldi	r24, 0x08	; 8
     a5a:	bb dc       	rcall	.-1674   	; 0x3d2 <NVM::nvm_ctrl_change(unsigned char)>
write_flash_v3():
     a5c:	88 23       	and	r24, r24
     a5e:	09 f4       	brne	.+2      	; 0xa62 <__DATA_REGION_LENGTH__+0x262>
     a60:	28 cf       	rjmp	.-432    	; 0x8b2 <__DATA_REGION_LENGTH__+0xb2>
/Users/askn/Documents/Zinnia-tools/Products/hardware/UPDI4AVR/libraries/UPDI4AVR/examples/UPDI4AVR_FW634B/src/NVM.cpp:80
    return nvm_ctrl_change(nvmcmd);
  }

  /* NVMCTRL version 3,5 */
  bool nvm_ctrl_v3 (uint8_t nvmcmd) {
    nvm_wait_v3();
     a62:	74 de       	rcall	.-792    	; 0x74c <NVM::nvm_wait_v3()>
     a64:	01 30       	cpi	r16, 0x01	; 1
/Users/askn/Documents/Zinnia-tools/Products/hardware/UPDI4AVR/libraries/UPDI4AVR/examples/UPDI4AVR_FW634B/src/NVM.cpp:81
    return nvm_ctrl_change(nvmcmd);
     a66:	11 05       	cpc	r17, r1
/Users/askn/Documents/Zinnia-tools/Products/hardware/UPDI4AVR/libraries/UPDI4AVR/examples/UPDI4AVR_FW634B/src/NVM.cpp:75
  }

  /* NVMCTRL version 2,4 */
  bool nvm_ctrl_v2 (uint8_t nvmcmd) {
    nvm_wait();
    return nvm_ctrl_change(nvmcmd);
     a68:	61 f4       	brne	.+24     	; 0xa82 <__DATA_REGION_LENGTH__+0x282>
     a6a:	40 91 a0 38 	lds	r20, 0x38A0	; 0x8038a0 <JTAG2::packet+0x12>
/Users/askn/Documents/Zinnia-tools/Products/hardware/UPDI4AVR/libraries/UPDI4AVR/examples/UPDI4AVR_FW634B/src/NVM.cpp:80
  }

  /* NVMCTRL version 3,5 */
  bool nvm_ctrl_v3 (uint8_t nvmcmd) {
    nvm_wait_v3();
     a6e:	c7 01       	movw	r24, r14
/Users/askn/Documents/Zinnia-tools/Products/hardware/UPDI4AVR/libraries/UPDI4AVR/examples/UPDI4AVR_FW634B/src/NVM.cpp:81
    return nvm_ctrl_change(nvmcmd);
     a70:	b6 01       	movw	r22, r12
/Users/askn/Documents/Zinnia-tools/Products/hardware/UPDI4AVR/libraries/UPDI4AVR/examples/UPDI4AVR_FW634B/src/NVM.cpp:172
    }
    else if (!nvm_ctrl_v3(NVM_V3_CMD_FLPBCLR)) return false;
    nvm_wait_v3();

    if (byte_count == 1) UPDI::st8(start_addr, *data);
    else UPDI::sts8rsd(start_addr, data, byte_count);
     a72:	cc db       	rcall	.-2152   	; 0x20c <UPDI::st8(unsigned long, unsigned char)>
nvm_ctrl_v3():
     a74:	6b de       	rcall	.-810    	; 0x74c <NVM::nvm_wait_v3()>
     a76:	84 e0       	ldi	r24, 0x04	; 4
nvm_ctrl_v2():
     a78:	ac dc       	rcall	.-1704   	; 0x3d2 <NVM::nvm_ctrl_change(unsigned char)>
     a7a:	ef ce       	rjmp	.-546    	; 0x85a <__DATA_REGION_LENGTH__+0x5a>
nvm_ctrl_v3():
     a7c:	67 de       	rcall	.-818    	; 0x74c <NVM::nvm_wait_v3()>
/Users/askn/Documents/Zinnia-tools/Products/hardware/UPDI4AVR/libraries/UPDI4AVR/examples/UPDI4AVR_FW634B/src/NVM.cpp:308
        && ((JTAG2::updi_desc.flash_page_size - 1) & (uint16_t)start_addr) == 0;
      before_address = start_addr;

      if (bit_is_set(UPDI_NVMCTRL, UPDI::UPDI_GEN3_bp))
        return write_flash_v3(start_addr, data, byte_count, is_bound);
      else if (bit_is_set(UPDI_NVMCTRL, UPDI::UPDI_GEN2_bp))
     a7e:	8f e0       	ldi	r24, 0x0F	; 15
/Users/askn/Documents/Zinnia-tools/Products/hardware/UPDI4AVR/libraries/UPDI4AVR/examples/UPDI4AVR_FW634B/src/NVM.cpp:181

  bool write_flash_v2 (uint32_t start_addr, uint8_t *data, size_t byte_count, bool is_bound) {
    /* NVMCTRL version 2 or 4 */
    /* If the chip is not erased, erase the page. */
    /* However, only when the beginning of the page boundary is addressed */
    if (is_bound) {
     a80:	ec cf       	rjmp	.-40     	; 0xa5a <__DATA_REGION_LENGTH__+0x25a>
write_flash_v3():
/Users/askn/Documents/Zinnia-tools/Products/hardware/UPDI4AVR/libraries/UPDI4AVR/examples/UPDI4AVR_FW634B/src/NVM.cpp:74
    return true;
  }

  /* NVMCTRL version 2,4 */
  bool nvm_ctrl_v2 (uint8_t nvmcmd) {
    nvm_wait();
     a82:	40 2f       	mov	r20, r16
     a84:	c7 01       	movw	r24, r14
/Users/askn/Documents/Zinnia-tools/Products/hardware/UPDI4AVR/libraries/UPDI4AVR/examples/UPDI4AVR_FW634B/src/NVM.cpp:75
    return nvm_ctrl_change(nvmcmd);
     a86:	b6 01       	movw	r22, r12
     a88:	7f db       	rcall	.-2306   	; 0x188 <UPDI::sts8rsd(unsigned long, unsigned char*, unsigned char) [clone .constprop.17]>
/Users/askn/Documents/Zinnia-tools/Products/hardware/UPDI4AVR/libraries/UPDI4AVR/examples/UPDI4AVR_FW634B/src/NVM.cpp:185
    /* However, only when the beginning of the page boundary is addressed */
    if (is_bound) {
      if (!nvm_ctrl_v2(NVM_V2_CMD_FLPER)) return false;
      if (!UPDI::st8(start_addr, 0xFF)) return false;
    }
    if (!nvm_ctrl_v2(NVM_V2_CMD_FLWR)) return false;
     a8a:	f4 cf       	rjmp	.-24     	; 0xa74 <__DATA_REGION_LENGTH__+0x274>
write_memory():
     a8c:	ee 9b       	sbis	0x1d, 6	; 29
     a8e:	62 c0       	rjmp	.+196    	; 0xb54 <__DATA_REGION_LENGTH__+0x354>
write_flash_v2():
/Users/askn/Documents/Zinnia-tools/Products/hardware/UPDI4AVR/libraries/UPDI4AVR/examples/UPDI4AVR_FW634B/src/NVM.cpp:188

    /* This version allows bulk writes of 512 bytes */
    if (byte_count == 1) UPDI::st8(start_addr, *data);
     a90:	81 11       	cpse	r24, r1
     a92:	0f c0       	rjmp	.+30     	; 0xab2 <__DATA_REGION_LENGTH__+0x2b2>
nvm_ctrl_v2():
/Users/askn/Documents/Zinnia-tools/Products/hardware/UPDI4AVR/libraries/UPDI4AVR/examples/UPDI4AVR_FW634B/src/NVM.cpp:131
      set_response(JTAG2::RSP_ILLEGAL_MEMORY_RANGE);
      return true;
    }
    if (!nvm_ctrl_v2(NVM_V2_CMD_EEERWR)) return false;

    if (byte_count == 1) UPDI::st8(start_addr, *data);
     a94:	69 de       	rcall	.-814    	; 0x768 <NVM::nvm_wait()>
     a96:	82 e0       	ldi	r24, 0x02	; 2
     a98:	9c dc       	rcall	.-1736   	; 0x3d2 <NVM::nvm_ctrl_change(unsigned char)>
write_flash_v2():
     a9a:	88 23       	and	r24, r24
     a9c:	09 f4       	brne	.+2      	; 0xaa0 <__DATA_REGION_LENGTH__+0x2a0>
     a9e:	09 cf       	rjmp	.-494    	; 0x8b2 <__DATA_REGION_LENGTH__+0xb2>
/Users/askn/Documents/Zinnia-tools/Products/hardware/UPDI4AVR/libraries/UPDI4AVR/examples/UPDI4AVR_FW634B/src/NVM.cpp:74
    return true;
  }

  /* NVMCTRL version 2,4 */
  bool nvm_ctrl_v2 (uint8_t nvmcmd) {
    nvm_wait();
     aa0:	01 30       	cpi	r16, 0x01	; 1
/Users/askn/Documents/Zinnia-tools/Products/hardware/UPDI4AVR/libraries/UPDI4AVR/examples/UPDI4AVR_FW634B/src/NVM.cpp:75
    return nvm_ctrl_change(nvmcmd);
     aa2:	11 05       	cpc	r17, r1
     aa4:	99 f4       	brne	.+38     	; 0xacc <__DATA_REGION_LENGTH__+0x2cc>
write_eeprom_v2():
/Users/askn/Documents/Zinnia-tools/Products/hardware/UPDI4AVR/libraries/UPDI4AVR/examples/UPDI4AVR_FW634B/src/NVM.cpp:182
  bool write_flash_v2 (uint32_t start_addr, uint8_t *data, size_t byte_count, bool is_bound) {
    /* NVMCTRL version 2 or 4 */
    /* If the chip is not erased, erase the page. */
    /* However, only when the beginning of the page boundary is addressed */
    if (is_bound) {
      if (!nvm_ctrl_v2(NVM_V2_CMD_FLPER)) return false;
     aa6:	40 91 a0 38 	lds	r20, 0x38A0	; 0x8038a0 <JTAG2::packet+0x12>
/Users/askn/Documents/Zinnia-tools/Products/hardware/UPDI4AVR/libraries/UPDI4AVR/examples/UPDI4AVR_FW634B/src/NVM.cpp:183
      if (!UPDI::st8(start_addr, 0xFF)) return false;
     aaa:	c7 01       	movw	r24, r14
     aac:	b6 01       	movw	r22, r12
     aae:	ae db       	rcall	.-2212   	; 0x20c <UPDI::st8(unsigned long, unsigned char)>
     ab0:	49 c0       	rjmp	.+146    	; 0xb44 <__DATA_REGION_LENGTH__+0x344>
nvm_ctrl_v2():
     ab2:	5a de       	rcall	.-844    	; 0x768 <NVM::nvm_wait()>
     ab4:	88 e0       	ldi	r24, 0x08	; 8
     ab6:	8d dc       	rcall	.-1766   	; 0x3d2 <NVM::nvm_ctrl_change(unsigned char)>
write_flash_v2():
     ab8:	88 23       	and	r24, r24
/Users/askn/Documents/Zinnia-tools/Products/hardware/UPDI4AVR/libraries/UPDI4AVR/examples/UPDI4AVR_FW634B/src/NVM.cpp:189
    }
    if (!nvm_ctrl_v2(NVM_V2_CMD_FLWR)) return false;

    /* This version allows bulk writes of 512 bytes */
    if (byte_count == 1) UPDI::st8(start_addr, *data);
    else if ((byte_count - 1) >> 8) UPDI::sts16rsd(start_addr, data, byte_count);
     aba:	09 f4       	brne	.+2      	; 0xabe <__DATA_REGION_LENGTH__+0x2be>
     abc:	fa ce       	rjmp	.-524    	; 0x8b2 <__DATA_REGION_LENGTH__+0xb2>
     abe:	4f ef       	ldi	r20, 0xFF	; 255
     ac0:	c7 01       	movw	r24, r14
     ac2:	b6 01       	movw	r22, r12
     ac4:	a3 db       	rcall	.-2234   	; 0x20c <UPDI::st8(unsigned long, unsigned char)>
     ac6:	81 11       	cpse	r24, r1
/Users/askn/Documents/Zinnia-tools/Products/hardware/UPDI4AVR/libraries/UPDI4AVR/examples/UPDI4AVR_FW634B/src/UPDI.cpp:235
  if (!set_cs_ctra(UPDI_GTVAL)) return false;
  return true;
}

bool UPDI::sts16rsd (uint32_t addr, uint8_t *data, size_t len) {
  _CAPS32(_set_ptr_l[2])->dword = addr;
     ac8:	e5 cf       	rjmp	.-54     	; 0xa94 <__DATA_REGION_LENGTH__+0x294>
     aca:	f3 ce       	rjmp	.-538    	; 0x8b2 <__DATA_REGION_LENGTH__+0xb2>
     acc:	c8 01       	movw	r24, r16
     ace:	01 97       	sbiw	r24, 0x01	; 1
     ad0:	89 2f       	mov	r24, r25
     ad2:	99 27       	eor	r25, r25
     ad4:	89 2b       	or	r24, r25
/Users/askn/Documents/Zinnia-tools/Products/hardware/UPDI4AVR/libraries/UPDI4AVR/examples/UPDI4AVR_FW634B/src/UPDI.cpp:236
  uint8_t repeat = len >> 1;
     ad6:	09 f4       	brne	.+2      	; 0xada <__DATA_REGION_LENGTH__+0x2da>
     ad8:	38 c0       	rjmp	.+112    	; 0xb4a <__DATA_REGION_LENGTH__+0x34a>
sts16rsd():
/Users/askn/Documents/Zinnia-tools/Products/hardware/UPDI4AVR/libraries/UPDI4AVR/examples/UPDI4AVR_FW634B/src/UPDI.cpp:237
  _set_repeat[2] = repeat - 1;
     ada:	c0 92 41 38 	sts	0x3841, r12	; 0x803841 <UPDI::_set_ptr_l+0x2>
     ade:	d0 92 42 38 	sts	0x3842, r13	; 0x803842 <UPDI::_set_ptr_l+0x3>
/Users/askn/Documents/Zinnia-tools/Products/hardware/UPDI4AVR/libraries/UPDI4AVR/examples/UPDI4AVR_FW634B/src/UPDI.cpp:238
  _set_repeat[4] = UPDI_PTR_INC|UPDI_ST|UPDI_DATA2;
     ae2:	e0 92 43 38 	sts	0x3843, r14	; 0x803843 <UPDI::_set_ptr_l+0x4>
/Users/askn/Documents/Zinnia-tools/Products/hardware/UPDI4AVR/libraries/UPDI4AVR/examples/UPDI4AVR_FW634B/src/UPDI.cpp:239
  if (!send_bytes(_set_ptr_l, sizeof(_set_ptr_l) - 1)) return false;
     ae6:	f0 92 44 38 	sts	0x3844, r15	; 0x803844 <UPDI::_set_ptr_l+0x5>
     aea:	16 95       	lsr	r17
     aec:	07 95       	ror	r16
     aee:	f0 2e       	mov	r15, r16
/Users/askn/Documents/Zinnia-tools/Products/hardware/UPDI4AVR/libraries/UPDI4AVR/examples/UPDI4AVR_FW634B/src/UPDI.cpp:240
  if (UPDI_ACK != RECV()) return false;
     af0:	ea e3       	ldi	r30, 0x3A	; 58
     af2:	f8 e3       	ldi	r31, 0x38	; 56
     af4:	01 50       	subi	r16, 0x01	; 1
     af6:	02 83       	std	Z+2, r16	; 0x02
/Users/askn/Documents/Zinnia-tools/Products/hardware/UPDI4AVR/libraries/UPDI4AVR/examples/UPDI4AVR_FW634B/src/UPDI.cpp:317
  set_ptr[2] = data;
  return send_bytes(set_ptr, sizeof(set_ptr));
}

bool UPDI::set_cs_ctra (uint8_t data) {
  return set_cs_stat(UPDI_CS_CTRLA, data);
     af8:	85 e6       	ldi	r24, 0x65	; 101
     afa:	84 83       	std	Z+4, r24	; 0x04
     afc:	65 e0       	ldi	r22, 0x05	; 5
     afe:	8f e3       	ldi	r24, 0x3F	; 63
/Users/askn/Documents/Zinnia-tools/Products/hardware/UPDI4AVR/libraries/UPDI4AVR/examples/UPDI4AVR_FW634B/src/UPDI.cpp:241
  uint8_t repeat = len >> 1;
  _set_repeat[2] = repeat - 1;
  _set_repeat[4] = UPDI_PTR_INC|UPDI_ST|UPDI_DATA2;
  if (!send_bytes(_set_ptr_l, sizeof(_set_ptr_l) - 1)) return false;
  if (UPDI_ACK != RECV()) return false;
  if (!set_cs_ctra(UPDI_SET_RSD|UPDI_GTVAL_RSD)) return false;
     b00:	98 e3       	ldi	r25, 0x38	; 56
     b02:	29 db       	rcall	.-2478   	; 0x156 <UPDI::send_bytes(unsigned char*, unsigned char)>
/Users/askn/Documents/Zinnia-tools/Products/hardware/UPDI4AVR/libraries/UPDI4AVR/examples/UPDI4AVR_FW634B/src/UPDI.cpp:242
  if (!send_bytes(_set_repeat, sizeof(_set_repeat))) return false;
     b04:	88 23       	and	r24, r24
     b06:	f1 f0       	breq	.+60     	; 0xb44 <__DATA_REGION_LENGTH__+0x344>
     b08:	00 db       	rcall	.-2560   	; 0x10a <UPDI::RECV()>
     b0a:	80 34       	cpi	r24, 0x40	; 64
     b0c:	d9 f4       	brne	.+54     	; 0xb44 <__DATA_REGION_LENGTH__+0x344>
set_cs_ctra():
     b0e:	6e e0       	ldi	r22, 0x0E	; 14
     b10:	82 e0       	ldi	r24, 0x02	; 2
     b12:	32 db       	rcall	.-2460   	; 0x178 <UPDI::set_cs_stat(unsigned char, unsigned char)>
sts16rsd():
/Users/askn/Documents/Zinnia-tools/Products/hardware/UPDI4AVR/libraries/UPDI4AVR/examples/UPDI4AVR_FW634B/src/UPDI.cpp:244
  do {              /* Repeat word send */
    SEND(*data++);  /* Submission errors must be ignored */
     b14:	88 23       	and	r24, r24
     b16:	b1 f0       	breq	.+44     	; 0xb44 <__DATA_REGION_LENGTH__+0x344>
     b18:	65 e0       	ldi	r22, 0x05	; 5
     b1a:	8a e3       	ldi	r24, 0x3A	; 58
/Users/askn/Documents/Zinnia-tools/Products/hardware/UPDI4AVR/libraries/UPDI4AVR/examples/UPDI4AVR_FW634B/src/UPDI.cpp:245
    SEND(*data++);  /* Submission errors must be ignored */
     b1c:	98 e3       	ldi	r25, 0x38	; 56
     b1e:	1b db       	rcall	.-2506   	; 0x156 <UPDI::send_bytes(unsigned char*, unsigned char)>
     b20:	88 23       	and	r24, r24
     b22:	81 f0       	breq	.+32     	; 0xb44 <__DATA_REGION_LENGTH__+0x344>
/Users/askn/Documents/Zinnia-tools/Products/hardware/UPDI4AVR/libraries/UPDI4AVR/examples/UPDI4AVR_FW634B/src/UPDI.cpp:246
  } while (--repeat);
     b24:	0e e8       	ldi	r16, 0x8E	; 142
     b26:	18 e3       	ldi	r17, 0x38	; 56
     b28:	f8 01       	movw	r30, r16
     b2a:	82 89       	ldd	r24, Z+18	; 0x12
     b2c:	fa da       	rcall	.-2572   	; 0x122 <UPDI::SEND(unsigned char)>
/Users/askn/Documents/Zinnia-tools/Products/hardware/UPDI4AVR/libraries/UPDI4AVR/examples/UPDI4AVR_FW634B/src/UPDI.cpp:317
  set_ptr[2] = data;
  return send_bytes(set_ptr, sizeof(set_ptr));
}

bool UPDI::set_cs_ctra (uint8_t data) {
  return set_cs_stat(UPDI_CS_CTRLA, data);
     b2e:	f8 01       	movw	r30, r16
     b30:	83 89       	ldd	r24, Z+19	; 0x13
     b32:	f7 da       	rcall	.-2578   	; 0x122 <UPDI::SEND(unsigned char)>
     b34:	fa 94       	dec	r15
/Users/askn/Documents/Zinnia-tools/Products/hardware/UPDI4AVR/libraries/UPDI4AVR/examples/UPDI4AVR_FW634B/src/NVM.cpp:74
    return true;
  }

  /* NVMCTRL version 2,4 */
  bool nvm_ctrl_v2 (uint8_t nvmcmd) {
    nvm_wait();
     b36:	0e 5f       	subi	r16, 0xFE	; 254
     b38:	1f 4f       	sbci	r17, 0xFF	; 255
/Users/askn/Documents/Zinnia-tools/Products/hardware/UPDI4AVR/libraries/UPDI4AVR/examples/UPDI4AVR_FW634B/src/NVM.cpp:75
    return nvm_ctrl_change(nvmcmd);
     b3a:	f1 10       	cpse	r15, r1
/Users/askn/Documents/Zinnia-tools/Products/hardware/UPDI4AVR/libraries/UPDI4AVR/examples/UPDI4AVR_FW634B/src/NVM.cpp:190
    if (!nvm_ctrl_v2(NVM_V2_CMD_FLWR)) return false;

    /* This version allows bulk writes of 512 bytes */
    if (byte_count == 1) UPDI::st8(start_addr, *data);
    else if ((byte_count - 1) >> 8) UPDI::sts16rsd(start_addr, data, byte_count);
    else UPDI::sts8rsd(start_addr, data, byte_count);
     b3c:	f5 cf       	rjmp	.-22     	; 0xb28 <__DATA_REGION_LENGTH__+0x328>
set_cs_ctra():
     b3e:	66 e0       	ldi	r22, 0x06	; 6
     b40:	82 e0       	ldi	r24, 0x02	; 2
     b42:	1a db       	rcall	.-2508   	; 0x178 <UPDI::set_cs_stat(unsigned char, unsigned char)>
nvm_ctrl_v2():
     b44:	11 de       	rcall	.-990    	; 0x768 <NVM::nvm_wait()>
     b46:	80 e0       	ldi	r24, 0x00	; 0
/Users/askn/Documents/Zinnia-tools/Products/hardware/UPDI4AVR/libraries/UPDI4AVR/examples/UPDI4AVR_FW634B/src/NVM.cpp:199

  bool write_flash_v0 (uint32_t start_addr, uint8_t *data, size_t byte_count, bool is_bound) {
    /* NVMCTRL version 0 */
    /* This version does not require page erasure. */
    /* Just clearing the buffer buffer is sufficient. */
    if (is_bound) {
     b48:	97 cf       	rjmp	.-210    	; 0xa78 <__DATA_REGION_LENGTH__+0x278>
write_flash_v2():
     b4a:	40 2f       	mov	r20, r16
/Users/askn/Documents/Zinnia-tools/Products/hardware/UPDI4AVR/libraries/UPDI4AVR/examples/UPDI4AVR_FW634B/src/NVM.cpp:145
    if (byte_count > 64) {
      /* If the limit is exceeded, it will fall back and force a Single-byte write */
      set_response(JTAG2::RSP_ILLEGAL_MEMORY_RANGE);
      return true;
    }
    nvm_wait();
     b4c:	c7 01       	movw	r24, r14
/Users/askn/Documents/Zinnia-tools/Products/hardware/UPDI4AVR/libraries/UPDI4AVR/examples/UPDI4AVR_FW634B/src/NVM.cpp:147

    if (byte_count == 1) UPDI::st8(start_addr, *data);
     b4e:	b6 01       	movw	r22, r12
     b50:	1b db       	rcall	.-2506   	; 0x188 <UPDI::sts8rsd(unsigned long, unsigned char*, unsigned char) [clone .constprop.17]>
     b52:	f8 cf       	rjmp	.-16     	; 0xb44 <__DATA_REGION_LENGTH__+0x344>
write_flash_v0():
     b54:	81 11       	cpse	r24, r1
     b56:	0d c0       	rjmp	.+26     	; 0xb72 <__DATA_REGION_LENGTH__+0x372>
write_eeprom_v0():
     b58:	07 de       	rcall	.-1010   	; 0x768 <NVM::nvm_wait()>
     b5a:	01 30       	cpi	r16, 0x01	; 1
     b5c:	11 05       	cpc	r17, r1
/Users/askn/Documents/Zinnia-tools/Products/hardware/UPDI4AVR/libraries/UPDI4AVR/examples/UPDI4AVR_FW634B/src/NVM.cpp:150
    else UPDI::sts8rsd(start_addr, data, byte_count);

    return nvm_ctrl(NVM_CMD_ERWP);
     b5e:	09 f0       	breq	.+2      	; 0xb62 <__DATA_REGION_LENGTH__+0x362>
     b60:	9a c0       	rjmp	.+308    	; 0xc96 <__DATA_REGION_LENGTH__+0x496>
     b62:	40 91 a0 38 	lds	r20, 0x38A0	; 0x8038a0 <JTAG2::packet+0x12>
/Users/askn/Documents/Zinnia-tools/Products/hardware/UPDI4AVR/libraries/UPDI4AVR/examples/UPDI4AVR_FW634B/src/NVM.cpp:200
  bool write_flash_v0 (uint32_t start_addr, uint8_t *data, size_t byte_count, bool is_bound) {
    /* NVMCTRL version 0 */
    /* This version does not require page erasure. */
    /* Just clearing the buffer buffer is sufficient. */
    if (is_bound) {
      nvm_wait();
     b66:	c7 01       	movw	r24, r14
     b68:	b6 01       	movw	r22, r12
/Users/askn/Documents/Zinnia-tools/Products/hardware/UPDI4AVR/libraries/UPDI4AVR/examples/UPDI4AVR_FW634B/src/NVM.cpp:201
      if (!nvm_ctrl(NVM_CMD_PBC)) return false;
     b6a:	50 db       	rcall	.-2400   	; 0x20c <UPDI::st8(unsigned long, unsigned char)>
     b6c:	83 e0       	ldi	r24, 0x03	; 3
     b6e:	2b dc       	rcall	.-1962   	; 0x3c6 <NVM::nvm_ctrl(unsigned char)>
     b70:	74 ce       	rjmp	.-792    	; 0x85a <__DATA_REGION_LENGTH__+0x5a>
write_flash_v0():
     b72:	fa dd       	rcall	.-1036   	; 0x768 <NVM::nvm_wait()>
     b74:	84 e0       	ldi	r24, 0x04	; 4
/Users/askn/Documents/Zinnia-tools/Products/hardware/UPDI4AVR/libraries/UPDI4AVR/examples/UPDI4AVR_FW634B/src/NVM.cpp:316
        return write_flash_v0(start_addr, data, byte_count, is_bound);
    }
  }

  /* Other writes are allowed from 1 to 256 bytes */
  if (byte_count == 0 || byte_count > 256) {
     b76:	27 dc       	rcall	.-1970   	; 0x3c6 <NVM::nvm_ctrl(unsigned char)>
     b78:	81 11       	cpse	r24, r1
     b7a:	ee cf       	rjmp	.-36     	; 0xb58 <__DATA_REGION_LENGTH__+0x358>
     b7c:	9a ce       	rjmp	.-716    	; 0x8b2 <__DATA_REGION_LENGTH__+0xb2>
write_memory():
     b7e:	98 01       	movw	r18, r16
     b80:	21 50       	subi	r18, 0x01	; 1
     b82:	31 09       	sbc	r19, r1
/Users/askn/Documents/Zinnia-tools/Products/hardware/UPDI4AVR/libraries/UPDI4AVR/examples/UPDI4AVR_FW634B/src/NVM.cpp:321
    set_response(JTAG2::RSP_ILLEGAL_MEMORY_RANGE);
    return true;
  }

  switch (mem_type) {
     b84:	2f 3f       	cpi	r18, 0xFF	; 255
     b86:	31 05       	cpc	r19, r1
     b88:	11 f0       	breq	.+4      	; 0xb8e <__DATA_REGION_LENGTH__+0x38e>
     b8a:	08 f0       	brcs	.+2      	; 0xb8e <__DATA_REGION_LENGTH__+0x38e>
     b8c:	48 ce       	rjmp	.-880    	; 0x81e <__DATA_REGION_LENGTH__+0x1e>
/Users/askn/Documents/Zinnia-tools/Products/hardware/UPDI4AVR/libraries/UPDI4AVR/examples/UPDI4AVR_FW634B/src/NVM.cpp:342
      /* FUSES in other implementations is equivalent to EEPROM */
    }
    case JTAG2::MTYPE_XMEGA_EEPROM :          // 0xC4
    case JTAG2::MTYPE_EEPROM_PAGE :           // 0xB1
    case JTAG2::MTYPE_EEPROM : {              // 0x22
      if (bit_is_set(UPDI_NVMCTRL, UPDI::UPDI_GEN3_bp))
     b8e:	81 3b       	cpi	r24, 0xB1	; 177
     b90:	29 f0       	breq	.+10     	; 0xb9c <__DATA_REGION_LENGTH__+0x39c>
/Users/askn/Documents/Zinnia-tools/Products/hardware/UPDI4AVR/libraries/UPDI4AVR/examples/UPDI4AVR_FW634B/src/NVM.cpp:107
   ***********************************/

  bool write_eeprom_v3 (uint32_t start_addr, uint8_t *data, size_t byte_count) {
    /* NVMCTRL version 3 or 5 */
    /* This version can write 8 bytes in bulk */
    if (byte_count > 8) {
     b92:	e0 f4       	brcc	.+56     	; 0xbcc <__DATA_REGION_LENGTH__+0x3cc>
     b94:	80 32       	cpi	r24, 0x20	; 32
     b96:	09 f1       	breq	.+66     	; 0xbda <__DATA_REGION_LENGTH__+0x3da>
     b98:	82 32       	cpi	r24, 0x22	; 34
/Users/askn/Documents/Zinnia-tools/Products/hardware/UPDI4AVR/libraries/UPDI4AVR/examples/UPDI4AVR_FW634B/src/NVM.cpp:80
    return nvm_ctrl_change(nvmcmd);
  }

  /* NVMCTRL version 3,5 */
  bool nvm_ctrl_v3 (uint8_t nvmcmd) {
    nvm_wait_v3();
     b9a:	e1 f4       	brne	.+56     	; 0xbd4 <__DATA_REGION_LENGTH__+0x3d4>
     b9c:	ed 9b       	sbis	0x1d, 5	; 29
/Users/askn/Documents/Zinnia-tools/Products/hardware/UPDI4AVR/libraries/UPDI4AVR/examples/UPDI4AVR_FW634B/src/NVM.cpp:81
    return nvm_ctrl_change(nvmcmd);
     b9e:	5f c0       	rjmp	.+190    	; 0xc5e <__DATA_REGION_LENGTH__+0x45e>
write_eeprom_v3():
     ba0:	09 30       	cpi	r16, 0x09	; 9
/Users/askn/Documents/Zinnia-tools/Products/hardware/UPDI4AVR/libraries/UPDI4AVR/examples/UPDI4AVR_FW634B/src/NVM.cpp:112
    if (byte_count > 8) {
      /* If the limit is exceeded, it will fall back and force a Single-byte write */
      set_response(JTAG2::RSP_ILLEGAL_MEMORY_RANGE);
      return true;
    }
    if (!nvm_ctrl_v3(NVM_V3_CMD_EEPBCLR)) return false;
     ba2:	11 05       	cpc	r17, r1
     ba4:	08 f0       	brcs	.+2      	; 0xba8 <__DATA_REGION_LENGTH__+0x3a8>
     ba6:	3b ce       	rjmp	.-906    	; 0x81e <__DATA_REGION_LENGTH__+0x1e>
nvm_ctrl_v3():
/Users/askn/Documents/Zinnia-tools/Products/hardware/UPDI4AVR/libraries/UPDI4AVR/examples/UPDI4AVR_FW634B/src/NVM.cpp:114

    if (byte_count == 1) UPDI::st8(start_addr, *data);
     ba8:	d1 dd       	rcall	.-1118   	; 0x74c <NVM::nvm_wait_v3()>
     baa:	8f e1       	ldi	r24, 0x1F	; 31
     bac:	12 dc       	rcall	.-2012   	; 0x3d2 <NVM::nvm_ctrl_change(unsigned char)>
write_eeprom_v3():
     bae:	88 23       	and	r24, r24
     bb0:	09 f4       	brne	.+2      	; 0xbb4 <__DATA_REGION_LENGTH__+0x3b4>
     bb2:	7f ce       	rjmp	.-770    	; 0x8b2 <__DATA_REGION_LENGTH__+0xb2>
     bb4:	01 30       	cpi	r16, 0x01	; 1
     bb6:	11 05       	cpc	r17, r1
     bb8:	09 f0       	breq	.+2      	; 0xbbc <__DATA_REGION_LENGTH__+0x3bc>
/Users/askn/Documents/Zinnia-tools/Products/hardware/UPDI4AVR/libraries/UPDI4AVR/examples/UPDI4AVR_FW634B/src/NVM.cpp:80
    return nvm_ctrl_change(nvmcmd);
  }

  /* NVMCTRL version 3,5 */
  bool nvm_ctrl_v3 (uint8_t nvmcmd) {
    nvm_wait_v3();
     bba:	4a c0       	rjmp	.+148    	; 0xc50 <__DATA_REGION_LENGTH__+0x450>
     bbc:	40 91 a0 38 	lds	r20, 0x38A0	; 0x8038a0 <JTAG2::packet+0x12>
/Users/askn/Documents/Zinnia-tools/Products/hardware/UPDI4AVR/libraries/UPDI4AVR/examples/UPDI4AVR_FW634B/src/NVM.cpp:81
    return nvm_ctrl_change(nvmcmd);
     bc0:	c7 01       	movw	r24, r14
/Users/askn/Documents/Zinnia-tools/Products/hardware/UPDI4AVR/libraries/UPDI4AVR/examples/UPDI4AVR_FW634B/src/NVM.cpp:321
  if (byte_count == 0 || byte_count > 256) {
    set_response(JTAG2::RSP_ILLEGAL_MEMORY_RANGE);
    return true;
  }

  switch (mem_type) {
     bc2:	b6 01       	movw	r22, r12
     bc4:	23 db       	rcall	.-2490   	; 0x20c <UPDI::st8(unsigned long, unsigned char)>
nvm_ctrl_v3():
     bc6:	c2 dd       	rcall	.-1148   	; 0x74c <NVM::nvm_wait_v3()>
/Users/askn/Documents/Zinnia-tools/Products/hardware/UPDI4AVR/libraries/UPDI4AVR/examples/UPDI4AVR_FW634B/src/NVM.cpp:351
      else
        return write_eeprom_v0(start_addr, data, byte_count);
    }
    default :
      /* Other memory types are rejected */
      set_response(JTAG2::RSP_ILLEGAL_MEMORY_TYPE);
     bc8:	85 e1       	ldi	r24, 0x15	; 21
     bca:	56 cf       	rjmp	.-340    	; 0xa78 <__DATA_REGION_LENGTH__+0x278>
write_memory():
/Users/askn/Documents/Zinnia-tools/Products/hardware/UPDI4AVR/libraries/UPDI4AVR/examples/UPDI4AVR_FW634B/src/NVM.cpp:324
  }

  switch (mem_type) {
    /* Can write to the IO region as is */
    case JTAG2::MTYPE_SRAM : {                // 0x20
      return UPDI::sts8(start_addr, data, byte_count);
     bcc:	84 3b       	cpi	r24, 0xB4	; 180
     bce:	60 f0       	brcs	.+24     	; 0xbe8 <__DATA_REGION_LENGTH__+0x3e8>
     bd0:	84 3c       	cpi	r24, 0xC4	; 196
     bd2:	21 f3       	breq	.-56     	; 0xb9c <__DATA_REGION_LENGTH__+0x39c>
     bd4:	82 ea       	ldi	r24, 0xA2	; 162
     bd6:	90 e0       	ldi	r25, 0x00	; 0
     bd8:	11 cf       	rjmp	.-478    	; 0x9fc <__DATA_REGION_LENGTH__+0x1fc>
/Users/askn/Documents/Zinnia-tools/Products/hardware/UPDI4AVR/libraries/UPDI4AVR/examples/UPDI4AVR_FW634B/src/NVM.cpp:331
    /* EEPROM region */
    case JTAG2::MTYPE_LOCK_BITS :             // 0xB3
    case JTAG2::MTYPE_FUSE_BITS : {           // 0xB2
      /* The NVMCTRL version 0 implementation is special. */
      if (bit_is_clear(UPDI_NVMCTRL, UPDI::UPDI_GEN3_bp)
      && bit_is_clear(UPDI_NVMCTRL, UPDI::UPDI_GEN2_bp)) {
     bda:	20 2f       	mov	r18, r16
     bdc:	40 ea       	ldi	r20, 0xA0	; 160
     bde:	58 e3       	ldi	r21, 0x38	; 56
     be0:	c7 01       	movw	r24, r14
     be2:	b6 01       	movw	r22, r12
     be4:	50 db       	rcall	.-2400   	; 0x286 <UPDI::sts8(unsigned long, unsigned char*, unsigned char)>
     be6:	39 ce       	rjmp	.-910    	; 0x85a <__DATA_REGION_LENGTH__+0x5a>
     be8:	ed 99       	sbic	0x1d, 5	; 29
/Users/askn/Documents/Zinnia-tools/Products/hardware/UPDI4AVR/libraries/UPDI4AVR/examples/UPDI4AVR_FW634B/src/NVM.cpp:92

  bool write_fuse (uint16_t addr, uint8_t data) {
    /* Version 0 of FUSE can write one byte at a time in a special way */
    struct fuse_packet_t { uint16_t data; uint16_t addr; } fuse_packet;
    fuse_packet.data = data;
    fuse_packet.addr = addr;
     bea:	d8 cf       	rjmp	.-80     	; 0xb9c <__DATA_REGION_LENGTH__+0x39c>
     bec:	ee 99       	sbic	0x1d, 6	; 29
     bee:	d6 cf       	rjmp	.-84     	; 0xb9c <__DATA_REGION_LENGTH__+0x39c>
/Users/askn/Documents/Zinnia-tools/Products/hardware/UPDI4AVR/libraries/UPDI4AVR/examples/UPDI4AVR_FW634B/src/NVM.cpp:91
   **********************************************/

  bool write_fuse (uint16_t addr, uint8_t data) {
    /* Version 0 of FUSE can write one byte at a time in a special way */
    struct fuse_packet_t { uint16_t data; uint16_t addr; } fuse_packet;
    fuse_packet.data = data;
     bf0:	c8 01       	movw	r24, r16
     bf2:	82 57       	subi	r24, 0x72	; 114
     bf4:	97 4c       	sbci	r25, 0xC7	; 199
     bf6:	5c 01       	movw	r10, r24
     bf8:	0e e8       	ldi	r16, 0x8E	; 142
/Users/askn/Documents/Zinnia-tools/Products/hardware/UPDI4AVR/libraries/UPDI4AVR/examples/UPDI4AVR_FW634B/src/NVM.cpp:92
    fuse_packet.addr = addr;
     bfa:	18 e3       	ldi	r17, 0x38	; 56
write_fuse():
     bfc:	f6 01       	movw	r30, r12
     bfe:	ee 58       	subi	r30, 0x8E	; 142
     c00:	f8 43       	sbci	r31, 0x38	; 56
/Users/askn/Documents/Zinnia-tools/Products/hardware/UPDI4AVR/libraries/UPDI4AVR/examples/UPDI4AVR_FW634B/src/NVM.cpp:93
    nvm_wait();
     c02:	6f 01       	movw	r12, r30
     c04:	f8 01       	movw	r30, r16
/Users/askn/Documents/Zinnia-tools/Products/hardware/UPDI4AVR/libraries/UPDI4AVR/examples/UPDI4AVR_FW634B/src/NVM.cpp:94
    if (!UPDI::sts8(NVMCTRL_REG_DATA,
     c06:	82 89       	ldd	r24, Z+18	; 0x12
     c08:	90 e0       	ldi	r25, 0x00	; 0
     c0a:	89 83       	std	Y+1, r24	; 0x01
     c0c:	9a 83       	std	Y+2, r25	; 0x02
     c0e:	c6 01       	movw	r24, r12
     c10:	80 0f       	add	r24, r16
     c12:	91 1f       	adc	r25, r17
     c14:	8b 83       	std	Y+3, r24	; 0x03
     c16:	9c 83       	std	Y+4, r25	; 0x04
     c18:	a7 dd       	rcall	.-1202   	; 0x768 <NVM::nvm_wait()>
     c1a:	24 e0       	ldi	r18, 0x04	; 4
/Users/askn/Documents/Zinnia-tools/Products/hardware/UPDI4AVR/libraries/UPDI4AVR/examples/UPDI4AVR_FW634B/src/NVM.cpp:96
      (uint8_t*)&fuse_packet, sizeof(fuse_packet))) return false;
    if (!nvm_ctrl(NVM_CMD_WFU)) return false;
     c1c:	ae 01       	movw	r20, r28
     c1e:	4f 5f       	subi	r20, 0xFF	; 255
     c20:	5f 4f       	sbci	r21, 0xFF	; 255
     c22:	66 e0       	ldi	r22, 0x06	; 6
/Users/askn/Documents/Zinnia-tools/Products/hardware/UPDI4AVR/libraries/UPDI4AVR/examples/UPDI4AVR_FW634B/src/NVM.cpp:97
    return ((nvm_wait() & 7) == 0);
     c24:	70 e1       	ldi	r23, 0x10	; 16
/Users/askn/Documents/Zinnia-tools/Products/hardware/UPDI4AVR/libraries/UPDI4AVR/examples/UPDI4AVR_FW634B/src/NVM.cpp:333
    case JTAG2::MTYPE_FUSE_BITS : {           // 0xB2
      /* The NVMCTRL version 0 implementation is special. */
      if (bit_is_clear(UPDI_NVMCTRL, UPDI::UPDI_GEN3_bp)
      && bit_is_clear(UPDI_NVMCTRL, UPDI::UPDI_GEN2_bp)) {
        do {
          if (!write_fuse(start_addr++, *data++)) return false;
     c26:	80 e0       	ldi	r24, 0x00	; 0
     c28:	90 e0       	ldi	r25, 0x00	; 0
     c2a:	2d db       	rcall	.-2470   	; 0x286 <UPDI::sts8(unsigned long, unsigned char*, unsigned char)>
     c2c:	88 23       	and	r24, r24
/Users/askn/Documents/Zinnia-tools/Products/hardware/UPDI4AVR/libraries/UPDI4AVR/examples/UPDI4AVR_FW634B/src/NVM.cpp:334
        } while (--byte_count);
     c2e:	09 f4       	brne	.+2      	; 0xc32 <__DATA_REGION_LENGTH__+0x432>
     c30:	40 ce       	rjmp	.-896    	; 0x8b2 <__DATA_REGION_LENGTH__+0xb2>
     c32:	87 e0       	ldi	r24, 0x07	; 7
     c34:	c8 db       	rcall	.-2160   	; 0x3c6 <NVM::nvm_ctrl(unsigned char)>
/Users/askn/Documents/Zinnia-tools/Products/hardware/UPDI4AVR/libraries/UPDI4AVR/examples/UPDI4AVR_FW634B/src/NVM.cpp:115
      return true;
    }
    if (!nvm_ctrl_v3(NVM_V3_CMD_EEPBCLR)) return false;

    if (byte_count == 1) UPDI::st8(start_addr, *data);
    else UPDI::sts8(start_addr, data, byte_count);
     c36:	88 23       	and	r24, r24
     c38:	09 f4       	brne	.+2      	; 0xc3c <__DATA_REGION_LENGTH__+0x43c>
     c3a:	3b ce       	rjmp	.-906    	; 0x8b2 <__DATA_REGION_LENGTH__+0xb2>
     c3c:	95 dd       	rcall	.-1238   	; 0x768 <NVM::nvm_wait()>
write_memory():
     c3e:	87 70       	andi	r24, 0x07	; 7
     c40:	09 f0       	breq	.+2      	; 0xc44 <__DATA_REGION_LENGTH__+0x444>
     c42:	37 ce       	rjmp	.-914    	; 0x8b2 <__DATA_REGION_LENGTH__+0xb2>
/Users/askn/Documents/Zinnia-tools/Products/hardware/UPDI4AVR/libraries/UPDI4AVR/examples/UPDI4AVR_FW634B/src/NVM.cpp:344
    case JTAG2::MTYPE_XMEGA_EEPROM :          // 0xC4
    case JTAG2::MTYPE_EEPROM_PAGE :           // 0xB1
    case JTAG2::MTYPE_EEPROM : {              // 0x22
      if (bit_is_set(UPDI_NVMCTRL, UPDI::UPDI_GEN3_bp))
        return write_eeprom_v3(start_addr, data, byte_count);
      else if (bit_is_set(UPDI_NVMCTRL, UPDI::UPDI_GEN2_bp))
     c44:	0f 5f       	subi	r16, 0xFF	; 255
     c46:	1f 4f       	sbci	r17, 0xFF	; 255
/Users/askn/Documents/Zinnia-tools/Products/hardware/UPDI4AVR/libraries/UPDI4AVR/examples/UPDI4AVR_FW634B/src/NVM.cpp:124

  bool write_eeprom_v2 (uint32_t start_addr, uint8_t *data, size_t byte_count) {
    /* NVMCTRL version 2 or 4 */
    /* This version cannot be written in bulk transfer */
    /* Only 2 bytes (1 word) can be written at a time */
    if (byte_count > 2) {
     c48:	0a 15       	cp	r16, r10
     c4a:	1b 05       	cpc	r17, r11
     c4c:	d9 f6       	brne	.-74     	; 0xc04 <__DATA_REGION_LENGTH__+0x404>
     c4e:	04 ce       	rjmp	.-1016   	; 0x858 <__DATA_REGION_LENGTH__+0x58>
write_eeprom_v3():
/Users/askn/Documents/Zinnia-tools/Products/hardware/UPDI4AVR/libraries/UPDI4AVR/examples/UPDI4AVR_FW634B/src/NVM.cpp:74
    return true;
  }

  /* NVMCTRL version 2,4 */
  bool nvm_ctrl_v2 (uint8_t nvmcmd) {
    nvm_wait();
     c50:	20 2f       	mov	r18, r16
     c52:	40 ea       	ldi	r20, 0xA0	; 160
/Users/askn/Documents/Zinnia-tools/Products/hardware/UPDI4AVR/libraries/UPDI4AVR/examples/UPDI4AVR_FW634B/src/NVM.cpp:75
    return nvm_ctrl_change(nvmcmd);
     c54:	58 e3       	ldi	r21, 0x38	; 56
     c56:	c7 01       	movw	r24, r14
     c58:	b6 01       	movw	r22, r12
/Users/askn/Documents/Zinnia-tools/Products/hardware/UPDI4AVR/libraries/UPDI4AVR/examples/UPDI4AVR_FW634B/src/NVM.cpp:129
    if (byte_count > 2) {
      /* If the limit is exceeded, it will fall back and force a Single-byte write */
      set_response(JTAG2::RSP_ILLEGAL_MEMORY_RANGE);
      return true;
    }
    if (!nvm_ctrl_v2(NVM_V2_CMD_EEERWR)) return false;
     c5a:	15 db       	rcall	.-2518   	; 0x286 <UPDI::sts8(unsigned long, unsigned char*, unsigned char)>
     c5c:	b4 cf       	rjmp	.-152    	; 0xbc6 <__DATA_REGION_LENGTH__+0x3c6>
write_memory():
     c5e:	ee 9b       	sbis	0x1d, 6	; 29
/Users/askn/Documents/Zinnia-tools/Products/hardware/UPDI4AVR/libraries/UPDI4AVR/examples/UPDI4AVR_FW634B/src/NVM.cpp:131

    if (byte_count == 1) UPDI::st8(start_addr, *data);
     c60:	15 c0       	rjmp	.+42     	; 0xc8c <__DATA_REGION_LENGTH__+0x48c>
write_eeprom_v2():
     c62:	03 30       	cpi	r16, 0x03	; 3
     c64:	11 05       	cpc	r17, r1
/Users/askn/Documents/Zinnia-tools/Products/hardware/UPDI4AVR/libraries/UPDI4AVR/examples/UPDI4AVR_FW634B/src/NVM.cpp:132
    else UPDI::sts8(start_addr, data, byte_count);
     c66:	08 f0       	brcs	.+2      	; 0xc6a <__DATA_REGION_LENGTH__+0x46a>
     c68:	da cd       	rjmp	.-1100   	; 0x81e <__DATA_REGION_LENGTH__+0x1e>
nvm_ctrl_v2():
     c6a:	7e dd       	rcall	.-1284   	; 0x768 <NVM::nvm_wait()>
     c6c:	83 e1       	ldi	r24, 0x13	; 19
     c6e:	b1 db       	rcall	.-2206   	; 0x3d2 <NVM::nvm_ctrl_change(unsigned char)>
write_eeprom_v2():
     c70:	88 23       	and	r24, r24
     c72:	09 f4       	brne	.+2      	; 0xc76 <__DATA_REGION_LENGTH__+0x476>
     c74:	1e ce       	rjmp	.-964    	; 0x8b2 <__DATA_REGION_LENGTH__+0xb2>
/Users/askn/Documents/Zinnia-tools/Products/hardware/UPDI4AVR/libraries/UPDI4AVR/examples/UPDI4AVR_FW634B/src/NVM.cpp:140
  }

  bool write_eeprom_v0 (uint32_t start_addr, uint8_t *data, size_t byte_count) {
    /* NVMCTRL version 0 */
    /* This version allows fast bulk writes of 32 or 64 bytes */
    if (byte_count > 64) {
     c76:	01 30       	cpi	r16, 0x01	; 1
     c78:	11 05       	cpc	r17, r1
     c7a:	09 f4       	brne	.+2      	; 0xc7e <__DATA_REGION_LENGTH__+0x47e>
     c7c:	14 cf       	rjmp	.-472    	; 0xaa6 <__DATA_REGION_LENGTH__+0x2a6>
     c7e:	22 e0       	ldi	r18, 0x02	; 2
/Users/askn/Documents/Zinnia-tools/Products/hardware/UPDI4AVR/libraries/UPDI4AVR/examples/UPDI4AVR_FW634B/src/NVM.cpp:148
      return true;
    }
    nvm_wait();

    if (byte_count == 1) UPDI::st8(start_addr, *data);
    else UPDI::sts8rsd(start_addr, data, byte_count);
     c80:	40 ea       	ldi	r20, 0xA0	; 160
     c82:	58 e3       	ldi	r21, 0x38	; 56
     c84:	c7 01       	movw	r24, r14
     c86:	b6 01       	movw	r22, r12
     c88:	fe da       	rcall	.-2564   	; 0x286 <UPDI::sts8(unsigned long, unsigned char*, unsigned char)>
     c8a:	5c cf       	rjmp	.-328    	; 0xb44 <__DATA_REGION_LENGTH__+0x344>
write_eeprom_v0():
/Users/askn/Documents/Zinnia-tools/Products/hardware/UPDI4AVR/libraries/UPDI4AVR/examples/UPDI4AVR_FW634B/src/UPDI.cpp:731
      case UPDI_CMD_WRITE_MEMORY : {
        _result = NVM::write_memory();
        break;
      }
      case UPDI_CMD_ERASE : {
        if (JTAG2::packet.body[JTAG2::MEM_TYPE] == JTAG2::XMEGA_ERASE_CHIP) {
     c8c:	01 34       	cpi	r16, 0x41	; 65
     c8e:	11 05       	cpc	r17, r1
     c90:	08 f4       	brcc	.+2      	; 0xc94 <__DATA_REGION_LENGTH__+0x494>
     c92:	62 cf       	rjmp	.-316    	; 0xb58 <__DATA_REGION_LENGTH__+0x358>
/Users/askn/Documents/Zinnia-tools/Products/hardware/UPDI4AVR/libraries/UPDI4AVR/examples/UPDI4AVR_FW634B/src/UPDI.cpp:524
 ****************************/

// __attribute__((optimize("O0")))
bool UPDI::chip_erase (void) {
  /* If UPDI is prohibited, try HV control */
  if (bit_is_clear(UPDI_CONTROL, UPDI_INFO_bp)) {
     c94:	c4 cd       	rjmp	.-1144   	; 0x81e <__DATA_REGION_LENGTH__+0x1e>
     c96:	40 2f       	mov	r20, r16
/Users/askn/Documents/Zinnia-tools/Products/hardware/UPDI4AVR/libraries/UPDI4AVR/examples/UPDI4AVR_FW634B/src/UPDI.cpp:396
  return loop_until_key_stat_is_set(UPDI_KEY_NVMPROG);
}

/* __attribute__((optimize("O0"))) */
bool UPDI::set_erase_key (void) {
  if (!send_bytes(erase_key, sizeof(erase_key))) return false;
     c98:	c7 01       	movw	r24, r14
     c9a:	b6 01       	movw	r22, r12
     c9c:	75 da       	rcall	.-2838   	; 0x188 <UPDI::sts8rsd(unsigned long, unsigned char*, unsigned char) [clone .constprop.17]>
     c9e:	66 cf       	rjmp	.-308    	; 0xb6c <__DATA_REGION_LENGTH__+0x36c>
_ZN4UPDI7runtimeEh():
     ca0:	80 91 97 38 	lds	r24, 0x3897	; 0x803897 <JTAG2::packet+0x9>
     ca4:	81 11       	cpse	r24, r1
/Users/askn/Documents/Zinnia-tools/Products/hardware/UPDI4AVR/libraries/UPDI4AVR/examples/UPDI4AVR_FW634B/src/UPDI.cpp:397
  return loop_until_key_stat_is_set(UPDI_KEY_CHIPERASE);
     ca6:	da cd       	rjmp	.-1100   	; 0x85c <__DATA_REGION_LENGTH__+0x5c>
chip_erase():
     ca8:	e0 9b       	sbis	0x1c, 0	; 28
/Users/askn/Documents/Zinnia-tools/Products/hardware/UPDI4AVR/libraries/UPDI4AVR/examples/UPDI4AVR_FW634B/src/UPDI.cpp:529
  if (bit_is_clear(UPDI_CONTROL, UPDI_INFO_bp)) {
    HV_Pulse();
  }

  /* Transition to CHIPERASE mode by system reset */
  if (!set_erase_key()) return false;
     caa:	41 c0       	rjmp	.+130    	; 0xd2e <__DATA_REGION_LENGTH__+0x52e>
set_erase_key():
     cac:	6a e0       	ldi	r22, 0x0A	; 10
     cae:	8c e2       	ldi	r24, 0x2C	; 44
/Users/askn/Documents/Zinnia-tools/Products/hardware/UPDI4AVR/libraries/UPDI4AVR/examples/UPDI4AVR_FW634B/src/UPDI.cpp:532

  /* Issue a system reset */
  if (!updi_reset(true) || !updi_reset(false)) return false;
     cb0:	98 e3       	ldi	r25, 0x38	; 56
     cb2:	51 da       	rcall	.-2910   	; 0x156 <UPDI::send_bytes(unsigned char*, unsigned char)>
     cb4:	88 23       	and	r24, r24
     cb6:	09 f4       	brne	.+2      	; 0xcba <__DATA_REGION_LENGTH__+0x4ba>
     cb8:	fc cd       	rjmp	.-1032   	; 0x8b2 <__DATA_REGION_LENGTH__+0xb2>
     cba:	88 e0       	ldi	r24, 0x08	; 8
     cbc:	19 dc       	rcall	.-1998   	; 0x4f0 <UPDI::loop_until_key_stat_is_set(unsigned char, unsigned int) [clone .constprop.20]>
chip_erase():
     cbe:	88 23       	and	r24, r24
     cc0:	09 f4       	brne	.+2      	; 0xcc4 <__DATA_REGION_LENGTH__+0x4c4>
     cc2:	f7 cd       	rjmp	.-1042   	; 0x8b2 <__DATA_REGION_LENGTH__+0xb2>
     cc4:	81 e0       	ldi	r24, 0x01	; 1
/Users/askn/Documents/Zinnia-tools/Products/hardware/UPDI4AVR/libraries/UPDI4AVR/examples/UPDI4AVR_FW634B/src/UPDI.cpp:535

  /* If LOCKSTATUS is clear, the chip is unlocked */
  loop_until_sys_stat_is_clear(UPDI_SYS_LOCKSTATUS);
     cc6:	20 db       	rcall	.-2496   	; 0x308 <UPDI::updi_reset(bool)>
     cc8:	88 23       	and	r24, r24
     cca:	09 f4       	brne	.+2      	; 0xcce <__DATA_REGION_LENGTH__+0x4ce>
     ccc:	f2 cd       	rjmp	.-1052   	; 0x8b2 <__DATA_REGION_LENGTH__+0xb2>
     cce:	80 e0       	ldi	r24, 0x00	; 0
     cd0:	1b db       	rcall	.-2506   	; 0x308 <UPDI::updi_reset(bool)>
/Users/askn/Documents/Zinnia-tools/Products/hardware/UPDI4AVR/libraries/UPDI4AVR/examples/UPDI4AVR_FW634B/src/UPDI.cpp:294
  send_bytes(set_ptr, sizeof(set_ptr));
  return RECV();
}

bool UPDI::is_cs_stat (uint8_t code, uint8_t check) {
  return check == (get_cs_stat(code) & check);
     cd2:	88 23       	and	r24, r24
     cd4:	09 f4       	brne	.+2      	; 0xcd8 <__DATA_REGION_LENGTH__+0x4d8>
     cd6:	ed cd       	rjmp	.-1062   	; 0x8b2 <__DATA_REGION_LENGTH__+0xb2>
/Users/askn/Documents/Zinnia-tools/Products/hardware/UPDI4AVR/libraries/UPDI4AVR/examples/UPDI4AVR_FW634B/src/UPDI.cpp:364
bool UPDI::loop_until_key_stat_is_clear (uint8_t bitmap, uint16_t limit) {
  #ifdef ENABLE_DEBUG_UPDI_SENDER
  uint16_t _back = _send_ptr;
  #endif
  do {
    if (!is_key_stat(bitmap)) return true;
     cd8:	70 e0       	ldi	r23, 0x00	; 0
/Users/askn/Library/Arduino15/packages/MultiX-Zinnia/hardware/UPDI4AVR/0.2.8/cores/megaAVR/api/delay_busywait.h:31
     cda:	60 e0       	ldi	r22, 0x00	; 0
     cdc:	81 e0       	ldi	r24, 0x01	; 1
     cde:	42 dc       	rcall	.-1916   	; 0x564 <UPDI::loop_until_sys_stat_is_clear(unsigned char, unsigned int)>
/Users/askn/Documents/Zinnia-tools/Products/hardware/UPDI4AVR/libraries/UPDI4AVR/examples/UPDI4AVR_FW634B/src/UPDI.cpp:369
    #ifdef ENABLE_DEBUG_UPDI_SENDER
    _send_ptr = _back;
    #endif
    TIM::delay_50us();
  } while (--limit);
     ce0:	10 e0       	ldi	r17, 0x00	; 0
     ce2:	00 e0       	ldi	r16, 0x00	; 0
is_cs_stat():
     ce4:	87 e0       	ldi	r24, 0x07	; 7
/Users/askn/Documents/Zinnia-tools/Products/hardware/UPDI4AVR/libraries/UPDI4AVR/examples/UPDI4AVR_FW634B/src/UPDI.cpp:541

  /* Make sure the CHER bit is cleared before next reset */
  loop_until_key_stat_is_clear(UPDI_KEY_CHIPERASE);

  /* Chip erasure was successful */
  bit_set(UPDI_CONTROL, UPDI_ERFM_bp);
     ce6:	8a da       	rcall	.-2796   	; 0x1fc <UPDI::get_cs_stat(unsigned char)>
loop_until_key_stat_is_clear():
/Users/askn/Documents/Zinnia-tools/Products/hardware/UPDI4AVR/libraries/UPDI4AVR/examples/UPDI4AVR_FW634B/src/UPDI.cpp:545

  /* Once the HV control and device is successfully unlocked, */
  /* you should be able to enter program mode. */
  if (!set_nvmprog_key()) return false;
     ce8:	83 ff       	sbrs	r24, 3
     cea:	07 c0       	rjmp	.+14     	; 0xcfa <__DATA_REGION_LENGTH__+0x4fa>
delay_micros():
     cec:	f6 ea       	ldi	r31, 0xA6	; 166
/Users/askn/Documents/Zinnia-tools/Products/hardware/UPDI4AVR/libraries/UPDI4AVR/examples/UPDI4AVR_FW634B/src/UPDI.cpp:546
  if (!updi_reset(true) || !updi_reset(false)) return false;
     cee:	fa 95       	dec	r31
     cf0:	f1 f7       	brne	.-4      	; 0xcee <__DATA_REGION_LENGTH__+0x4ee>
     cf2:	00 c0       	rjmp	.+0      	; 0xcf4 <__DATA_REGION_LENGTH__+0x4f4>
loop_until_key_stat_is_clear():
     cf4:	01 50       	subi	r16, 0x01	; 1
     cf6:	11 09       	sbc	r17, r1
     cf8:	a9 f7       	brne	.-22     	; 0xce4 <__DATA_REGION_LENGTH__+0x4e4>
chip_erase():
     cfa:	e2 9a       	sbi	0x1c, 2	; 28
     cfc:	11 dc       	rcall	.-2014   	; 0x520 <UPDI::set_nvmprog_key()>
     cfe:	88 23       	and	r24, r24
     d00:	09 f4       	brne	.+2      	; 0xd04 <__DATA_REGION_LENGTH__+0x504>
     d02:	d7 cd       	rjmp	.-1106   	; 0x8b2 <__DATA_REGION_LENGTH__+0xb2>
     d04:	81 e0       	ldi	r24, 0x01	; 1
/Users/askn/Documents/Zinnia-tools/Products/hardware/UPDI4AVR/libraries/UPDI4AVR/examples/UPDI4AVR_FW634B/src/UPDI.cpp:547
  loop_until_sys_stat_is_clear(UPDI_SYS_LOCKSTATUS);
     d06:	00 db       	rcall	.-2560   	; 0x308 <UPDI::updi_reset(bool)>
     d08:	88 23       	and	r24, r24
     d0a:	09 f4       	brne	.+2      	; 0xd0e <__DATA_REGION_LENGTH__+0x50e>
     d0c:	d2 cd       	rjmp	.-1116   	; 0x8b2 <__DATA_REGION_LENGTH__+0xb2>
/Users/askn/Documents/Zinnia-tools/Products/hardware/UPDI4AVR/libraries/UPDI4AVR/examples/UPDI4AVR_FW634B/src/UPDI.cpp:548
  loop_until_sys_stat_is_set(UPDI_SYS_NVMPROG);
     d0e:	80 e0       	ldi	r24, 0x00	; 0
     d10:	fb da       	rcall	.-2570   	; 0x308 <UPDI::updi_reset(bool)>
     d12:	88 23       	and	r24, r24
/Users/askn/Documents/Zinnia-tools/Products/hardware/UPDI4AVR/libraries/UPDI4AVR/examples/UPDI4AVR_FW634B/src/UPDI.cpp:551

  /* After performing HV control, it is necessary to obtain SIB */
  bit_clear(UPDI_CONTROL, UPDI_INFO_bp);
     d14:	09 f4       	brne	.+2      	; 0xd18 <__DATA_REGION_LENGTH__+0x518>
/Users/askn/Documents/Zinnia-tools/Products/hardware/UPDI4AVR/libraries/UPDI4AVR/examples/UPDI4AVR_FW634B/src/UPDI.cpp:552
  bit_set(UPDI_CONTROL, UPDI_PROG_bp);
     d16:	cd cd       	rjmp	.-1126   	; 0x8b2 <__DATA_REGION_LENGTH__+0xb2>
/Users/askn/Documents/Zinnia-tools/Products/hardware/UPDI4AVR/libraries/UPDI4AVR/examples/UPDI4AVR_FW634B/src/UPDI.cpp:553
  return enter_updi(true);
     d18:	70 e0       	ldi	r23, 0x00	; 0
     d1a:	60 e0       	ldi	r22, 0x00	; 0
     d1c:	81 e0       	ldi	r24, 0x01	; 1
     d1e:	22 dc       	rcall	.-1980   	; 0x564 <UPDI::loop_until_sys_stat_is_clear(unsigned char, unsigned int)>
/Users/askn/Documents/Zinnia-tools/Products/hardware/UPDI4AVR/libraries/UPDI4AVR/examples/UPDI4AVR_FW634B/src/UPDI.cpp:525

// __attribute__((optimize("O0")))
bool UPDI::chip_erase (void) {
  /* If UPDI is prohibited, try HV control */
  if (bit_is_clear(UPDI_CONTROL, UPDI_INFO_bp)) {
    HV_Pulse();
     d20:	88 e0       	ldi	r24, 0x08	; 8
     d22:	08 dc       	rcall	.-2032   	; 0x534 <UPDI::loop_until_sys_stat_is_set(unsigned char, unsigned int) [clone .constprop.23]>
     d24:	e0 98       	cbi	0x1c, 0	; 28
/Users/askn/Documents/Zinnia-tools/Products/hardware/UPDI4AVR/libraries/UPDI4AVR/examples/UPDI4AVR_FW634B/src/UPDI.cpp:737
          _result = chip_erase();
        }
        break;
      }
      case UPDI_CMD_GO : {
        _result = Target_Reset(true) && Target_Reset(false);
     d26:	e1 9a       	sbi	0x1c, 1	; 28
     d28:	81 e0       	ldi	r24, 0x01	; 1
     d2a:	72 dc       	rcall	.-1820   	; 0x610 <UPDI::enter_updi(bool)>
     d2c:	96 cd       	rjmp	.-1236   	; 0x85a <__DATA_REGION_LENGTH__+0x5a>
     d2e:	31 dc       	rcall	.-1950   	; 0x592 <UPDI::HV_Pulse()>
     d30:	bd cf       	rjmp	.-134    	; 0xcac <__DATA_REGION_LENGTH__+0x4ac>
_ZN4UPDI7runtimeEh():
     d32:	81 e0       	ldi	r24, 0x01	; 1
     d34:	ee da       	rcall	.-2596   	; 0x312 <UPDI::Target_Reset(bool)>
     d36:	88 23       	and	r24, r24
/Users/askn/Documents/Zinnia-tools/Products/hardware/UPDI4AVR/libraries/UPDI4AVR/examples/UPDI4AVR_FW634B/src/UPDI.cpp:695

/**********************
 * UPDI authorization *
 **********************/

bool UPDI::updi_activate (void) {
     d38:	09 f4       	brne	.+2      	; 0xd3c <__DATA_REGION_LENGTH__+0x53c>
     d3a:	8f cd       	rjmp	.-1250   	; 0x85a <__DATA_REGION_LENGTH__+0x5a>
     d3c:	80 e0       	ldi	r24, 0x00	; 0
     d3e:	e9 da       	rcall	.-2606   	; 0x312 <UPDI::Target_Reset(bool)>
/Users/askn/Documents/Zinnia-tools/Products/hardware/UPDI4AVR/libraries/UPDI4AVR/examples/UPDI4AVR_FW634B/src/UPDI.cpp:696
  volatile uint8_t count = 4;
     d40:	8c cd       	rjmp	.-1256   	; 0x85a <__DATA_REGION_LENGTH__+0x5a>

00000d42 <UPDI::updi_activate()>:
_ZN4UPDI13updi_activateEv():
/Users/askn/Documents/Zinnia-tools/Products/hardware/UPDI4AVR/libraries/UPDI4AVR/examples/UPDI4AVR_FW634B/src/UPDI.cpp:697
  while (--count && bit_is_clear(UPDI_CONTROL, UPDI_PROG_bp)) {
     d42:	cf 93       	push	r28
     d44:	df 93       	push	r29
     d46:	1f 92       	push	r1
     d48:	cd b7       	in	r28, 0x3d	; 61
     d4a:	de b7       	in	r29, 0x3e	; 62
     d4c:	84 e0       	ldi	r24, 0x04	; 4
     d4e:	89 83       	std	Y+1, r24	; 0x01
/Users/askn/Documents/Zinnia-tools/Products/hardware/UPDI4AVR/libraries/UPDI4AVR/examples/UPDI4AVR_FW634B/src/UPDI.cpp:708

    /* After the 2nd lap, forced HV control is allowed for JP short. */
    if (count < 2 && JTAG2::updi_desc.hvupdi_variant != '1' && !digitalRead(JP_SENSE_PIN))
      bit_set(UPDI_CONTROL, UPDI_FCHV_bp);
  }
  return bit_is_set(UPDI_CONTROL, UPDI_PROG_bp);
     d50:	89 81       	ldd	r24, Y+1	; 0x01
     d52:	81 50       	subi	r24, 0x01	; 1
     d54:	89 83       	std	Y+1, r24	; 0x01
/Users/askn/Documents/Zinnia-tools/Products/hardware/UPDI4AVR/libraries/UPDI4AVR/examples/UPDI4AVR_FW634B/src/UPDI.cpp:709
}
     d56:	88 23       	and	r24, r24
     d58:	11 f0       	breq	.+4      	; 0xd5e <UPDI::updi_activate()+0x1c>
     d5a:	e1 9b       	sbis	0x1c, 1	; 28
     d5c:	07 c0       	rjmp	.+14     	; 0xd6c <UPDI::updi_activate()+0x2a>
/Users/askn/Documents/Zinnia-tools/Products/hardware/UPDI4AVR/libraries/UPDI4AVR/examples/UPDI4AVR_FW634B/src/UPDI.cpp:698
 **********************/

bool UPDI::updi_activate (void) {
  volatile uint8_t count = 4;
  while (--count && bit_is_clear(UPDI_CONTROL, UPDI_PROG_bp)) {
    if (setjmp(TIM::CONTEXT) == 0) {
     d5e:	8c b3       	in	r24, 0x1c	; 28
     d60:	86 95       	lsr	r24
     d62:	81 70       	andi	r24, 0x01	; 1
     d64:	0f 90       	pop	r0
     d66:	df 91       	pop	r29
/Users/askn/Library/Arduino15/packages/MultiX-Zinnia/tools/avr-gcc/7.3.0-avr8-gnu-toolchain/avr/include/util/atomic.h:50
    return 1;
}

static __inline__ uint8_t __iCliRetVal(void)
{
    cli();
     d68:	cf 91       	pop	r28
/Users/askn/Documents/Zinnia-tools/Products/hardware/UPDI4AVR/libraries/UPDI4AVR/examples/UPDI4AVR_FW634B/src/TIM.cpp:107
 * Timeout control
 */

void TIM::Timeout_Start (uint16_t _ms) {
  ATOMIC_BLOCK(ATOMIC_RESTORESTATE) {
    TCB0_CNT = 0;
     d6a:	08 95       	ret
     d6c:	86 e4       	ldi	r24, 0x46	; 70
     d6e:	98 e3       	ldi	r25, 0x38	; 56
/Users/askn/Documents/Zinnia-tools/Products/hardware/UPDI4AVR/libraries/UPDI4AVR/examples/UPDI4AVR_FW634B/src/TIM.cpp:108
    TCB0_CCMP = _ms >> 2;
     d70:	ff d3       	rcall	.+2046   	; 0x1570 <setjmp>
     d72:	89 2b       	or	r24, r25
     d74:	31 f5       	brne	.+76     	; 0xdc2 <UPDI::updi_activate()+0x80>
Timeout_Start():
     d76:	8f b7       	in	r24, 0x3f	; 63
__iCliRetVal():
     d78:	f8 94       	cli
Timeout_Start():
     d7a:	ea e8       	ldi	r30, 0x8A	; 138
/Users/askn/Documents/Zinnia-tools/Products/hardware/UPDI4AVR/libraries/UPDI4AVR/examples/UPDI4AVR_FW634B/src/TIM.cpp:109
    TCB0_INTCTRL = TCB_CAPT_bm;
     d7c:	fa e0       	ldi	r31, 0x0A	; 10
     d7e:	10 82       	st	Z, r1
     d80:	11 82       	std	Z+1, r1	; 0x01
     d82:	2f e1       	ldi	r18, 0x1F	; 31
/Users/askn/Documents/Zinnia-tools/Products/hardware/UPDI4AVR/libraries/UPDI4AVR/examples/UPDI4AVR_FW634B/src/TIM.cpp:110
    TCB0_INTFLAGS = TCB_CAPT_bm;
     d84:	30 e0       	ldi	r19, 0x00	; 0
     d86:	ec e8       	ldi	r30, 0x8C	; 140
     d88:	fa e0       	ldi	r31, 0x0A	; 10
/Users/askn/Documents/Zinnia-tools/Products/hardware/UPDI4AVR/libraries/UPDI4AVR/examples/UPDI4AVR_FW634B/src/TIM.cpp:111
    TCB0_CTRLA = TCB_ENABLE_bm | TCB_CLKSEL_EVENT_gc;
     d8a:	20 83       	st	Z, r18
     d8c:	31 83       	std	Z+1, r19	; 0x01
     d8e:	21 e0       	ldi	r18, 0x01	; 1
     d90:	e5 e8       	ldi	r30, 0x85	; 133
/Users/askn/Library/Arduino15/packages/MultiX-Zinnia/tools/avr-gcc/7.3.0-avr8-gnu-toolchain/avr/include/util/atomic.h:70
    (void)__s;
}

static __inline__ void __iRestore(const  uint8_t *__s)
{
    SREG = *__s;
     d92:	fa e0       	ldi	r31, 0x0A	; 10
/Users/askn/Documents/Zinnia-tools/Products/hardware/UPDI4AVR/libraries/UPDI4AVR/examples/UPDI4AVR_FW634B/src/UPDI.cpp:700
      TIM::Timeout_Start(125);
      enter_updi(false) && enter_prog();
     d94:	20 83       	st	Z, r18
     d96:	e6 e8       	ldi	r30, 0x86	; 134
     d98:	fa e0       	ldi	r31, 0x0A	; 10
     d9a:	20 83       	st	Z, r18
     d9c:	2f e0       	ldi	r18, 0x0F	; 15
/Users/askn/Documents/Zinnia-tools/Products/hardware/UPDI4AVR/libraries/UPDI4AVR/examples/UPDI4AVR_FW634B/src/UPDI.cpp:674
/******************************
 * Programming control starts *
 ******************************/

bool UPDI::enter_prog (void) {
  if (bit_is_clear(UPDI_CONTROL, UPDI_PROG_bp)) {
     d9e:	e0 e8       	ldi	r30, 0x80	; 128
     da0:	fa e0       	ldi	r31, 0x0A	; 10
/Users/askn/Documents/Zinnia-tools/Products/hardware/UPDI4AVR/libraries/UPDI4AVR/examples/UPDI4AVR_FW634B/src/UPDI.cpp:675
    loop_until_sys_stat_is_clear(UPDI_SYS_RSTSYS);
     da2:	20 83       	st	Z, r18
__iRestore():
     da4:	8f bf       	out	0x3f, r24	; 63
_ZN4UPDI13updi_activateEv():
     da6:	80 e0       	ldi	r24, 0x00	; 0
     da8:	33 dc       	rcall	.-1946   	; 0x610 <UPDI::enter_updi(bool)>
     daa:	88 23       	and	r24, r24
/Users/askn/Documents/Zinnia-tools/Products/hardware/UPDI4AVR/libraries/UPDI4AVR/examples/UPDI4AVR_FW634B/src/UPDI.cpp:676
    if (!(UPDI_LASTL & UPDI_SYS_NVMPROG)) {
     dac:	51 f0       	breq	.+20     	; 0xdc2 <UPDI::updi_activate()+0x80>
enter_prog():
     dae:	e1 99       	sbic	0x1c, 1	; 28
/Users/askn/Documents/Zinnia-tools/Products/hardware/UPDI4AVR/libraries/UPDI4AVR/examples/UPDI4AVR_FW634B/src/UPDI.cpp:685
      }
      if (!updi_reset(true) || !updi_reset(false)) return false;
      loop_until_sys_stat_is_clear(UPDI_SYS_RSTSYS);
      loop_until_sys_stat_is_set(UPDI_SYS_NVMPROG);
    }
    bit_set(UPDI_CONTROL, UPDI_INFO_bp);
     db0:	08 c0       	rjmp	.+16     	; 0xdc2 <UPDI::updi_activate()+0x80>
/Users/askn/Documents/Zinnia-tools/Products/hardware/UPDI4AVR/libraries/UPDI4AVR/examples/UPDI4AVR_FW634B/src/UPDI.cpp:686
    bit_set(UPDI_CONTROL, UPDI_PROG_bp);
     db2:	70 e0       	ldi	r23, 0x00	; 0
/Users/askn/Documents/Zinnia-tools/Products/hardware/UPDI4AVR/libraries/UPDI4AVR/examples/UPDI4AVR_FW634B/src/UPDI.cpp:702
  while (--count && bit_is_clear(UPDI_CONTROL, UPDI_PROG_bp)) {
    if (setjmp(TIM::CONTEXT) == 0) {
      TIM::Timeout_Start(125);
      enter_updi(false) && enter_prog();
    }
    TIM::Timeout_Stop();
     db4:	60 e0       	ldi	r22, 0x00	; 0
/Users/askn/Documents/Zinnia-tools/Products/hardware/UPDI4AVR/libraries/UPDI4AVR/examples/UPDI4AVR_FW634B/src/UPDI.cpp:705

    /* After the 2nd lap, forced HV control is allowed for JP short. */
    if (count < 2 && JTAG2::updi_desc.hvupdi_variant != '1' && !digitalRead(JP_SENSE_PIN))
     db6:	80 e2       	ldi	r24, 0x20	; 32
     db8:	d5 db       	rcall	.-2134   	; 0x564 <UPDI::loop_until_sys_stat_is_clear(unsigned char, unsigned int)>
     dba:	f3 9b       	sbis	0x1e, 3	; 30
     dbc:	10 c0       	rjmp	.+32     	; 0xdde <UPDI::updi_activate()+0x9c>
     dbe:	e0 9a       	sbi	0x1c, 0	; 28
     dc0:	e1 9a       	sbi	0x1c, 1	; 28
_ZN4UPDI13updi_activateEv():
     dc2:	cc da       	rcall	.-2664   	; 0x35c <TIM::Timeout_Stop()>
     dc4:	89 81       	ldd	r24, Y+1	; 0x01
     dc6:	82 30       	cpi	r24, 0x02	; 2
     dc8:	08 f0       	brcs	.+2      	; 0xdcc <UPDI::updi_activate()+0x8a>
/Users/askn/Documents/Zinnia-tools/Products/hardware/UPDI4AVR/libraries/UPDI4AVR/examples/UPDI4AVR_FW634B/src/UPDI.cpp:706
      bit_set(UPDI_CONTROL, UPDI_FCHV_bp);
     dca:	c2 cf       	rjmp	.-124    	; 0xd50 <UPDI::updi_activate()+0xe>
     dcc:	80 91 64 38 	lds	r24, 0x3864	; 0x803864 <JTAG2::updi_desc+0x2>
/Users/askn/Documents/Zinnia-tools/Products/hardware/UPDI4AVR/libraries/UPDI4AVR/examples/UPDI4AVR_FW634B/src/UPDI.cpp:677

bool UPDI::enter_prog (void) {
  if (bit_is_clear(UPDI_CONTROL, UPDI_PROG_bp)) {
    loop_until_sys_stat_is_clear(UPDI_SYS_RSTSYS);
    if (!(UPDI_LASTL & UPDI_SYS_NVMPROG)) {
      if (UPDI_LASTL & UPDI_SYS_LOCKSTATUS) return false;
     dd0:	81 33       	cpi	r24, 0x31	; 49
/Users/askn/Documents/Zinnia-tools/Products/hardware/UPDI4AVR/libraries/UPDI4AVR/examples/UPDI4AVR_FW634B/src/UPDI.cpp:294
  send_bytes(set_ptr, sizeof(set_ptr));
  return RECV();
}

bool UPDI::is_cs_stat (uint8_t code, uint8_t check) {
  return check == (get_cs_stat(code) & check);
     dd2:	09 f4       	brne	.+2      	; 0xdd6 <UPDI::updi_activate()+0x94>
     dd4:	bd cf       	rjmp	.-134    	; 0xd50 <UPDI::updi_activate()+0xe>
     dd6:	53 99       	sbic	0x0a, 3	; 10
/Users/askn/Documents/Zinnia-tools/Products/hardware/UPDI4AVR/libraries/UPDI4AVR/examples/UPDI4AVR_FW634B/src/UPDI.cpp:678
bool UPDI::enter_prog (void) {
  if (bit_is_clear(UPDI_CONTROL, UPDI_PROG_bp)) {
    loop_until_sys_stat_is_clear(UPDI_SYS_RSTSYS);
    if (!(UPDI_LASTL & UPDI_SYS_NVMPROG)) {
      if (UPDI_LASTL & UPDI_SYS_LOCKSTATUS) return false;
      if (!is_key_stat(UPDI_KEY_NVMPROG)) {
     dd8:	bb cf       	rjmp	.-138    	; 0xd50 <UPDI::updi_activate()+0xe>
     dda:	e4 9a       	sbi	0x1c, 4	; 28
/Users/askn/Documents/Zinnia-tools/Products/hardware/UPDI4AVR/libraries/UPDI4AVR/examples/UPDI4AVR_FW634B/src/UPDI.cpp:681
        if (!set_nvmprog_key()) return false;
      }
      if (!updi_reset(true) || !updi_reset(false)) return false;
     ddc:	b9 cf       	rjmp	.-142    	; 0xd50 <UPDI::updi_activate()+0xe>
enter_prog():
     dde:	f0 99       	sbic	0x1e, 0	; 30
     de0:	f0 cf       	rjmp	.-32     	; 0xdc2 <UPDI::updi_activate()+0x80>
is_cs_stat():
     de2:	87 e0       	ldi	r24, 0x07	; 7
     de4:	0b da       	rcall	.-3050   	; 0x1fc <UPDI::get_cs_stat(unsigned char)>
enter_prog():
     de6:	84 ff       	sbrs	r24, 4
     de8:	0f c0       	rjmp	.+30     	; 0xe08 <UPDI::updi_activate()+0xc6>
     dea:	81 e0       	ldi	r24, 0x01	; 1
     dec:	8d da       	rcall	.-2790   	; 0x308 <UPDI::updi_reset(bool)>
     dee:	88 23       	and	r24, r24
/Users/askn/Documents/Zinnia-tools/Products/hardware/UPDI4AVR/libraries/UPDI4AVR/examples/UPDI4AVR_FW634B/src/UPDI.cpp:682
      loop_until_sys_stat_is_clear(UPDI_SYS_RSTSYS);
     df0:	41 f3       	breq	.-48     	; 0xdc2 <UPDI::updi_activate()+0x80>
     df2:	80 e0       	ldi	r24, 0x00	; 0
     df4:	89 da       	rcall	.-2798   	; 0x308 <UPDI::updi_reset(bool)>
     df6:	88 23       	and	r24, r24
     df8:	21 f3       	breq	.-56     	; 0xdc2 <UPDI::updi_activate()+0x80>
/Users/askn/Documents/Zinnia-tools/Products/hardware/UPDI4AVR/libraries/UPDI4AVR/examples/UPDI4AVR_FW634B/src/UPDI.cpp:683
      loop_until_sys_stat_is_set(UPDI_SYS_NVMPROG);
     dfa:	70 e0       	ldi	r23, 0x00	; 0
     dfc:	60 e0       	ldi	r22, 0x00	; 0
     dfe:	80 e2       	ldi	r24, 0x20	; 32
     e00:	b1 db       	rcall	.-2206   	; 0x564 <UPDI::loop_until_sys_stat_is_clear(unsigned char, unsigned int)>
/Users/askn/Documents/Zinnia-tools/Products/hardware/UPDI4AVR/libraries/UPDI4AVR/examples/UPDI4AVR_FW634B/src/UPDI.cpp:679
  if (bit_is_clear(UPDI_CONTROL, UPDI_PROG_bp)) {
    loop_until_sys_stat_is_clear(UPDI_SYS_RSTSYS);
    if (!(UPDI_LASTL & UPDI_SYS_NVMPROG)) {
      if (UPDI_LASTL & UPDI_SYS_LOCKSTATUS) return false;
      if (!is_key_stat(UPDI_KEY_NVMPROG)) {
        if (!set_nvmprog_key()) return false;
     e02:	88 e0       	ldi	r24, 0x08	; 8
     e04:	97 db       	rcall	.-2258   	; 0x534 <UPDI::loop_until_sys_stat_is_set(unsigned char, unsigned int) [clone .constprop.23]>
     e06:	db cf       	rjmp	.-74     	; 0xdbe <UPDI::updi_activate()+0x7c>
     e08:	8b db       	rcall	.-2282   	; 0x520 <UPDI::set_nvmprog_key()>
     e0a:	81 11       	cpse	r24, r1
/Users/askn/Documents/Zinnia-tools/Products/hardware/UPDI4AVR/libraries/UPDI4AVR/examples/UPDI4AVR_FW634B/src/TIM.cpp:261
ISR(TCB0_INT_vect, ISR_NAKED) {
  /***
    This interrupt is a global escape due to timeout.
    There is no return to the source of the interrupt.
  ***/
  __asm__ __volatile__ ("EOR R1,R1");
     e0c:	ee cf       	rjmp	.-36     	; 0xdea <UPDI::updi_activate()+0xa8>
/Users/askn/Documents/Zinnia-tools/Products/hardware/UPDI4AVR/libraries/UPDI4AVR/examples/UPDI4AVR_FW634B/src/TIM.cpp:262
  TCB0_CTRLA = 0;
     e0e:	d9 cf       	rjmp	.-78     	; 0xdc2 <UPDI::updi_activate()+0x80>

00000e10 <__vector_13>:
__vector_13():
     e10:	11 24       	eor	r1, r1
/Users/askn/Documents/Zinnia-tools/Products/hardware/UPDI4AVR/libraries/UPDI4AVR/examples/UPDI4AVR_FW634B/src/TIM.cpp:263
  TCB0_INTFLAGS = TCB_CAPT_bm;
     e12:	10 92 80 0a 	sts	0x0A80, r1	; 0x800a80 <__RODATA_PM_OFFSET__+0x7f8a80>
     e16:	81 e0       	ldi	r24, 0x01	; 1
/Users/askn/Documents/Zinnia-tools/Products/hardware/UPDI4AVR/libraries/UPDI4AVR/examples/UPDI4AVR_FW634B/src/TIM.cpp:264
  longjmp(TIM::CONTEXT, 2);
     e18:	80 93 86 0a 	sts	0x0A86, r24	; 0x800a86 <__RODATA_PM_OFFSET__+0x7f8a86>
     e1c:	62 e0       	ldi	r22, 0x02	; 2
     e1e:	70 e0       	ldi	r23, 0x00	; 0
     e20:	86 e4       	ldi	r24, 0x46	; 70
     e22:	98 e3       	ldi	r25, 0x38	; 56
/Users/askn/Documents/Zinnia-tools/Products/hardware/UPDI4AVR/libraries/UPDI4AVR/examples/UPDI4AVR_FW634B/src/TIM.cpp:232

/*
 * RTS monitoring upper and lower end interrupts
 */

ISR(portIntrruptVector(RTS_SENSE_PIN)) {
     e24:	c5 d3       	rcall	.+1930   	; 0x15b0 <longjmp>

00000e26 <__vector_6>:
__vector_6():
     e26:	1f 92       	push	r1
     e28:	0f 92       	push	r0
     e2a:	0f b6       	in	r0, 0x3f	; 63
     e2c:	0f 92       	push	r0
     e2e:	11 24       	eor	r1, r1
     e30:	2f 93       	push	r18
     e32:	3f 93       	push	r19
     e34:	4f 93       	push	r20
     e36:	5f 93       	push	r21
     e38:	6f 93       	push	r22
     e3a:	7f 93       	push	r23
     e3c:	8f 93       	push	r24
     e3e:	9f 93       	push	r25
     e40:	af 93       	push	r26
     e42:	bf 93       	push	r27
     e44:	ef 93       	push	r30
/Users/askn/Documents/Zinnia-tools/Products/hardware/UPDI4AVR/libraries/UPDI4AVR/examples/UPDI4AVR_FW634B/src/TIM.cpp:241
    the timeout limit, the system will be reset. Typically this is the
    signal that starts the Arduino bootloader. Therefore, the time limit
    is set to approximately 250ms.
  ***/

  wdt_reset();
     e46:	ff 93       	push	r31
/Users/askn/Documents/Zinnia-tools/Products/hardware/UPDI4AVR/libraries/UPDI4AVR/examples/UPDI4AVR_FW634B/src/SYS.cpp:168

void SYS::WDT_OFF (void) { WDT_SET(WDT_PERIOD_OFF_gc); }

void SYS::WDT_ON (void) { WDT_SET(WDT_PERIOD_8KCLK_gc); }

void SYS::WDT_Short (void) { WDT_SET(WDT_PERIOD_256CLK_gc); }
     e48:	a8 95       	wdr
WDT_Short():
     e4a:	86 e0       	ldi	r24, 0x06	; 6
     e4c:	91 da       	rcall	.-2782   	; 0x370 <SYS::WDT_SET(unsigned char)>
RTS_Disable():
/Users/askn/Documents/Zinnia-tools/Products/hardware/UPDI4AVR/libraries/UPDI4AVR/examples/UPDI4AVR_FW634B/src/SYS.cpp:108
void SYS::RTS_Enable (void) {
  pinControlRegister(RTS_SENSE_PIN) = RTS_SENSE_CONFIG;
}

void SYS::RTS_Disable (void) {
  pinControlRegister(RTS_SENSE_PIN) = RTS_SENSE_DISABLE;
     e4e:	88 e0       	ldi	r24, 0x08	; 8
     e50:	80 93 12 04 	sts	0x0412, r24	; 0x800412 <__RODATA_PM_OFFSET__+0x7f8412>
__vector_6():
/Users/askn/Documents/Zinnia-tools/Products/hardware/UPDI4AVR/libraries/UPDI4AVR/examples/UPDI4AVR_FW634B/src/TIM.cpp:245
  SYS::WDT_Short();
  SYS::RTS_Disable();
  portRegister(RTS_SENSE_PIN).INTFLAGS =
  portRegister(RTS_SENSE_PIN).INTFLAGS;
     e54:	e0 e0       	ldi	r30, 0x00	; 0
     e56:	f4 e0       	ldi	r31, 0x04	; 4
     e58:	81 85       	ldd	r24, Z+9	; 0x09
/Users/askn/Documents/Zinnia-tools/Products/hardware/UPDI4AVR/libraries/UPDI4AVR/examples/UPDI4AVR_FW634B/src/TIM.cpp:244
  ***/

  wdt_reset();
  SYS::WDT_Short();
  SYS::RTS_Disable();
  portRegister(RTS_SENSE_PIN).INTFLAGS =
     e5a:	81 87       	std	Z+9, r24	; 0x09
PG_Enable():
/Users/askn/Documents/Zinnia-tools/Products/hardware/UPDI4AVR/libraries/UPDI4AVR/examples/UPDI4AVR_FW634B/src/SYS.cpp:96
/******************
 * Various ON/OFF *
 ******************/

void SYS::PG_Enable (void) {
  digitalWrite(PGEN_PIN, HIGH);
     e5c:	48 9a       	sbi	0x09, 0	; 9
__vector_6():
/Users/askn/Documents/Zinnia-tools/Products/hardware/UPDI4AVR/libraries/UPDI4AVR/examples/UPDI4AVR_FW634B/src/TIM.cpp:247
  portRegister(RTS_SENSE_PIN).INTFLAGS;
  SYS::PG_Enable();
  TIM::LED_Flash();
     e5e:	66 da       	rcall	.-2868   	; 0x32c <TIM::LED_Flash()>
     e60:	81 e0       	ldi	r24, 0x01	; 1
/Users/askn/Documents/Zinnia-tools/Products/hardware/UPDI4AVR/libraries/UPDI4AVR/examples/UPDI4AVR_FW634B/src/TIM.cpp:248
  UPDI::Target_Reset(true);
     e62:	57 da       	rcall	.-2898   	; 0x312 <UPDI::Target_Reset(bool)>
     e64:	21 9a       	sbi	0x04, 1	; 4
     e66:	ff 91       	pop	r31
/Users/askn/Documents/Zinnia-tools/Products/hardware/UPDI4AVR/libraries/UPDI4AVR/examples/UPDI4AVR_FW634B/src/TIM.cpp:249
  openDrainWrite(TRST_PIN, LOW);
     e68:	ef 91       	pop	r30
/Users/askn/Documents/Zinnia-tools/Products/hardware/UPDI4AVR/libraries/UPDI4AVR/examples/UPDI4AVR_FW634B/src/TIM.cpp:250
}
     e6a:	bf 91       	pop	r27
     e6c:	af 91       	pop	r26
     e6e:	9f 91       	pop	r25
     e70:	8f 91       	pop	r24
     e72:	7f 91       	pop	r23
     e74:	6f 91       	pop	r22
     e76:	5f 91       	pop	r21
     e78:	4f 91       	pop	r20
     e7a:	3f 91       	pop	r19
     e7c:	2f 91       	pop	r18
     e7e:	0f 90       	pop	r0
     e80:	0f be       	out	0x3f, r0	; 63
     e82:	0f 90       	pop	r0
     e84:	1f 90       	pop	r1
     e86:	18 95       	reti

00000e88 <__vector_7>:
__vector_7():
     e88:	a8 95       	wdr
WDT_Short():
     e8a:	86 e0       	ldi	r24, 0x06	; 6
/Users/askn/Documents/Zinnia-tools/Products/hardware/UPDI4AVR/libraries/UPDI4AVR/examples/UPDI4AVR_FW634B/src/TIM.cpp:213
    This interrupt keeps the target device in reset as long as
    the low level signal continues. Since the interrupt exits
    with a system reset, it does not return to main operation.
  ***/

  wdt_reset();
     e8c:	71 da       	rcall	.-2846   	; 0x370 <SYS::WDT_SET(unsigned char)>
__vector_7():
/Users/askn/Documents/Zinnia-tools/Products/hardware/UPDI4AVR/libraries/UPDI4AVR/examples/UPDI4AVR_FW634B/src/SYS.cpp:168

void SYS::WDT_OFF (void) { WDT_SET(WDT_PERIOD_OFF_gc); }

void SYS::WDT_ON (void) { WDT_SET(WDT_PERIOD_8KCLK_gc); }

void SYS::WDT_Short (void) { WDT_SET(WDT_PERIOD_256CLK_gc); }
     e8e:	4e da       	rcall	.-2916   	; 0x32c <TIM::LED_Flash()>
     e90:	81 e0       	ldi	r24, 0x01	; 1
     e92:	3f da       	rcall	.-2946   	; 0x312 <UPDI::Target_Reset(bool)>
/Users/askn/Documents/Zinnia-tools/Products/hardware/UPDI4AVR/libraries/UPDI4AVR/examples/UPDI4AVR_FW634B/src/TIM.cpp:215
  SYS::WDT_Short();
  TIM::LED_Flash();
     e94:	88 e0       	ldi	r24, 0x08	; 8
     e96:	80 93 06 08 	sts	0x0806, r24	; 0x800806 <__RODATA_PM_OFFSET__+0x7f8806>
delay_micros():
/Users/askn/Documents/Zinnia-tools/Products/hardware/UPDI4AVR/libraries/UPDI4AVR/examples/UPDI4AVR_FW634B/src/TIM.cpp:216
  UPDI::Target_Reset(true);
     e9a:	8f ec       	ldi	r24, 0xCF	; 207
     e9c:	97 e0       	ldi	r25, 0x07	; 7
/Users/askn/Documents/Zinnia-tools/Products/hardware/UPDI4AVR/libraries/UPDI4AVR/examples/UPDI4AVR_FW634B/src/TIM.cpp:217
  UPDI_USART.CTRLB = UPDI_USART_OFF;
     e9e:	01 97       	sbiw	r24, 0x01	; 1
     ea0:	f1 f7       	brne	.-4      	; 0xe9e <__vector_7+0x16>
     ea2:	00 c0       	rjmp	.+0      	; 0xea4 <__vector_7+0x1c>
/Users/askn/Library/Arduino15/packages/MultiX-Zinnia/hardware/UPDI4AVR/0.2.8/cores/megaAVR/api/delay_busywait.h:31
     ea4:	00 00       	nop
__vector_7():
     ea6:	01 9a       	sbi	0x00, 1	; 0
     ea8:	10 92 11 04 	sts	0x0411, r1	; 0x800411 <__RODATA_PM_OFFSET__+0x7f8411>
     eac:	09 98       	cbi	0x01, 1	; 1
     eae:	21 9a       	sbi	0x04, 1	; 4
LED_TCB1():
/Users/askn/Documents/Zinnia-tools/Products/hardware/UPDI4AVR/libraries/UPDI4AVR/examples/UPDI4AVR_FW634B/src/TIM.cpp:219
  delay_micros(800);
  pinMode(UPDI_TDAT_PIN, OUTPUT);
     eb0:	80 91 61 38 	lds	r24, 0x3861	; 0x803861 <TIM::mode>
     eb4:	83 30       	cpi	r24, 0x03	; 3
/Users/askn/Documents/Zinnia-tools/Products/hardware/UPDI4AVR/libraries/UPDI4AVR/examples/UPDI4AVR_FW634B/src/TIM.cpp:220
  digitalWrite(UPDI_TDAT_PIN, LOW);
     eb6:	99 f0       	breq	.+38     	; 0xede <__vector_7+0x56>
/Users/askn/Documents/Zinnia-tools/Products/hardware/UPDI4AVR/libraries/UPDI4AVR/examples/UPDI4AVR_FW634B/src/TIM.cpp:221
  openDrainWrite(TRST_PIN, LOW);
     eb8:	83 e0       	ldi	r24, 0x03	; 3
/Users/askn/Documents/Zinnia-tools/Products/hardware/UPDI4AVR/libraries/UPDI4AVR/examples/UPDI4AVR_FW634B/src/TIM.cpp:139
    LEDG_EVOUT = EVSYS_USER_CHANNEL2_gc;
  }
}

void LED_TCB1 (uint8_t mode, uint16_t ccmp) {
  if (TIM::mode != mode) {
     eba:	80 93 61 38 	sts	0x3861, r24	; 0x803861 <TIM::mode>
     ebe:	89 ea       	ldi	r24, 0xA9	; 169
     ec0:	95 e5       	ldi	r25, 0x55	; 85
/Users/askn/Documents/Zinnia-tools/Products/hardware/UPDI4AVR/libraries/UPDI4AVR/examples/UPDI4AVR_FW634B/src/TIM.cpp:140
    TIM::mode = mode;
     ec2:	80 93 9c 0a 	sts	0x0A9C, r24	; 0x800a9c <__RODATA_PM_OFFSET__+0x7f8a9c>
     ec6:	90 93 9d 0a 	sts	0x0A9D, r25	; 0x800a9d <__RODATA_PM_OFFSET__+0x7f8a9d>
/Users/askn/Documents/Zinnia-tools/Products/hardware/UPDI4AVR/libraries/UPDI4AVR/examples/UPDI4AVR_FW634B/src/TIM.cpp:141
    TCB1_CCMP = ccmp;
     eca:	10 92 9a 0a 	sts	0x0A9A, r1	; 0x800a9a <__RODATA_PM_OFFSET__+0x7f8a9a>
     ece:	10 92 9b 0a 	sts	0x0A9B, r1	; 0x800a9b <__RODATA_PM_OFFSET__+0x7f8a9b>
     ed2:	8f e4       	ldi	r24, 0x4F	; 79
/Users/askn/Documents/Zinnia-tools/Products/hardware/UPDI4AVR/libraries/UPDI4AVR/examples/UPDI4AVR_FW634B/src/TIM.cpp:142
    TCB1_CNT = 0;
     ed4:	80 93 90 0a 	sts	0x0A90, r24	; 0x800a90 <__RODATA_PM_OFFSET__+0x7f8a90>
     ed8:	81 e0       	ldi	r24, 0x01	; 1
     eda:	80 93 a9 01 	sts	0x01A9, r24	; 0x8001a9 <__RODATA_PM_OFFSET__+0x7f81a9>
WDT_OFF():
/Users/askn/Documents/Zinnia-tools/Products/hardware/UPDI4AVR/libraries/UPDI4AVR/examples/UPDI4AVR_FW634B/src/TIM.cpp:143
    TCB1_CTRLA = TCB_RUNSTDBY_bm | TCB_ENABLE_bm | TCB_CLKSEL_EVENT_gc;
     ede:	80 e0       	ldi	r24, 0x00	; 0
     ee0:	47 da       	rcall	.-2930   	; 0x370 <SYS::WDT_SET(unsigned char)>
__vector_7():
/Users/askn/Documents/Zinnia-tools/Products/hardware/UPDI4AVR/libraries/UPDI4AVR/examples/UPDI4AVR_FW634B/src/TIM.cpp:144
    LEDG_EVOUT = EVSYS_USER_CHANNEL0_gc;
     ee2:	30 9b       	sbis	0x06, 0	; 6
     ee4:	fe cf       	rjmp	.-4      	; 0xee2 <__vector_7+0x5a>
WDT_REBOOT():
     ee6:	81 e0       	ldi	r24, 0x01	; 1
/Users/askn/Documents/Zinnia-tools/Products/hardware/UPDI4AVR/libraries/UPDI4AVR/examples/UPDI4AVR_FW634B/src/SYS.cpp:164
void SYS::WDT_SET (uint8_t _wdt_period) {
  loop_until_bit_is_clear(WDT_STATUS, WDT_SYNCBUSY_bp);
  _PROTECTED_WRITE(WDT_CTRLA, _wdt_period);
}

void SYS::WDT_OFF (void) { WDT_SET(WDT_PERIOD_OFF_gc); }
     ee8:	43 da       	rcall	.-2938   	; 0x370 <SYS::WDT_SET(unsigned char)>
     eea:	ff cf       	rjmp	.-2      	; 0xeea <__vector_7+0x62>

00000eec <main>:
main():
     eec:	cf 93       	push	r28
/Users/askn/Documents/Zinnia-tools/Products/hardware/UPDI4AVR/libraries/UPDI4AVR/examples/UPDI4AVR_FW634B/src/TIM.cpp:224
  pinMode(UPDI_TDAT_PIN, OUTPUT);
  digitalWrite(UPDI_TDAT_PIN, LOW);
  openDrainWrite(TRST_PIN, LOW);
  TIM::LED_Blink();
  SYS::WDT_OFF();
  while (!digitalRead(SW_SENSE_PIN));
     eee:	df 93       	push	r29
     ef0:	00 d0       	rcall	.+0      	; 0xef2 <main+0x6>
/Users/askn/Documents/Zinnia-tools/Products/hardware/UPDI4AVR/libraries/UPDI4AVR/examples/UPDI4AVR_FW634B/src/SYS.cpp:173
void SYS::WDT_Short (void) { WDT_SET(WDT_PERIOD_256CLK_gc); }

void SYS::WDT_Long (void) { WDT_SET(WDT_PERIOD_512CLK_gc); }

void SYS::WDT_REBOOT (void) {
  WDT_SET(WDT_PERIOD_8CLK_gc);
     ef2:	cd b7       	in	r28, 0x3d	; 61
     ef4:	de b7       	in	r29, 0x3e	; 62
     ef6:	f8 94       	cli
initVariant():
     ef8:	24 e0       	ldi	r18, 0x04	; 4
/Users/askn/Library/Arduino15/packages/MultiX-Zinnia/hardware/UPDI4AVR/0.2.8/variants/tinyAVR2_20/variant.h:281
    "   DEC  R24     \n"
    "   BRNE 2b        " /* 3 loop PORTA to PORTC */
    : : "z" ((register8_t*)&PORTA_PIN0CTRL),
        "r" ((uint8_t)PORT_ISC_INPUT_DISABLE_gc)
      : "r24", "r25"
  );
     efa:	e0 e1       	ldi	r30, 0x10	; 16
     efc:	f4 e0       	ldi	r31, 0x04	; 4
     efe:	83 e0       	ldi	r24, 0x03	; 3
     f00:	98 e0       	ldi	r25, 0x08	; 8
     f02:	21 93       	st	Z+, r18
     f04:	9a 95       	dec	r25
     f06:	e9 f7       	brne	.-6      	; 0xf02 <main+0x16>
     f08:	78 96       	adiw	r30, 0x18	; 24
     f0a:	8a 95       	dec	r24
     f0c:	c9 f7       	brne	.-14     	; 0xf00 <main+0x14>
_CLKCTRL_SETUP():
/Users/askn/Library/Arduino15/packages/MultiX-Zinnia/hardware/UPDI4AVR/0.2.8/cores/megaAVR/api/CLKCTRL_megaAVR.h:127
  // _PROTECTED_WRITE(CLKCTRL.MCLKCTRLA, CLKCTRL_CLKSEL_OSC20M_gc);

#else

  #if defined(_CLKCTRL_PDIV_)
  _PROTECTED_WRITE(CLKCTRL_MCLKCTRLB, _CLKCTRL_PDIV_ | CLKCTRL_PEN_bm);
     f0e:	88 ed       	ldi	r24, 0xD8	; 216
     f10:	41 e0       	ldi	r20, 0x01	; 1
     f12:	50 e0       	ldi	r21, 0x00	; 0
     f14:	84 bf       	out	0x34, r24	; 52
     f16:	40 93 61 00 	sts	0x0061, r20	; 0x800061 <__RODATA_PM_OFFSET__+0x7f8061>
setup():
/Users/askn/Documents/Zinnia-tools/Products/hardware/UPDI4AVR/libraries/UPDI4AVR/examples/UPDI4AVR_FW634B/src/SYS.cpp:17
#include <avr/io.h>

void SYS::setup (void) {

  /* Target reset release */
  pinControlRegister(TRST_PIN) = TRST_PIN_CONFIG;
     f1a:	8c e0       	ldi	r24, 0x0C	; 12
     f1c:	80 93 31 04 	sts	0x0431, r24	; 0x800431 <__RODATA_PM_OFFSET__+0x7f8431>
/Users/askn/Documents/Zinnia-tools/Products/hardware/UPDI4AVR/libraries/UPDI4AVR/examples/UPDI4AVR_FW634B/src/SYS.cpp:20

  /* Outgoing port */
  PORTA_DIRSET = _BV(pinPosition(HVP1_PIN))
     f20:	88 ef       	ldi	r24, 0xF8	; 248
     f22:	80 93 01 04 	sts	0x0401, r24	; 0x800401 <__RODATA_PM_OFFSET__+0x7f8401>
/Users/askn/Documents/Zinnia-tools/Products/hardware/UPDI4AVR/libraries/UPDI4AVR/examples/UPDI4AVR_FW634B/src/SYS.cpp:25
               | _BV(pinPosition(HVP2_PIN))
               | _BV(pinPosition(HV12_PIN))
               | _BV(pinPosition(LEDG_PIN))
               | _BV(pinPosition(LEDY_PIN));
  PORTB_DIRSET = _BV(pinPosition(HV8_PIN));
     f26:	80 e2       	ldi	r24, 0x20	; 32
     f28:	80 93 21 04 	sts	0x0421, r24	; 0x800421 <__RODATA_PM_OFFSET__+0x7f8421>
/Users/askn/Documents/Zinnia-tools/Products/hardware/UPDI4AVR/libraries/UPDI4AVR/examples/UPDI4AVR_FW634B/src/SYS.cpp:28

  /* USART switching LOW=Target opening (PG_Disable) */
  PORTC_DIRSET = _BV(pinPosition(PGEN_PIN));
     f2c:	81 e0       	ldi	r24, 0x01	; 1
     f2e:	80 93 41 04 	sts	0x0441, r24	; 0x800441 <__RODATA_PM_OFFSET__+0x7f8441>
/Users/askn/Documents/Zinnia-tools/Products/hardware/UPDI4AVR/libraries/UPDI4AVR/examples/UPDI4AVR_FW634B/src/SYS.cpp:31

  /* LED output */
  LEDG_EVOUT_MUX = LEDG_EVOUT_ALT;          /* OUT:PA7 */
     f32:	80 93 e0 05 	sts	0x05E0, r24	; 0x8005e0 <__RODATA_PM_OFFSET__+0x7f85e0>
/Users/askn/Documents/Zinnia-tools/Products/hardware/UPDI4AVR/libraries/UPDI4AVR/examples/UPDI4AVR_FW634B/src/SYS.cpp:32
  PORTMUX_CCLROUTEA = PORTMUX_LUT3_ALT1_gc; /* OUT:PA5 IN:PC0,PC1,PC2 */
     f36:	98 e0       	ldi	r25, 0x08	; 8
     f38:	90 93 e1 05 	sts	0x05E1, r25	; 0x8005e1 <__RODATA_PM_OFFSET__+0x7f85e1>
/Users/askn/Documents/Zinnia-tools/Products/hardware/UPDI4AVR/libraries/UPDI4AVR/examples/UPDI4AVR_FW634B/src/SYS.cpp:33
  PORTA_OUTSET = _BV(pinPosition(LEDG_PIN))
     f3c:	30 ea       	ldi	r19, 0xA0	; 160
     f3e:	30 93 05 04 	sts	0x0405, r19	; 0x800405 <__RODATA_PM_OFFSET__+0x7f8405>
/Users/askn/Documents/Zinnia-tools/Products/hardware/UPDI4AVR/libraries/UPDI4AVR/examples/UPDI4AVR_FW634B/src/SYS.cpp:37
               | _BV(pinPosition(LEDY_PIN));

  /* USART Alternative Selection */
  PORTMUX_USARTROUTEA = JTAG_PMUX_ALT | UPDI_PMUX_ALT;
     f42:	45 e0       	ldi	r20, 0x05	; 5
     f44:	40 93 e2 05 	sts	0x05E2, r20	; 0x8005e2 <__RODATA_PM_OFFSET__+0x7f85e2>
/Users/askn/Documents/Zinnia-tools/Products/hardware/UPDI4AVR/libraries/UPDI4AVR/examples/UPDI4AVR_FW634B/src/SYS.cpp:40

  /* JTAG port */
  pinControlRegister(JTAG_TXD_PIN) = JTAG_TXD_CONFIG;
     f48:	90 93 52 04 	sts	0x0452, r25	; 0x800452 <__RODATA_PM_OFFSET__+0x7f8452>
/Users/askn/Documents/Zinnia-tools/Products/hardware/UPDI4AVR/libraries/UPDI4AVR/examples/UPDI4AVR_FW634B/src/SYS.cpp:41
  pinControlRegister(JTAG_RXD_PIN) = JTAG_RXD_CONFIG;
     f4c:	90 93 51 04 	sts	0x0451, r25	; 0x800451 <__RODATA_PM_OFFSET__+0x7f8451>
/Users/askn/Documents/Zinnia-tools/Products/hardware/UPDI4AVR/libraries/UPDI4AVR/examples/UPDI4AVR_FW634B/src/SYS.cpp:44

  /* UPDI port */
  pinControlRegister(UPDI_TDAT_PIN) = UPDI_TDAT_CONFIG;
     f50:	90 93 11 04 	sts	0x0411, r25	; 0x800411 <__RODATA_PM_OFFSET__+0x7f8411>
/Users/askn/Documents/Zinnia-tools/Products/hardware/UPDI4AVR/libraries/UPDI4AVR/examples/UPDI4AVR_FW634B/src/SYS.cpp:47

  /* HV generator */
  pinControlRegister(HVP1_PIN) = HVP1_PIN_CONFIG;
     f54:	20 93 13 04 	sts	0x0413, r18	; 0x800413 <__RODATA_PM_OFFSET__+0x7f8413>
/Users/askn/Documents/Zinnia-tools/Products/hardware/UPDI4AVR/libraries/UPDI4AVR/examples/UPDI4AVR_FW634B/src/SYS.cpp:48
  pinControlRegister(HVP2_PIN) = HVP2_PIN_CONFIG;
     f58:	34 e8       	ldi	r19, 0x84	; 132
     f5a:	30 93 14 04 	sts	0x0414, r19	; 0x800414 <__RODATA_PM_OFFSET__+0x7f8414>
/Users/askn/Documents/Zinnia-tools/Products/hardware/UPDI4AVR/libraries/UPDI4AVR/examples/UPDI4AVR_FW634B/src/SYS.cpp:51

  /* SW1 Interrupt permission */
  pinControlRegister(SW_SENSE_PIN) = SW_SENSE_CONFIG;
     f5e:	3d e0       	ldi	r19, 0x0D	; 13
     f60:	30 93 30 04 	sts	0x0430, r19	; 0x800430 <__RODATA_PM_OFFSET__+0x7f8430>
/Users/askn/Documents/Zinnia-tools/Products/hardware/UPDI4AVR/libraries/UPDI4AVR/examples/UPDI4AVR_FW634B/src/SYS.cpp:54

  /* RTS monitor */
  pinControlRegister(RTS_SENSE_PIN) = RTS_SENSE_CONFIG;
     f64:	39 e0       	ldi	r19, 0x09	; 9
     f66:	30 93 12 04 	sts	0x0412, r19	; 0x800412 <__RODATA_PM_OFFSET__+0x7f8412>
/Users/askn/Documents/Zinnia-tools/Products/hardware/UPDI4AVR/libraries/UPDI4AVR/examples/UPDI4AVR_FW634B/src/SYS.cpp:57

  /* JP1 monitor */
  pinControlRegister(JP_SENSE_PIN) = JP_SENSE_CONFIG;
     f6a:	90 93 53 04 	sts	0x0453, r25	; 0x800453 <__RODATA_PM_OFFSET__+0x7f8453>
/Users/askn/Documents/Zinnia-tools/Products/hardware/UPDI4AVR/libraries/UPDI4AVR/examples/UPDI4AVR_FW634B/src/SYS.cpp:60

  /* Initialize state variables */
  UPDI_CONTROL = 0;
     f6e:	1c ba       	out	0x1c, r1	; 28
/Users/askn/Documents/Zinnia-tools/Products/hardware/UPDI4AVR/libraries/UPDI4AVR/examples/UPDI4AVR_FW634B/src/SYS.cpp:61
  UPDI_NVMCTRL = 0;
     f70:	1d ba       	out	0x1d, r1	; 29
/Users/askn/Documents/Zinnia-tools/Products/hardware/UPDI4AVR/libraries/UPDI4AVR/examples/UPDI4AVR_FW634B/src/TIM.cpp:46

void TIM::setup (void) {

  /* EVSYS signal distribution */

  EVSYS_CHANNEL0 = EVSYS_CHANNEL0_CCL_LUT0_gc;
     f72:	90 e1       	ldi	r25, 0x10	; 16
     f74:	90 93 90 01 	sts	0x0190, r25	; 0x800190 <__RODATA_PM_OFFSET__+0x7f8190>
/Users/askn/Documents/Zinnia-tools/Products/hardware/UPDI4AVR/libraries/UPDI4AVR/examples/UPDI4AVR_FW634B/src/TIM.cpp:47
  EVSYS_CHANNEL1 = EVSYS_CHANNEL1_RTC_PIT_DIV128_gc;
     f78:	3a e0       	ldi	r19, 0x0A	; 10
     f7a:	30 93 91 01 	sts	0x0191, r19	; 0x800191 <__RODATA_PM_OFFSET__+0x7f8191>
/Users/askn/Documents/Zinnia-tools/Products/hardware/UPDI4AVR/libraries/UPDI4AVR/examples/UPDI4AVR_FW634B/src/TIM.cpp:48
  EVSYS_CHANNEL2 = EVSYS_CHANNEL2_CCL_LUT1_gc;
     f7e:	91 e1       	ldi	r25, 0x11	; 17
     f80:	90 93 92 01 	sts	0x0192, r25	; 0x800192 <__RODATA_PM_OFFSET__+0x7f8192>
/Users/askn/Documents/Zinnia-tools/Products/hardware/UPDI4AVR/libraries/UPDI4AVR/examples/UPDI4AVR_FW634B/src/TIM.cpp:49
  EVSYS_CHANNEL3 = EVSYS_CHANNEL3_PORTA_PIN5_gc;  /* <- PA5:LEDY */
     f84:	9d e4       	ldi	r25, 0x4D	; 77
     f86:	90 93 93 01 	sts	0x0193, r25	; 0x800193 <__RODATA_PM_OFFSET__+0x7f8193>
/Users/askn/Documents/Zinnia-tools/Products/hardware/UPDI4AVR/libraries/UPDI4AVR/examples/UPDI4AVR_FW634B/src/TIM.cpp:50
  EVSYS_USERTCB0COUNT = EVSYS_USER_CHANNEL1_gc;
     f8a:	92 e0       	ldi	r25, 0x02	; 2
     f8c:	90 93 b1 01 	sts	0x01B1, r25	; 0x8001b1 <__RODATA_PM_OFFSET__+0x7f81b1>
/Users/askn/Documents/Zinnia-tools/Products/hardware/UPDI4AVR/libraries/UPDI4AVR/examples/UPDI4AVR_FW634B/src/TIM.cpp:51
  EVSYS_USERTCB1COUNT = EVSYS_USER_CHANNEL1_gc;
     f90:	90 93 b3 01 	sts	0x01B3, r25	; 0x8001b3 <__RODATA_PM_OFFSET__+0x7f81b3>
/Users/askn/Documents/Zinnia-tools/Products/hardware/UPDI4AVR/libraries/UPDI4AVR/examples/UPDI4AVR_FW634B/src/TIM.cpp:52
  EVSYS_USERCCLLUT0A  = EVSYS_USER_CHANNEL3_gc;   /* <- PA5:LEDY */
     f94:	20 93 a0 01 	sts	0x01A0, r18	; 0x8001a0 <__RODATA_PM_OFFSET__+0x7f81a0>
/Users/askn/Documents/Zinnia-tools/Products/hardware/UPDI4AVR/libraries/UPDI4AVR/examples/UPDI4AVR_FW634B/src/TIM.cpp:53
  EVSYS_USERCCLLUT1A  = EVSYS_USER_CHANNEL3_gc;   /* <- PA5:LEDY */
     f98:	20 93 a2 01 	sts	0x01A2, r18	; 0x8001a2 <__RODATA_PM_OFFSET__+0x7f81a2>
/Users/askn/Documents/Zinnia-tools/Products/hardware/UPDI4AVR/libraries/UPDI4AVR/examples/UPDI4AVR_FW634B/src/TIM.cpp:60
  /* When PA5:LEDY of CCL3 is used, the signal output of CCL0 and CCL1 is stopped. */

  /* CCL/LUT construction */

  /* TRUTH0: 010 is ON */
  CCL_TRUTH0    = CCL_TRUTH_2_bm;
     f9c:	20 93 cb 01 	sts	0x01CB, r18	; 0x8001cb <__RODATA_PM_OFFSET__+0x7f81cb>
/Users/askn/Documents/Zinnia-tools/Products/hardware/UPDI4AVR/libraries/UPDI4AVR/examples/UPDI4AVR_FW634B/src/TIM.cpp:61
  CCL_LUT0CTRLC = CCL_INSEL2_EVENTA_gc;           /* <- IN2:PA5 */
     fa0:	93 e0       	ldi	r25, 0x03	; 3
     fa2:	90 93 ca 01 	sts	0x01CA, r25	; 0x8001ca <__RODATA_PM_OFFSET__+0x7f81ca>
/Users/askn/Documents/Zinnia-tools/Products/hardware/UPDI4AVR/libraries/UPDI4AVR/examples/UPDI4AVR_FW634B/src/TIM.cpp:62
  CCL_LUT0CTRLB = CCL_INSEL1_TCB1_gc;             /* <- IN1:POS */
     fa6:	20 ec       	ldi	r18, 0xC0	; 192
     fa8:	20 93 c9 01 	sts	0x01C9, r18	; 0x8001c9 <__RODATA_PM_OFFSET__+0x7f81c9>
/Users/askn/Documents/Zinnia-tools/Products/hardware/UPDI4AVR/libraries/UPDI4AVR/examples/UPDI4AVR_FW634B/src/TIM.cpp:63
  CCL_LUT0CTRLA = CCL_ENABLE_bm;
     fac:	80 93 c8 01 	sts	0x01C8, r24	; 0x8001c8 <__RODATA_PM_OFFSET__+0x7f81c8>
/Users/askn/Documents/Zinnia-tools/Products/hardware/UPDI4AVR/libraries/UPDI4AVR/examples/UPDI4AVR_FW634B/src/TIM.cpp:66

  /* TRUTH1: 001 010 is ON */
  CCL_TRUTH1    = CCL_TRUTH_1_bm | CCL_TRUTH_2_bm;
     fb0:	26 e0       	ldi	r18, 0x06	; 6
     fb2:	20 93 cf 01 	sts	0x01CF, r18	; 0x8001cf <__RODATA_PM_OFFSET__+0x7f81cf>
/Users/askn/Documents/Zinnia-tools/Products/hardware/UPDI4AVR/libraries/UPDI4AVR/examples/UPDI4AVR_FW634B/src/TIM.cpp:67
  CCL_LUT1CTRLC = CCL_INSEL2_EVENTA_gc;           /* <- IN2:PA5 */
     fb6:	90 93 ce 01 	sts	0x01CE, r25	; 0x8001ce <__RODATA_PM_OFFSET__+0x7f81ce>
/Users/askn/Documents/Zinnia-tools/Products/hardware/UPDI4AVR/libraries/UPDI4AVR/examples/UPDI4AVR_FW634B/src/TIM.cpp:68
  CCL_LUT1CTRLB = CCL_INSEL0_TCA0_gc | CCL_INSEL1_TCB1_gc;  /* <- IN0:POS IN1:POS */
     fba:	2a ec       	ldi	r18, 0xCA	; 202
     fbc:	20 93 cd 01 	sts	0x01CD, r18	; 0x8001cd <__RODATA_PM_OFFSET__+0x7f81cd>
/Users/askn/Documents/Zinnia-tools/Products/hardware/UPDI4AVR/libraries/UPDI4AVR/examples/UPDI4AVR_FW634B/src/TIM.cpp:69
  CCL_LUT1CTRLA = CCL_ENABLE_bm;
     fc0:	80 93 cc 01 	sts	0x01CC, r24	; 0x8001cc <__RODATA_PM_OFFSET__+0x7f81cc>
/Users/askn/Documents/Zinnia-tools/Products/hardware/UPDI4AVR/libraries/UPDI4AVR/examples/UPDI4AVR_FW634B/src/TIM.cpp:75

  /* TRUTH3: 001 010 is ON */
  /* CCL_INSEL0_USART0_gc : USART0TX normal HIGH */
  /* CCL_INSEL1_IO_gc     : USART1RX normal HIGH */
  /* CCL_INSEL2_IO_gc     : USART1TX normal HIGH */
  CCL_TRUTH3    = (uint8_t) ~CCL_TRUTH_7_bm;
     fc4:	2f e7       	ldi	r18, 0x7F	; 127
     fc6:	20 93 d7 01 	sts	0x01D7, r18	; 0x8001d7 <__RODATA_PM_OFFSET__+0x7f81d7>
/Users/askn/Documents/Zinnia-tools/Products/hardware/UPDI4AVR/libraries/UPDI4AVR/examples/UPDI4AVR_FW634B/src/TIM.cpp:76
  CCL_LUT3CTRLC = CCL_INSEL2_IO_gc;
     fca:	40 93 d6 01 	sts	0x01D6, r20	; 0x8001d6 <__RODATA_PM_OFFSET__+0x7f81d6>
/Users/askn/Documents/Zinnia-tools/Products/hardware/UPDI4AVR/libraries/UPDI4AVR/examples/UPDI4AVR_FW634B/src/TIM.cpp:77
  CCL_LUT3CTRLB = CCL_INSEL0_USART0_gc | CCL_INSEL1_IO_gc;
     fce:	28 e5       	ldi	r18, 0x58	; 88
     fd0:	20 93 d5 01 	sts	0x01D5, r18	; 0x8001d5 <__RODATA_PM_OFFSET__+0x7f81d5>
/Users/askn/Documents/Zinnia-tools/Products/hardware/UPDI4AVR/libraries/UPDI4AVR/examples/UPDI4AVR_FW634B/src/TIM.cpp:78
  CCL_LUT3CTRLA = CCL_ENABLE_bm | CCL_OUTEN_bm;
     fd4:	21 e4       	ldi	r18, 0x41	; 65
     fd6:	20 93 d4 01 	sts	0x01D4, r18	; 0x8001d4 <__RODATA_PM_OFFSET__+0x7f81d4>
/Users/askn/Documents/Zinnia-tools/Products/hardware/UPDI4AVR/libraries/UPDI4AVR/examples/UPDI4AVR_FW634B/src/TIM.cpp:81

  /* CCL enable */
  CCL_CTRLA = CCL_RUNSTDBY_bm | CCL_ENABLE_bm;
     fda:	20 93 c0 01 	sts	0x01C0, r18	; 0x8001c0 <__RODATA_PM_OFFSET__+0x7f81c0>
/Users/askn/Documents/Zinnia-tools/Products/hardware/UPDI4AVR/libraries/UPDI4AVR/examples/UPDI4AVR_FW634B/src/TIM.cpp:84

  /* RTC_PIT enable */
  RTC_PITCTRLA = RTC_PITEN_bm;
     fde:	80 93 50 01 	sts	0x0150, r24	; 0x800150 <__RODATA_PM_OFFSET__+0x7f8150>
/Users/askn/Documents/Zinnia-tools/Products/hardware/UPDI4AVR/libraries/UPDI4AVR/examples/UPDI4AVR_FW634B/src/TIM.cpp:89

  /* Timer */

  /* TCA0 */
  TCA0_SPLIT_CTRLD = TCA_SPLIT_SPLITM_bm;
     fe2:	80 93 03 0a 	sts	0x0A03, r24	; 0x800a03 <__RODATA_PM_OFFSET__+0x7f8a03>
/Users/askn/Documents/Zinnia-tools/Products/hardware/UPDI4AVR/libraries/UPDI4AVR/examples/UPDI4AVR_FW634B/src/TIM.cpp:90
  TCA0_SPLIT_LPER  = TCA0_STEP - 2;
     fe6:	29 e8       	ldi	r18, 0x89	; 137
     fe8:	20 93 26 0a 	sts	0x0A26, r18	; 0x800a26 <__RODATA_PM_OFFSET__+0x7f8a26>
/Users/askn/Documents/Zinnia-tools/Products/hardware/UPDI4AVR/libraries/UPDI4AVR/examples/UPDI4AVR_FW634B/src/TIM.cpp:91
  TCA0_SPLIT_LCMP0 = TCA0_STEP / 2;
     fec:	25 e4       	ldi	r18, 0x45	; 69
     fee:	20 93 28 0a 	sts	0x0A28, r18	; 0x800a28 <__RODATA_PM_OFFSET__+0x7f8a28>
/Users/askn/Documents/Zinnia-tools/Products/hardware/UPDI4AVR/libraries/UPDI4AVR/examples/UPDI4AVR_FW634B/src/TIM.cpp:92
  TCA0_SPLIT_HPER  = 1;
     ff2:	80 93 27 0a 	sts	0x0A27, r24	; 0x800a27 <__RODATA_PM_OFFSET__+0x7f8a27>
/Users/askn/Documents/Zinnia-tools/Products/hardware/UPDI4AVR/libraries/UPDI4AVR/examples/UPDI4AVR_FW634B/src/TIM.cpp:93
  TCA0_SPLIT_HCMP0 = 1;     /* WOA3=PA3 */
     ff6:	80 93 29 0a 	sts	0x0A29, r24	; 0x800a29 <__RODATA_PM_OFFSET__+0x7f8a29>
/Users/askn/Documents/Zinnia-tools/Products/hardware/UPDI4AVR/libraries/UPDI4AVR/examples/UPDI4AVR_FW634B/src/TIM.cpp:94
  TCA0_SPLIT_HCMP1 = 1;     /* WOA4=PA4 */
     ffa:	80 93 2b 0a 	sts	0x0A2B, r24	; 0x800a2b <__RODATA_PM_OFFSET__+0x7f8a2b>
/Users/askn/Documents/Zinnia-tools/Products/hardware/UPDI4AVR/libraries/UPDI4AVR/examples/UPDI4AVR_FW634B/src/TIM.cpp:95
  TCA0_SPLIT_CTRLA = TCA_SPLIT_RUNSTDBY_bm | TCA_SPLIT_ENABLE_bm | TCA_SPLIT_CLKSEL_DIV1024_gc;
     ffe:	8f e8       	ldi	r24, 0x8F	; 143
    1000:	80 93 00 0a 	sts	0x0A00, r24	; 0x800a00 <__RODATA_PM_OFFSET__+0x7f8a00>
/Users/askn/Documents/Zinnia-tools/Products/hardware/UPDI4AVR/libraries/UPDI4AVR/examples/UPDI4AVR_FW634B/src/TIM.cpp:98

  /* TCB1 */
  TCB1_CTRLB = TCB_CNTMODE_PWM8_gc;
    1004:	87 e0       	ldi	r24, 0x07	; 7
    1006:	80 93 91 0a 	sts	0x0A91, r24	; 0x800a91 <__RODATA_PM_OFFSET__+0x7f8a91>
/Users/askn/Documents/Zinnia-tools/Products/hardware/UPDI4AVR/libraries/UPDI4AVR/examples/UPDI4AVR_FW634B/src/JTAG2.cpp:459
/******************
 * Initialization *
 ******************/

void JTAG2::setup (void) {
  JTAG_USART.BAUD = pgm_read_word( &BAUD_TABLE[BAUD_19200] );
    100a:	ed e9       	ldi	r30, 0x9D	; 157
    100c:	f0 e0       	ldi	r31, 0x00	; 0
    100e:	45 91       	lpm	r20, Z+
    1010:	54 91       	lpm	r21, Z
    1012:	40 93 28 08 	sts	0x0828, r20	; 0x800828 <__RODATA_PM_OFFSET__+0x7f8828>
    1016:	50 93 29 08 	sts	0x0829, r21	; 0x800829 <__RODATA_PM_OFFSET__+0x7f8829>
/Users/askn/Documents/Zinnia-tools/Products/hardware/UPDI4AVR/libraries/UPDI4AVR/examples/UPDI4AVR_FW634B/src/JTAG2.cpp:460
  JTAG_USART.CTRLA = JTAG_USART_CTRLA;
    101a:	10 92 25 08 	sts	0x0825, r1	; 0x800825 <__RODATA_PM_OFFSET__+0x7f8825>
/Users/askn/Documents/Zinnia-tools/Products/hardware/UPDI4AVR/libraries/UPDI4AVR/examples/UPDI4AVR_FW634B/src/JTAG2.cpp:461
  JTAG_USART.CTRLC = JTAG_USART_CTRLC;
    101e:	90 93 27 08 	sts	0x0827, r25	; 0x800827 <__RODATA_PM_OFFSET__+0x7f8827>
/Users/askn/Documents/Zinnia-tools/Products/hardware/UPDI4AVR/libraries/UPDI4AVR/examples/UPDI4AVR_FW634B/src/JTAG2.cpp:462
  JTAG_USART.CTRLB = JTAG_USART_OFF;
    1022:	88 e8       	ldi	r24, 0x88	; 136
    1024:	80 93 26 08 	sts	0x0826, r24	; 0x800826 <__RODATA_PM_OFFSET__+0x7f8826>
/Users/askn/Documents/Zinnia-tools/Products/hardware/UPDI4AVR/libraries/UPDI4AVR/examples/UPDI4AVR_FW634B/src/UPDI.cpp:70
  }
  #endif
}

void UPDI::setup (void) {
  UPDI_USART.BAUD  = UPDI_BAUD_CALC;
    1028:	80 eb       	ldi	r24, 0xB0	; 176
    102a:	90 e0       	ldi	r25, 0x00	; 0
    102c:	80 93 08 08 	sts	0x0808, r24	; 0x800808 <__RODATA_PM_OFFSET__+0x7f8808>
    1030:	90 93 09 08 	sts	0x0809, r25	; 0x800809 <__RODATA_PM_OFFSET__+0x7f8809>
/Users/askn/Documents/Zinnia-tools/Products/hardware/UPDI4AVR/libraries/UPDI4AVR/examples/UPDI4AVR_FW634B/src/UPDI.cpp:71
  UPDI_USART.CTRLA = UPDI_USART_CTRLA;
    1034:	30 93 05 08 	sts	0x0805, r19	; 0x800805 <__RODATA_PM_OFFSET__+0x7f8805>
/Users/askn/Documents/Zinnia-tools/Products/hardware/UPDI4AVR/libraries/UPDI4AVR/examples/UPDI4AVR_FW634B/src/UPDI.cpp:72
  UPDI_USART.CTRLC = UPDI_USART_CTRLC;
    1038:	8b e2       	ldi	r24, 0x2B	; 43
    103a:	80 93 07 08 	sts	0x0807, r24	; 0x800807 <__RODATA_PM_OFFSET__+0x7f8807>
/Users/askn/Documents/Zinnia-tools/Products/hardware/UPDI4AVR/libraries/UPDI4AVR/examples/UPDI4AVR_FW634B/src/UPDI.cpp:73
  UPDI_USART.CTRLB = UPDI_USART_ON;
    103e:	88 ec       	ldi	r24, 0xC8	; 200
    1040:	80 93 06 08 	sts	0x0806, r24	; 0x800806 <__RODATA_PM_OFFSET__+0x7f8806>
/Users/askn/Documents/Zinnia-tools/Products/hardware/UPDI4AVR/libraries/UPDI4AVR/examples/UPDI4AVR_FW634B/src/UPDI.cpp:74
  bit_clear(UPDI_CONTROL, UPDI_CLKU_bp);
    1044:	e6 98       	cbi	0x1c, 6	; 28
ready():
/Users/askn/Documents/Zinnia-tools/Products/hardware/UPDI4AVR/libraries/UPDI4AVR/examples/UPDI4AVR_FW634B/src/SYS.cpp:121
 * Run at the end of the boot sequence *
 ***************************************/

void SYS::ready (void) {
  /* Release target from reset state after resetting WDT timeout */
  if (bit_is_set(RSTCTRL_RSTFR, RSTCTRL_WDRF_bp))
    1046:	80 91 40 00 	lds	r24, 0x0040	; 0x800040 <__RODATA_PM_OFFSET__+0x7f8040>
    104a:	83 ff       	sbrs	r24, 3
    104c:	02 c0       	rjmp	.+4      	; 0x1052 <main+0x166>
/Users/askn/Documents/Zinnia-tools/Products/hardware/UPDI4AVR/libraries/UPDI4AVR/examples/UPDI4AVR_FW634B/src/SYS.cpp:122
    UPDI::Target_Reset(false);
    104e:	80 e0       	ldi	r24, 0x00	; 0
    1050:	60 d9       	rcall	.-3392   	; 0x312 <UPDI::Target_Reset(bool)>
/Users/askn/Documents/Zinnia-tools/Products/hardware/UPDI4AVR/libraries/UPDI4AVR/examples/UPDI4AVR_FW634B/src/SYS.cpp:125

  /* Clears the reset state flag. */
  RSTCTRL_RSTFR = RSTCTRL_RSTFR;
    1052:	80 91 40 00 	lds	r24, 0x0040	; 0x800040 <__RODATA_PM_OFFSET__+0x7f8040>
    1056:	80 93 40 00 	sts	0x0040, r24	; 0x800040 <__RODATA_PM_OFFSET__+0x7f8040>
/Users/askn/Documents/Zinnia-tools/Products/hardware/UPDI4AVR/libraries/UPDI4AVR/examples/UPDI4AVR_FW634B/src/SYS.cpp:128

  /*** Hibernation mode ***/
  set_sleep_mode(SLEEP_MODE_STANDBY);
    105a:	80 91 50 00 	lds	r24, 0x0050	; 0x800050 <__RODATA_PM_OFFSET__+0x7f8050>
    105e:	89 7f       	andi	r24, 0xF9	; 249
    1060:	82 60       	ori	r24, 0x02	; 2
    1062:	80 93 50 00 	sts	0x0050, r24	; 0x800050 <__RODATA_PM_OFFSET__+0x7f8050>
/Users/askn/Documents/Zinnia-tools/Products/hardware/UPDI4AVR/libraries/UPDI4AVR/examples/UPDI4AVR_FW634B/src/SYS.cpp:131

  /* Clear asynchronous interrupts detected during initialization */
  while (portRegister(RTS_SENSE_PIN).INTFLAGS) {
    1066:	80 91 09 04 	lds	r24, 0x0409	; 0x800409 <__RODATA_PM_OFFSET__+0x7f8409>
    106a:	88 23       	and	r24, r24
    106c:	29 f0       	breq	.+10     	; 0x1078 <main+0x18c>
/Users/askn/Documents/Zinnia-tools/Products/hardware/UPDI4AVR/libraries/UPDI4AVR/examples/UPDI4AVR_FW634B/src/SYS.cpp:133
    portRegister(RTS_SENSE_PIN).INTFLAGS =
    portRegister(RTS_SENSE_PIN).INTFLAGS;
    106e:	80 91 09 04 	lds	r24, 0x0409	; 0x800409 <__RODATA_PM_OFFSET__+0x7f8409>
/Users/askn/Documents/Zinnia-tools/Products/hardware/UPDI4AVR/libraries/UPDI4AVR/examples/UPDI4AVR_FW634B/src/SYS.cpp:132
  /*** Hibernation mode ***/
  set_sleep_mode(SLEEP_MODE_STANDBY);

  /* Clear asynchronous interrupts detected during initialization */
  while (portRegister(RTS_SENSE_PIN).INTFLAGS) {
    portRegister(RTS_SENSE_PIN).INTFLAGS =
    1072:	80 93 09 04 	sts	0x0409, r24	; 0x800409 <__RODATA_PM_OFFSET__+0x7f8409>
    1076:	f7 cf       	rjmp	.-18     	; 0x1066 <main+0x17a>
/Users/askn/Documents/Zinnia-tools/Products/hardware/UPDI4AVR/libraries/UPDI4AVR/examples/UPDI4AVR_FW634B/src/SYS.cpp:137
    portRegister(RTS_SENSE_PIN).INTFLAGS;
  }

  /* Interrupt permission */
  sei();
    1078:	78 94       	sei
/Users/askn/Documents/Zinnia-tools/Products/hardware/UPDI4AVR/libraries/UPDI4AVR/examples/UPDI4AVR_FW634B/src/SYS.cpp:142

  /* Keeps the LED flashing while the RTS maintains a low signal level. */
  /* This usually indicates that the serial console is still open.      */
  /* After completion, the system will be reset. */
  if (!digitalRead(RTS_SENSE_PIN)) {
    107a:	12 99       	sbic	0x02, 2	; 2
/Users/askn/Documents/Zinnia-tools/Products/hardware/UPDI4AVR/libraries/UPDI4AVR/examples/UPDI4AVR_FW634B/src/SYS.cpp:143
    TIM::LED_Flash();
    107c:	0c c0       	rjmp	.+24     	; 0x1096 <main+0x1aa>
    107e:	56 d9       	rcall	.-3412   	; 0x32c <TIM::LED_Flash()>
/Users/askn/Documents/Zinnia-tools/Products/hardware/UPDI4AVR/libraries/UPDI4AVR/examples/UPDI4AVR_FW634B/src/SYS.cpp:144
    while (!digitalRead(RTS_SENSE_PIN)) {
    1080:	12 99       	sbic	0x02, 2	; 2
    1082:	06 c0       	rjmp	.+12     	; 0x1090 <main+0x1a4>
/Users/askn/Documents/Zinnia-tools/Products/hardware/UPDI4AVR/libraries/UPDI4AVR/examples/UPDI4AVR_FW634B/src/SYS.cpp:145
      sleep_enable();
    1084:	80 91 50 00 	lds	r24, 0x0050	; 0x800050 <__RODATA_PM_OFFSET__+0x7f8050>
    1088:	81 60       	ori	r24, 0x01	; 1
    108a:	80 93 50 00 	sts	0x0050, r24	; 0x800050 <__RODATA_PM_OFFSET__+0x7f8050>
/Users/askn/Documents/Zinnia-tools/Products/hardware/UPDI4AVR/libraries/UPDI4AVR/examples/UPDI4AVR_FW634B/src/SYS.cpp:173
void SYS::WDT_Short (void) { WDT_SET(WDT_PERIOD_256CLK_gc); }

void SYS::WDT_Long (void) { WDT_SET(WDT_PERIOD_512CLK_gc); }

void SYS::WDT_REBOOT (void) {
  WDT_SET(WDT_PERIOD_8CLK_gc);
    108e:	f8 cf       	rjmp	.-16     	; 0x1080 <main+0x194>
WDT_REBOOT():
    1090:	81 e0       	ldi	r24, 0x01	; 1
    1092:	6e d9       	rcall	.-3364   	; 0x370 <SYS::WDT_SET(unsigned char)>
    1094:	ff cf       	rjmp	.-2      	; 0x1094 <main+0x1a8>
LED_HeartBeat():
/Users/askn/Documents/Zinnia-tools/Products/hardware/UPDI4AVR/libraries/UPDI4AVR/examples/UPDI4AVR_FW634B/src/TIM.cpp:129
 * LED operation switching
 */

/* Heartbeat (waiting) */
void TIM::LED_HeartBeat (void) {
  if (TIM::mode != 1) {
    1096:	80 91 61 38 	lds	r24, 0x3861	; 0x803861 <TIM::mode>
    109a:	81 30       	cpi	r24, 0x01	; 1
    109c:	99 f0       	breq	.+38     	; 0x10c4 <main+0x1d8>
/Users/askn/Documents/Zinnia-tools/Products/hardware/UPDI4AVR/libraries/UPDI4AVR/examples/UPDI4AVR_FW634B/src/TIM.cpp:130
    TIM::mode = 1;
    109e:	81 e0       	ldi	r24, 0x01	; 1
    10a0:	80 93 61 38 	sts	0x3861, r24	; 0x803861 <TIM::mode>
/Users/askn/Documents/Zinnia-tools/Products/hardware/UPDI4AVR/libraries/UPDI4AVR/examples/UPDI4AVR_FW634B/src/TIM.cpp:131
    TCB1_CCMP = TCB1_HBEAT;
    10a4:	8a e8       	ldi	r24, 0x8A	; 138
    10a6:	95 e4       	ldi	r25, 0x45	; 69
    10a8:	80 93 9c 0a 	sts	0x0A9C, r24	; 0x800a9c <__RODATA_PM_OFFSET__+0x7f8a9c>
    10ac:	90 93 9d 0a 	sts	0x0A9D, r25	; 0x800a9d <__RODATA_PM_OFFSET__+0x7f8a9d>
/Users/askn/Documents/Zinnia-tools/Products/hardware/UPDI4AVR/libraries/UPDI4AVR/examples/UPDI4AVR_FW634B/src/TIM.cpp:132
    TCB1_CNT = 0;
    10b0:	10 92 9a 0a 	sts	0x0A9A, r1	; 0x800a9a <__RODATA_PM_OFFSET__+0x7f8a9a>
    10b4:	10 92 9b 0a 	sts	0x0A9B, r1	; 0x800a9b <__RODATA_PM_OFFSET__+0x7f8a9b>
/Users/askn/Documents/Zinnia-tools/Products/hardware/UPDI4AVR/libraries/UPDI4AVR/examples/UPDI4AVR_FW634B/src/TIM.cpp:133
    TCB1_CTRLA = TCB_RUNSTDBY_bm | TCB_ENABLE_bm | TCB_CLKSEL_TCA0_gc;
    10b8:	85 e4       	ldi	r24, 0x45	; 69
    10ba:	80 93 90 0a 	sts	0x0A90, r24	; 0x800a90 <__RODATA_PM_OFFSET__+0x7f8a90>
/Users/askn/Documents/Zinnia-tools/Products/hardware/UPDI4AVR/libraries/UPDI4AVR/examples/UPDI4AVR_FW634B/src/TIM.cpp:134
    LEDG_EVOUT = EVSYS_USER_CHANNEL2_gc;
    10be:	83 e0       	ldi	r24, 0x03	; 3
    10c0:	80 93 a9 01 	sts	0x01A9, r24	; 0x8001a9 <__RODATA_PM_OFFSET__+0x7f81a9>
ready():
/Users/askn/Documents/Zinnia-tools/Products/hardware/UPDI4AVR/libraries/UPDI4AVR/examples/UPDI4AVR_FW634B/src/SYS.cpp:152
    SYS::WDT_REBOOT();
  }
  TIM::LED_HeartBeat();

  /* It stays in a low power state until the first interrupt occurs. */
  sleep_enable();
    10c4:	80 91 50 00 	lds	r24, 0x0050	; 0x800050 <__RODATA_PM_OFFSET__+0x7f8050>
    10c8:	81 60       	ori	r24, 0x01	; 1
    10ca:	80 93 50 00 	sts	0x0050, r24	; 0x800050 <__RODATA_PM_OFFSET__+0x7f8050>
get_parameter():
/Users/askn/Documents/Zinnia-tools/Products/hardware/UPDI4AVR/libraries/UPDI4AVR/examples/UPDI4AVR_FW634B/src/JTAG2.cpp:264
        packet.size_word[0] = 2;
        break;
      }
      case PAR_VTARGET : {
        _CAPS16(packet.body[1])->word = SYS::get_vcc();
        packet.size_word[0] = 3;
    10ce:	43 e0       	ldi	r20, 0x03	; 3
    10d0:	24 2e       	mov	r2, r20
    10d2:	31 2c       	mov	r3, r1
sign_on_response():
/Users/askn/Documents/Zinnia-tools/Products/hardware/UPDI4AVR/libraries/UPDI4AVR/examples/UPDI4AVR_FW634B/src/JTAG2.cpp:168
  /********************
   * SIGN_ON Response *
   ********************/

  void sign_on_response (void) {
    NVM::before_address = -1;
    10d4:	44 24       	eor	r4, r4
    10d6:	4a 94       	dec	r4
    10d8:	54 2c       	mov	r5, r4
    10da:	32 01       	movw	r6, r4
/Users/askn/Documents/Zinnia-tools/Products/hardware/UPDI4AVR/libraries/UPDI4AVR/examples/UPDI4AVR_FW634B/src/JTAG2.cpp:169
    packet.size = sizeof(sign_on_resp);
    10dc:	6d e1       	ldi	r22, 0x1D	; 29
    10de:	86 2e       	mov	r8, r22
    10e0:	91 2c       	mov	r9, r1
    10e2:	a1 2c       	mov	r10, r1
    10e4:	b1 2c       	mov	r11, r1
get():
/Users/askn/Documents/Zinnia-tools/Products/hardware/UPDI4AVR/libraries/UPDI4AVR/examples/UPDI4AVR_FW634B/src/JTAG2.cpp:86
  /*******************
   * Local functions *
   *******************/

  uint8_t get (void) {
    loop_until_bit_is_set(JTAG_USART.STATUS, USART_RXCIF_bp);
    10e6:	80 91 24 08 	lds	r24, 0x0824	; 0x800824 <__RODATA_PM_OFFSET__+0x7f8824>
    10ea:	87 ff       	sbrs	r24, 7
    10ec:	fc cf       	rjmp	.-8      	; 0x10e6 <main+0x1fa>
/Users/askn/Documents/Zinnia-tools/Products/hardware/UPDI4AVR/libraries/UPDI4AVR/examples/UPDI4AVR_FW634B/src/JTAG2.cpp:87
    return JTAG_USART.RXDATAL;
    10ee:	80 91 20 08 	lds	r24, 0x0820	; 0x800820 <__RODATA_PM_OFFSET__+0x7f8820>
packet_receive():
/Users/askn/Documents/Zinnia-tools/Products/hardware/UPDI4AVR/libraries/UPDI4AVR/examples/UPDI4AVR_FW634B/src/JTAG2.cpp:126
    uint16_t _crc = ~0;
    uint8_t *p = (uint8_t*) &packet.soh;
    uint8_t *q = (uint8_t*) &packet.soh;

    /* Waiting for reception (infinite loop) */
    while (get() != MESSAGE_START);
    10f2:	8b 31       	cpi	r24, 0x1B	; 27
    10f4:	c1 f7       	brne	.-16     	; 0x10e6 <main+0x1fa>
/Users/askn/Documents/Zinnia-tools/Products/hardware/UPDI4AVR/libraries/UPDI4AVR/examples/UPDI4AVR_FW634B/src/JTAG2.cpp:127
    (*p++) = MESSAGE_START;
    10f6:	80 93 8e 38 	sts	0x388E, r24	; 0x80388e <JTAG2::packet>
    10fa:	ef e8       	ldi	r30, 0x8F	; 143
    10fc:	f8 e3       	ldi	r31, 0x38	; 56
get():
/Users/askn/Documents/Zinnia-tools/Products/hardware/UPDI4AVR/libraries/UPDI4AVR/examples/UPDI4AVR_FW634B/src/JTAG2.cpp:86
  /*******************
   * Local functions *
   *******************/

  uint8_t get (void) {
    loop_until_bit_is_set(JTAG_USART.STATUS, USART_RXCIF_bp);
    10fe:	80 91 24 08 	lds	r24, 0x0824	; 0x800824 <__RODATA_PM_OFFSET__+0x7f8824>
    1102:	87 ff       	sbrs	r24, 7
    1104:	fc cf       	rjmp	.-8      	; 0x10fe <main+0x212>
/Users/askn/Documents/Zinnia-tools/Products/hardware/UPDI4AVR/libraries/UPDI4AVR/examples/UPDI4AVR_FW634B/src/JTAG2.cpp:87
    return JTAG_USART.RXDATAL;
    1106:	80 91 20 08 	lds	r24, 0x0820	; 0x800820 <__RODATA_PM_OFFSET__+0x7f8820>
packet_receive():
/Users/askn/Documents/Zinnia-tools/Products/hardware/UPDI4AVR/libraries/UPDI4AVR/examples/UPDI4AVR_FW634B/src/JTAG2.cpp:130
    /* Waiting for reception (infinite loop) */
    while (get() != MESSAGE_START);
    (*p++) = MESSAGE_START;

    /* First 7bytes */
    for (int8_t i = 0; i < 7; i++) *p++ = get();
    110a:	81 93       	st	Z+, r24
    110c:	28 e3       	ldi	r18, 0x38	; 56
    110e:	e6 39       	cpi	r30, 0x96	; 150
    1110:	f2 07       	cpc	r31, r18
    1112:	a9 f7       	brne	.-22     	; 0x10fe <main+0x212>
/Users/askn/Documents/Zinnia-tools/Products/hardware/UPDI4AVR/libraries/UPDI4AVR/examples/UPDI4AVR_FW634B/src/JTAG2.cpp:133

    /* STX confirmation */
    if (packet.stx != TOKEN) return false;
    1114:	80 91 95 38 	lds	r24, 0x3895	; 0x803895 <JTAG2::packet+0x7>
    1118:	8e 30       	cpi	r24, 0x0E	; 14
    111a:	29 f7       	brne	.-54     	; 0x10e6 <main+0x1fa>
/Users/askn/Documents/Zinnia-tools/Products/hardware/UPDI4AVR/libraries/UPDI4AVR/examples/UPDI4AVR_FW634B/src/JTAG2.cpp:136

    /* Check packet length */
    if (packet.size > sizeof(packet.body)) return false;
    111c:	80 91 91 38 	lds	r24, 0x3891	; 0x803891 <JTAG2::packet+0x3>
    1120:	90 91 92 38 	lds	r25, 0x3892	; 0x803892 <JTAG2::packet+0x4>
    1124:	a0 91 93 38 	lds	r26, 0x3893	; 0x803893 <JTAG2::packet+0x5>
    1128:	b0 91 94 38 	lds	r27, 0x3894	; 0x803894 <JTAG2::packet+0x6>
    112c:	85 31       	cpi	r24, 0x15	; 21
    112e:	92 40       	sbci	r25, 0x02	; 2
    1130:	a1 05       	cpc	r26, r1
    1132:	b1 05       	cpc	r27, r1
    1134:	c0 f6       	brcc	.-80     	; 0x10e6 <main+0x1fa>
    1136:	06 e9       	ldi	r16, 0x96	; 150
    1138:	18 e3       	ldi	r17, 0x38	; 56
    113a:	68 01       	movw	r12, r16
main():
/Users/askn/Documents/Zinnia-tools/Products/hardware/UPDI4AVR/libraries/UPDI4AVR/examples/UPDI4AVR_FW634B/src/JTAG2.cpp:139

    /* receive the rest */
    for (int16_t j = -2; j < packet.size_word[0]; j++) *p++ = get();
    113c:	8e ef       	ldi	r24, 0xFE	; 254
    113e:	9f ef       	ldi	r25, 0xFF	; 255
packet_receive():
    1140:	20 91 91 38 	lds	r18, 0x3891	; 0x803891 <JTAG2::packet+0x3>
    1144:	30 91 92 38 	lds	r19, 0x3892	; 0x803892 <JTAG2::packet+0x4>
    1148:	82 17       	cp	r24, r18
    114a:	93 07       	cpc	r25, r19
    114c:	5c f4       	brge	.+22     	; 0x1164 <main+0x278>
get():
/Users/askn/Documents/Zinnia-tools/Products/hardware/UPDI4AVR/libraries/UPDI4AVR/examples/UPDI4AVR_FW634B/src/JTAG2.cpp:86
  /*******************
   * Local functions *
   *******************/

  uint8_t get (void) {
    loop_until_bit_is_set(JTAG_USART.STATUS, USART_RXCIF_bp);
    114e:	20 91 24 08 	lds	r18, 0x0824	; 0x800824 <__RODATA_PM_OFFSET__+0x7f8824>
    1152:	27 ff       	sbrs	r18, 7
    1154:	fc cf       	rjmp	.-8      	; 0x114e <main+0x262>
/Users/askn/Documents/Zinnia-tools/Products/hardware/UPDI4AVR/libraries/UPDI4AVR/examples/UPDI4AVR_FW634B/src/JTAG2.cpp:87
    return JTAG_USART.RXDATAL;
    1156:	20 91 20 08 	lds	r18, 0x0820	; 0x800820 <__RODATA_PM_OFFSET__+0x7f8820>
packet_receive():
/Users/askn/Documents/Zinnia-tools/Products/hardware/UPDI4AVR/libraries/UPDI4AVR/examples/UPDI4AVR_FW634B/src/JTAG2.cpp:139

    /* Check packet length */
    if (packet.size > sizeof(packet.body)) return false;

    /* receive the rest */
    for (int16_t j = -2; j < packet.size_word[0]; j++) *p++ = get();
    115a:	d6 01       	movw	r26, r12
    115c:	2d 93       	st	X+, r18
    115e:	6d 01       	movw	r12, r26
    1160:	01 96       	adiw	r24, 0x01	; 1
    1162:	ee cf       	rjmp	.-36     	; 0x1140 <main+0x254>
    1164:	3e e8       	ldi	r19, 0x8E	; 142
    1166:	e3 2e       	mov	r14, r19
    1168:	38 e3       	ldi	r19, 0x38	; 56
    116a:	f3 2e       	mov	r15, r19
main():
/Users/askn/Documents/Zinnia-tools/Products/hardware/UPDI4AVR/libraries/UPDI4AVR/examples/UPDI4AVR_FW634B/src/JTAG2.cpp:121
  /****************
   * JTAG Receive *
   ****************/

  bool packet_receive (void) {
    uint16_t _crc = ~0;
    116c:	8f ef       	ldi	r24, 0xFF	; 255
    116e:	9f ef       	ldi	r25, 0xFF	; 255
packet_receive():
/Users/askn/Documents/Zinnia-tools/Products/hardware/UPDI4AVR/libraries/UPDI4AVR/examples/UPDI4AVR_FW634B/src/JTAG2.cpp:142

    /* receive the rest */
    for (int16_t j = -2; j < packet.size_word[0]; j++) *p++ = get();

    /* CRC check when receive buffer is filled */
    while (p != q) _crc = crc16_update(_crc, *q++);
    1170:	ec 14       	cp	r14, r12
    1172:	fd 04       	cpc	r15, r13
    1174:	29 f0       	breq	.+10     	; 0x1180 <main+0x294>
    1176:	f7 01       	movw	r30, r14
    1178:	61 91       	ld	r22, Z+
/Users/askn/Documents/Zinnia-tools/Products/hardware/UPDI4AVR/libraries/UPDI4AVR/examples/UPDI4AVR_FW634B/src/JTAG2.cpp:101
  void flush (void) {
    loop_until_bit_is_set(JTAG_USART.STATUS, USART_TXCIF_bp);
  }

  uint16_t crc16_update(uint16_t _crc, uint8_t _data) {
    return _crc_ccitt_update(_crc, _data);
    117a:	7f 01       	movw	r14, r30
crc16_update():
    117c:	51 d9       	rcall	.-3422   	; 0x420 <_crc_ccitt_update(unsigned int, unsigned char)>
    117e:	f8 cf       	rjmp	.-16     	; 0x1170 <main+0x284>
wakeup_jtag():
/Users/askn/Documents/Zinnia-tools/Products/hardware/UPDI4AVR/libraries/UPDI4AVR/examples/UPDI4AVR_FW634B/src/JTAG2.cpp:485
 * Main loop *
 *************/

void JTAG2::wakeup_jtag (void) {
  for (;;) {
    if (packet_receive()) process_command();
    1180:	89 2b       	or	r24, r25
    1182:	09 f0       	breq	.+2      	; 0x1186 <main+0x29a>
    1184:	b0 cf       	rjmp	.-160    	; 0x10e6 <main+0x1fa>
process_command():
/Users/askn/Documents/Zinnia-tools/Products/hardware/UPDI4AVR/libraries/UPDI4AVR/examples/UPDI4AVR_FW634B/src/JTAG2.cpp:331
  /****************
   * JTAG Process *
   ****************/

  inline void process_command (void) {
    wdt_reset();
    1186:	a8 95       	wdr
/Users/askn/Documents/Zinnia-tools/Products/hardware/UPDI4AVR/libraries/UPDI4AVR/examples/UPDI4AVR_FW634B/src/JTAG2.cpp:335
    #ifdef ENABLE_DEBUG_UPDI_SENDER
    UPDI::_send_buf_clear();
    #endif
    uint8_t message_id = packet.body[MESSAGE_ID];
    1188:	80 91 96 38 	lds	r24, 0x3896	; 0x803896 <JTAG2::packet+0x8>
/Users/askn/Documents/Zinnia-tools/Products/hardware/UPDI4AVR/libraries/UPDI4AVR/examples/UPDI4AVR_FW634B/src/JTAG2.cpp:336
    packet.size = 1;
    118c:	21 e0       	ldi	r18, 0x01	; 1
    118e:	30 e0       	ldi	r19, 0x00	; 0
    1190:	40 e0       	ldi	r20, 0x00	; 0
    1192:	50 e0       	ldi	r21, 0x00	; 0
    1194:	20 93 91 38 	sts	0x3891, r18	; 0x803891 <JTAG2::packet+0x3>
    1198:	30 93 92 38 	sts	0x3892, r19	; 0x803892 <JTAG2::packet+0x4>
    119c:	40 93 93 38 	sts	0x3893, r20	; 0x803893 <JTAG2::packet+0x5>
    11a0:	50 93 94 38 	sts	0x3894, r21	; 0x803894 <JTAG2::packet+0x6>
/Users/askn/Documents/Zinnia-tools/Products/hardware/UPDI4AVR/libraries/UPDI4AVR/examples/UPDI4AVR_FW634B/src/JTAG2.cpp:337
    packet.body[MESSAGE_ID] = RSP_OK;
    11a4:	90 e8       	ldi	r25, 0x80	; 128
    11a6:	90 93 96 38 	sts	0x3896, r25	; 0x803896 <JTAG2::packet+0x8>
/Users/askn/Documents/Zinnia-tools/Products/hardware/UPDI4AVR/libraries/UPDI4AVR/examples/UPDI4AVR_FW634B/src/JTAG2.cpp:338
    switch (message_id) {
    11aa:	8b 30       	cpi	r24, 0x0B	; 11
    11ac:	09 f4       	brne	.+2      	; 0x11b0 <main+0x2c4>
    11ae:	34 c1       	rjmp	.+616    	; 0x1418 <main+0x52c>
    11b0:	08 f0       	brcs	.+2      	; 0x11b4 <main+0x2c8>
    11b2:	4c c0       	rjmp	.+152    	; 0x124c <main+0x360>
    11b4:	83 30       	cpi	r24, 0x03	; 3
    11b6:	09 f4       	brne	.+2      	; 0x11ba <main+0x2ce>
    11b8:	cd c0       	rjmp	.+410    	; 0x1354 <main+0x468>
    11ba:	08 f0       	brcs	.+2      	; 0x11be <main+0x2d2>
    11bc:	3d c0       	rjmp	.+122    	; 0x1238 <main+0x34c>
    11be:	81 30       	cpi	r24, 0x01	; 1
    11c0:	09 f4       	brne	.+2      	; 0x11c4 <main+0x2d8>
    11c2:	68 c0       	rjmp	.+208    	; 0x1294 <main+0x3a8>
    11c4:	08 f4       	brcc	.+2      	; 0x11c8 <main+0x2dc>
    11c6:	c4 c1       	rjmp	.+904    	; 0x1550 <main+0x664>
set_parameter():
/Users/askn/Documents/Zinnia-tools/Products/hardware/UPDI4AVR/libraries/UPDI4AVR/examples/UPDI4AVR_FW634B/src/JTAG2.cpp:191
   * CMND_SET_PARAMETER *
   **********************/

  bool set_parameter (void) {
    uint8_t param_val = packet.body[RSP_DATA + 1];
    switch ( packet.body[RSP_DATA] ) {
    11c8:	80 91 97 38 	lds	r24, 0x3897	; 0x803897 <JTAG2::packet+0x9>
    11cc:	85 30       	cpi	r24, 0x05	; 5
    11ce:	09 f0       	breq	.+2      	; 0x11d2 <main+0x2e6>
    11d0:	46 c0       	rjmp	.+140    	; 0x125e <main+0x372>
/Users/askn/Documents/Zinnia-tools/Products/hardware/UPDI4AVR/libraries/UPDI4AVR/examples/UPDI4AVR_FW634B/src/JTAG2.cpp:190
  /**********************
   * CMND_SET_PARAMETER *
   **********************/

  bool set_parameter (void) {
    uint8_t param_val = packet.body[RSP_DATA + 1];
    11d2:	d0 90 98 38 	lds	r13, 0x3898	; 0x803898 <JTAG2::packet+0xa>
/Users/askn/Documents/Zinnia-tools/Products/hardware/UPDI4AVR/libraries/UPDI4AVR/examples/UPDI4AVR_FW634B/src/JTAG2.cpp:195
    switch ( packet.body[RSP_DATA] ) {
      /* JTAG interface speed */
      case PAR_BAUD_RATE : {
        /* Compatible range confirmation */
        if ((param_val >= BAUD_LOWER) && (param_val <= BAUD_UPPER)) {
    11d6:	8e ef       	ldi	r24, 0xFE	; 254
    11d8:	8d 0d       	add	r24, r13
    11da:	88 31       	cpi	r24, 0x18	; 24
    11dc:	08 f0       	brcs	.+2      	; 0x11e0 <main+0x2f4>
    11de:	b6 c0       	rjmp	.+364    	; 0x134c <main+0x460>
/Users/askn/Documents/Zinnia-tools/Products/hardware/UPDI4AVR/libraries/UPDI4AVR/examples/UPDI4AVR_FW634B/src/JTAG2.cpp:196
          uint16_t baud = pgm_read_word( &BAUD_TABLE[param_val] );
    11e0:	8d 2d       	mov	r24, r13
    11e2:	90 e0       	ldi	r25, 0x00	; 0
    11e4:	fc 01       	movw	r30, r24
    11e6:	ee 0f       	add	r30, r30
    11e8:	ff 1f       	adc	r31, r31
    11ea:	eb 56       	subi	r30, 0x6B	; 107
    11ec:	ff 4f       	sbci	r31, 0xFF	; 255
    11ee:	05 91       	lpm	r16, Z+
    11f0:	14 91       	lpm	r17, Z
    11f2:	78 01       	movw	r14, r16
/Users/askn/Documents/Zinnia-tools/Products/hardware/UPDI4AVR/libraries/UPDI4AVR/examples/UPDI4AVR_FW634B/src/JTAG2.cpp:197
          if (baud) {
    11f4:	01 15       	cp	r16, r1
    11f6:	11 05       	cpc	r17, r1
    11f8:	09 f4       	brne	.+2      	; 0x11fc <main+0x310>
    11fa:	a8 c0       	rjmp	.+336    	; 0x134c <main+0x460>
/Users/askn/Documents/Zinnia-tools/Products/hardware/UPDI4AVR/libraries/UPDI4AVR/examples/UPDI4AVR_FW634B/src/JTAG2.cpp:199
            /* If normal, respond and then change speed */
            param_baud_rate_val = (jtag_baud_rate_e) param_val;
    11fc:	80 93 36 38 	sts	0x3836, r24	; 0x803836 <JTAG2::param_baud_rate_val>
    1200:	90 93 37 38 	sts	0x3837, r25	; 0x803837 <JTAG2::param_baud_rate_val+0x1>
/Users/askn/Documents/Zinnia-tools/Products/hardware/UPDI4AVR/libraries/UPDI4AVR/examples/UPDI4AVR_FW634B/src/JTAG2.cpp:200
            answer_transfer();
    1204:	1f d9       	rcall	.-3522   	; 0x444 <JTAG2::answer_transfer()>
flush():
/Users/askn/Documents/Zinnia-tools/Products/hardware/UPDI4AVR/libraries/UPDI4AVR/examples/UPDI4AVR_FW634B/src/JTAG2.cpp:97
    JTAG_USART.STATUS = USART_TXCIF_bm;
    return JTAG_USART.TXDATAL = _data;
  }

  void flush (void) {
    loop_until_bit_is_set(JTAG_USART.STATUS, USART_TXCIF_bp);
    1206:	80 91 24 08 	lds	r24, 0x0824	; 0x800824 <__RODATA_PM_OFFSET__+0x7f8824>
    120a:	86 ff       	sbrs	r24, 6
    120c:	fc cf       	rjmp	.-8      	; 0x1206 <main+0x31a>
set_parameter():
/Users/askn/Documents/Zinnia-tools/Products/hardware/UPDI4AVR/libraries/UPDI4AVR/examples/UPDI4AVR_FW634B/src/JTAG2.cpp:203
            /* If normal, respond and then change speed */
            param_baud_rate_val = (jtag_baud_rate_e) param_val;
            answer_transfer();
            flush();
            /* If the division ratio is too small, change to double speed mode */
            if (baud < 64) {
    120e:	00 34       	cpi	r16, 0x40	; 64
    1210:	11 05       	cpc	r17, r1
    1212:	30 f4       	brcc	.+12     	; 0x1220 <main+0x334>
/Users/askn/Documents/Zinnia-tools/Products/hardware/UPDI4AVR/libraries/UPDI4AVR/examples/UPDI4AVR_FW634B/src/JTAG2.cpp:204
              JTAG_USART.CTRLB = JTAG_USART_DBLON;
    1214:	8a ec       	ldi	r24, 0xCA	; 202
    1216:	80 93 26 08 	sts	0x0826, r24	; 0x800826 <__RODATA_PM_OFFSET__+0x7f8826>
/Users/askn/Documents/Zinnia-tools/Products/hardware/UPDI4AVR/libraries/UPDI4AVR/examples/UPDI4AVR_FW634B/src/JTAG2.cpp:205
              baud <<= 1;
    121a:	78 01       	movw	r14, r16
    121c:	ee 0c       	add	r14, r14
    121e:	ff 1c       	adc	r15, r15
/Users/askn/Documents/Zinnia-tools/Products/hardware/UPDI4AVR/libraries/UPDI4AVR/examples/UPDI4AVR_FW634B/src/JTAG2.cpp:207
            }
            JTAG_USART.BAUD = baud;
    1220:	e0 92 28 08 	sts	0x0828, r14	; 0x800828 <__RODATA_PM_OFFSET__+0x7f8828>
    1224:	f0 92 29 08 	sts	0x0829, r15	; 0x800829 <__RODATA_PM_OFFSET__+0x7f8829>
/Users/askn/Documents/Zinnia-tools/Products/hardware/UPDI4AVR/libraries/UPDI4AVR/examples/UPDI4AVR_FW634B/src/JTAG2.cpp:209
            /* Speed to allow terminal mode */
            if (param_val == BAUD_38400 || param_val == BAUD_666666)
    1228:	35 e0       	ldi	r19, 0x05	; 5
    122a:	d3 16       	cp	r13, r19
    122c:	19 f0       	breq	.+6      	; 0x1234 <main+0x348>
    122e:	48 e1       	ldi	r20, 0x18	; 24
    1230:	d4 12       	cpse	r13, r20
    1232:	59 cf       	rjmp	.-334    	; 0x10e6 <main+0x1fa>
/Users/askn/Documents/Zinnia-tools/Products/hardware/UPDI4AVR/libraries/UPDI4AVR/examples/UPDI4AVR_FW634B/src/JTAG2.cpp:210
              bit_set(UPDI_CONTROL, UPDI::UPDI_TERM_bp);
    1234:	e5 9a       	sbi	0x1c, 5	; 28
    1236:	57 cf       	rjmp	.-338    	; 0x10e6 <main+0x1fa>
process_command():
/Users/askn/Documents/Zinnia-tools/Products/hardware/UPDI4AVR/libraries/UPDI4AVR/examples/UPDI4AVR_FW634B/src/JTAG2.cpp:338
    UPDI::_send_buf_clear();
    #endif
    uint8_t message_id = packet.body[MESSAGE_ID];
    packet.size = 1;
    packet.body[MESSAGE_ID] = RSP_OK;
    switch (message_id) {
    1238:	85 30       	cpi	r24, 0x05	; 5
    123a:	09 f4       	brne	.+2      	; 0x123e <main+0x352>
    123c:	2f c1       	rjmp	.+606    	; 0x149c <main+0x5b0>
    123e:	08 f4       	brcc	.+2      	; 0x1242 <main+0x356>
    1240:	34 c1       	rjmp	.+616    	; 0x14aa <main+0x5be>
    1242:	88 30       	cpi	r24, 0x08	; 8
    1244:	61 f0       	breq	.+24     	; 0x125e <main+0x372>
/Users/askn/Documents/Zinnia-tools/Products/hardware/UPDI4AVR/libraries/UPDI4AVR/examples/UPDI4AVR_FW634B/src/JTAG2.cpp:447
        // SYS::WDT_REBOOT();
        SYS::System_Reset();
      }
      /* Returns negation for unknown commands */
      default : {
        set_response(RSP_FAILED);
    1246:	80 ea       	ldi	r24, 0xA0	; 160
    1248:	90 e0       	ldi	r25, 0x00	; 0
    124a:	82 c0       	rjmp	.+260    	; 0x1350 <main+0x464>
/Users/askn/Documents/Zinnia-tools/Products/hardware/UPDI4AVR/libraries/UPDI4AVR/examples/UPDI4AVR_FW634B/src/JTAG2.cpp:338
    UPDI::_send_buf_clear();
    #endif
    uint8_t message_id = packet.body[MESSAGE_ID];
    packet.size = 1;
    packet.body[MESSAGE_ID] = RSP_OK;
    switch (message_id) {
    124c:	86 31       	cpi	r24, 0x16	; 22
    124e:	48 f4       	brcc	.+18     	; 0x1262 <main+0x376>
    1250:	84 31       	cpi	r24, 0x14	; 20
    1252:	28 f4       	brcc	.+10     	; 0x125e <main+0x372>
    1254:	8c 30       	cpi	r24, 0x0C	; 12
    1256:	09 f4       	brne	.+2      	; 0x125a <main+0x36e>
    1258:	44 c1       	rjmp	.+648    	; 0x14e2 <main+0x5f6>
    125a:	8f 30       	cpi	r24, 0x0F	; 15
/Users/askn/Documents/Zinnia-tools/Products/hardware/UPDI4AVR/libraries/UPDI4AVR/examples/UPDI4AVR_FW634B/src/JTAG2.cpp:450
      /* Returns negation for unknown commands */
      default : {
        set_response(RSP_FAILED);
      }
    }
    answer_transfer();
    125c:	a1 f7       	brne	.-24     	; 0x1246 <main+0x35a>
    125e:	f2 d8       	rcall	.-3612   	; 0x444 <JTAG2::answer_transfer()>
    1260:	42 cf       	rjmp	.-380    	; 0x10e6 <main+0x1fa>
/Users/askn/Documents/Zinnia-tools/Products/hardware/UPDI4AVR/libraries/UPDI4AVR/examples/UPDI4AVR_FW634B/src/JTAG2.cpp:338
    UPDI::_send_buf_clear();
    #endif
    uint8_t message_id = packet.body[MESSAGE_ID];
    packet.size = 1;
    packet.body[MESSAGE_ID] = RSP_OK;
    switch (message_id) {
    1262:	86 33       	cpi	r24, 0x36	; 54
    1264:	e1 f3       	breq	.-8      	; 0x125e <main+0x372>
    1266:	85 35       	cpi	r24, 0x55	; 85
    1268:	09 f4       	brne	.+2      	; 0x126c <main+0x380>
    126a:	58 c1       	rjmp	.+688    	; 0x151c <main+0x630>
    126c:	84 33       	cpi	r24, 0x34	; 52
    126e:	59 f7       	brne	.-42     	; 0x1246 <main+0x35a>
/Users/askn/Documents/Zinnia-tools/Products/hardware/UPDI4AVR/libraries/UPDI4AVR/examples/UPDI4AVR_FW634B/src/JTAG2.cpp:411
        #endif
        break;
      }
      case CMND_XMEGA_ERASE : {
        /* Received packet error retransmission exception */
        if (before_seqnum == packet.number) break;
    1270:	20 91 8f 38 	lds	r18, 0x388F	; 0x80388f <JTAG2::packet+0x1>
    1274:	30 91 90 38 	lds	r19, 0x3890	; 0x803890 <JTAG2::packet+0x2>
    1278:	80 91 38 38 	lds	r24, 0x3838	; 0x803838 <JTAG2::before_seqnum>
    127c:	90 91 39 38 	lds	r25, 0x3839	; 0x803839 <JTAG2::before_seqnum+0x1>
    1280:	28 17       	cp	r18, r24
    1282:	39 07       	cpc	r19, r25
/Users/askn/Documents/Zinnia-tools/Products/hardware/UPDI4AVR/libraries/UPDI4AVR/examples/UPDI4AVR_FW634B/src/JTAG2.cpp:412
        if (UPDI::runtime(UPDI::UPDI_CMD_ERASE)) {
    1284:	61 f3       	breq	.-40     	; 0x125e <main+0x372>
    1286:	83 e0       	ldi	r24, 0x03	; 3
    1288:	7d da       	rcall	.-2822   	; 0x784 <UPDI::runtime(unsigned char)>
    128a:	81 11       	cpse	r24, r1
/Users/askn/Documents/Zinnia-tools/Products/hardware/UPDI4AVR/libraries/UPDI4AVR/examples/UPDI4AVR_FW634B/src/JTAG2.cpp:417
          /* Keep the sequence number if completed successfully */
          before_seqnum = packet.number;
        }
        else {
          set_response(RSP_ILLEGAL_POWER_STATE);
    128c:	1e c1       	rjmp	.+572    	; 0x14ca <main+0x5de>
    128e:	8d ea       	ldi	r24, 0xAD	; 173
    1290:	90 e0       	ldi	r25, 0x00	; 0
/Users/askn/Documents/Zinnia-tools/Products/hardware/UPDI4AVR/libraries/UPDI4AVR/examples/UPDI4AVR_FW634B/src/SYS.cpp:166
  _PROTECTED_WRITE(WDT_CTRLA, _wdt_period);
}

void SYS::WDT_OFF (void) { WDT_SET(WDT_PERIOD_OFF_gc); }

void SYS::WDT_ON (void) { WDT_SET(WDT_PERIOD_8KCLK_gc); }
    1292:	5e c0       	rjmp	.+188    	; 0x1350 <main+0x464>
WDT_ON():
    1294:	8b e0       	ldi	r24, 0x0B	; 11
    1296:	6c d8       	rcall	.-3880   	; 0x370 <SYS::WDT_SET(unsigned char)>
RTS_Disable():
/Users/askn/Documents/Zinnia-tools/Products/hardware/UPDI4AVR/libraries/UPDI4AVR/examples/UPDI4AVR_FW634B/src/SYS.cpp:108
void SYS::RTS_Enable (void) {
  pinControlRegister(RTS_SENSE_PIN) = RTS_SENSE_CONFIG;
}

void SYS::RTS_Disable (void) {
  pinControlRegister(RTS_SENSE_PIN) = RTS_SENSE_DISABLE;
    1298:	88 e0       	ldi	r24, 0x08	; 8
    129a:	80 93 12 04 	sts	0x0412, r24	; 0x800412 <__RODATA_PM_OFFSET__+0x7f8412>
LED_Stop():
/Users/askn/Documents/Zinnia-tools/Products/hardware/UPDI4AVR/libraries/UPDI4AVR/examples/UPDI4AVR_FW634B/src/TIM.cpp:166
}

/* Suspension (before UPDI approval) */
/* TCA0 changed to charge pump drive speed */
void TIM::LED_Stop (void) {
  if (TIM::mode != 0) {
    129e:	80 91 61 38 	lds	r24, 0x3861	; 0x803861 <TIM::mode>
    12a2:	88 23       	and	r24, r24
    12a4:	41 f0       	breq	.+16     	; 0x12b6 <main+0x3ca>
/Users/askn/Documents/Zinnia-tools/Products/hardware/UPDI4AVR/libraries/UPDI4AVR/examples/UPDI4AVR_FW634B/src/TIM.cpp:167
    TIM::mode = 0;
    12a6:	10 92 61 38 	sts	0x3861, r1	; 0x803861 <TIM::mode>
/Users/askn/Documents/Zinnia-tools/Products/hardware/UPDI4AVR/libraries/UPDI4AVR/examples/UPDI4AVR_FW634B/src/TIM.cpp:168
    TCA0_SPLIT_CTRLA = TCA_SPLIT_RUNSTDBY_bm | TCA_SPLIT_ENABLE_bm | TCA_SPLIT_CLKSEL_DIV1_gc;
    12aa:	81 e8       	ldi	r24, 0x81	; 129
    12ac:	80 93 00 0a 	sts	0x0A00, r24	; 0x800a00 <__RODATA_PM_OFFSET__+0x7f8a00>
/Users/askn/Documents/Zinnia-tools/Products/hardware/UPDI4AVR/libraries/UPDI4AVR/examples/UPDI4AVR_FW634B/src/TIM.cpp:169
    LEDG_EVOUT = EVSYS_USER_OFF_gc;
    12b0:	10 92 a9 01 	sts	0x01A9, r1	; 0x8001a9 <__RODATA_PM_OFFSET__+0x7f81a9>
/Users/askn/Documents/Zinnia-tools/Products/hardware/UPDI4AVR/libraries/UPDI4AVR/examples/UPDI4AVR_FW634B/src/JTAG2.cpp:343
    switch (message_id) {
      case CMND_GET_SIGN_ON : {
        SYS::WDT_ON();
        SYS::RTS_Disable();
        TIM::LED_Stop();
        UPDI::Target_Reset(true);
    12b4:	0f 98       	cbi	0x01, 7	; 1
process_command():
    12b6:	81 e0       	ldi	r24, 0x01	; 1
    12b8:	2c d8       	rcall	.-4008   	; 0x312 <UPDI::Target_Reset(bool)>
/Users/askn/Documents/Zinnia-tools/Products/hardware/UPDI4AVR/libraries/UPDI4AVR/examples/UPDI4AVR_FW634B/src/JTAG2.cpp:344
        openDrainWrite(TRST_PIN, LOW);
    12ba:	21 9a       	sbi	0x04, 1	; 4
PG_Enable():
/Users/askn/Documents/Zinnia-tools/Products/hardware/UPDI4AVR/libraries/UPDI4AVR/examples/UPDI4AVR_FW634B/src/SYS.cpp:96
/******************
 * Various ON/OFF *
 ******************/

void SYS::PG_Enable (void) {
  digitalWrite(PGEN_PIN, HIGH);
    12bc:	48 9a       	sbi	0x09, 0	; 9
transfer_enable():
/Users/askn/Documents/Zinnia-tools/Products/hardware/UPDI4AVR/libraries/UPDI4AVR/examples/UPDI4AVR_FW634B/src/JTAG2.cpp:106
    return _crc_ccitt_update(_crc, _data);
  }

  void transfer_enable (void) {
    SYS::PG_Enable();
    pinMode(JTAG_TXD_PIN, OUTPUT);
    12be:	42 9a       	sbi	0x08, 2	; 8
    12c0:	10 92 52 04 	sts	0x0452, r1	; 0x800452 <__RODATA_PM_OFFSET__+0x7f8452>
/Users/askn/Documents/Zinnia-tools/Products/hardware/UPDI4AVR/libraries/UPDI4AVR/examples/UPDI4AVR_FW634B/src/JTAG2.cpp:107
    JTAG_USART.CTRLB = JTAG_USART_ON;
    12c4:	88 ec       	ldi	r24, 0xC8	; 200
    12c6:	80 93 26 08 	sts	0x0826, r24	; 0x800826 <__RODATA_PM_OFFSET__+0x7f8826>
sign_on_response():
/Users/askn/Documents/Zinnia-tools/Products/hardware/UPDI4AVR/libraries/UPDI4AVR/examples/UPDI4AVR_FW634B/src/JTAG2.cpp:168
  /********************
   * SIGN_ON Response *
   ********************/

  void sign_on_response (void) {
    NVM::before_address = -1;
    12ca:	40 92 5d 38 	sts	0x385D, r4	; 0x80385d <NVM::before_address>
    12ce:	50 92 5e 38 	sts	0x385E, r5	; 0x80385e <NVM::before_address+0x1>
    12d2:	60 92 5f 38 	sts	0x385F, r6	; 0x80385f <NVM::before_address+0x2>
    12d6:	70 92 60 38 	sts	0x3860, r7	; 0x803860 <NVM::before_address+0x3>
/Users/askn/Documents/Zinnia-tools/Products/hardware/UPDI4AVR/libraries/UPDI4AVR/examples/UPDI4AVR_FW634B/src/JTAG2.cpp:169
    packet.size = sizeof(sign_on_resp);
    12da:	80 92 91 38 	sts	0x3891, r8	; 0x803891 <JTAG2::packet+0x3>
    12de:	90 92 92 38 	sts	0x3892, r9	; 0x803892 <JTAG2::packet+0x4>
    12e2:	a0 92 93 38 	sts	0x3893, r10	; 0x803893 <JTAG2::packet+0x5>
    12e6:	b0 92 94 38 	sts	0x3894, r11	; 0x803894 <JTAG2::packet+0x6>
    12ea:	e8 e7       	ldi	r30, 0x78	; 120
    12ec:	f0 e0       	ldi	r31, 0x00	; 0
/Users/askn/Documents/Zinnia-tools/Products/hardware/UPDI4AVR/libraries/UPDI4AVR/examples/UPDI4AVR_FW634B/src/JTAG2.cpp:171
    for (uint8_t i = 0; i < sizeof(sign_on_resp); i++)
      packet.body[i] = pgm_read_byte( &sign_on_resp[i] );
    12ee:	84 91       	lpm	r24, Z
    12f0:	d8 01       	movw	r26, r16
    12f2:	8d 93       	st	X+, r24
    12f4:	8d 01       	movw	r16, r26
    12f6:	31 96       	adiw	r30, 0x01	; 1
/Users/askn/Documents/Zinnia-tools/Products/hardware/UPDI4AVR/libraries/UPDI4AVR/examples/UPDI4AVR_FW634B/src/JTAG2.cpp:170
   ********************/

  void sign_on_response (void) {
    NVM::before_address = -1;
    packet.size = sizeof(sign_on_resp);
    for (uint8_t i = 0; i < sizeof(sign_on_resp); i++)
    12f8:	23 eb       	ldi	r18, 0xB3	; 179
    12fa:	38 e3       	ldi	r19, 0x38	; 56
    12fc:	2a 17       	cp	r18, r26
    12fe:	3b 07       	cpc	r19, r27
    1300:	b1 f7       	brne	.-20     	; 0x12ee <main+0x402>
/Users/askn/Documents/Zinnia-tools/Products/hardware/UPDI4AVR/libraries/UPDI4AVR/examples/UPDI4AVR_FW634B/src/JTAG2.cpp:176
      packet.body[i] = pgm_read_byte( &sign_on_resp[i] );
    /* Generate version information from SERNUM */
    uint8_t* p = (uint8_t*) &SIGROW_SERNUM0;
    uint8_t* q = (uint8_t*) &SIGROW_SERNUM4;
    uint8_t* r = (uint8_t*) &packet.body[10];
      *r++ = *q++ ^ *p++ ^ *p++;
    1302:	80 91 07 11 	lds	r24, 0x1107	; 0x801107 <__RODATA_PM_OFFSET__+0x7f9107>
    1306:	90 91 03 11 	lds	r25, 0x1103	; 0x801103 <__RODATA_PM_OFFSET__+0x7f9103>
    130a:	89 27       	eor	r24, r25
    130c:	90 91 04 11 	lds	r25, 0x1104	; 0x801104 <__RODATA_PM_OFFSET__+0x7f9104>
    1310:	89 27       	eor	r24, r25
    1312:	80 93 a0 38 	sts	0x38A0, r24	; 0x8038a0 <JTAG2::packet+0x12>
/Users/askn/Documents/Zinnia-tools/Products/hardware/UPDI4AVR/libraries/UPDI4AVR/examples/UPDI4AVR_FW634B/src/JTAG2.cpp:177
      *r++ = *q++ ^ *p++ ^ *p++;
    1316:	80 91 08 11 	lds	r24, 0x1108	; 0x801108 <__RODATA_PM_OFFSET__+0x7f9108>
    131a:	90 91 05 11 	lds	r25, 0x1105	; 0x801105 <__RODATA_PM_OFFSET__+0x7f9105>
    131e:	89 27       	eor	r24, r25
    1320:	90 91 06 11 	lds	r25, 0x1106	; 0x801106 <__RODATA_PM_OFFSET__+0x7f9106>
    1324:	89 27       	eor	r24, r25
    1326:	80 93 a1 38 	sts	0x38A1, r24	; 0x8038a1 <JTAG2::packet+0x13>
/Users/askn/Documents/Zinnia-tools/Products/hardware/UPDI4AVR/libraries/UPDI4AVR/examples/UPDI4AVR_FW634B/src/JTAG2.cpp:178
      *r++ = *q++;
    132a:	80 91 09 11 	lds	r24, 0x1109	; 0x801109 <__RODATA_PM_OFFSET__+0x7f9109>
    132e:	80 93 a2 38 	sts	0x38A2, r24	; 0x8038a2 <JTAG2::packet+0x14>
/Users/askn/Documents/Zinnia-tools/Products/hardware/UPDI4AVR/libraries/UPDI4AVR/examples/UPDI4AVR_FW634B/src/JTAG2.cpp:179
      *r++ = *q++;
    1332:	80 91 0a 11 	lds	r24, 0x110A	; 0x80110a <__RODATA_PM_OFFSET__+0x7f910a>
    1336:	80 93 a3 38 	sts	0x38A3, r24	; 0x8038a3 <JTAG2::packet+0x15>
/Users/askn/Documents/Zinnia-tools/Products/hardware/UPDI4AVR/libraries/UPDI4AVR/examples/UPDI4AVR_FW634B/src/JTAG2.cpp:180
      *r++ = *q++;
    133a:	80 91 0b 11 	lds	r24, 0x110B	; 0x80110b <__RODATA_PM_OFFSET__+0x7f910b>
    133e:	80 93 a4 38 	sts	0x38A4, r24	; 0x8038a4 <JTAG2::packet+0x16>
/Users/askn/Documents/Zinnia-tools/Products/hardware/UPDI4AVR/libraries/UPDI4AVR/examples/UPDI4AVR_FW634B/src/JTAG2.cpp:181
      *r++ = *q++;
    1342:	80 91 0c 11 	lds	r24, 0x110C	; 0x80110c <__RODATA_PM_OFFSET__+0x7f910c>
    1346:	80 93 a5 38 	sts	0x38A5, r24	; 0x8038a5 <JTAG2::packet+0x17>
/Users/askn/Documents/Zinnia-tools/Products/hardware/UPDI4AVR/libraries/UPDI4AVR/examples/UPDI4AVR_FW634B/src/JTAG2.cpp:215
              bit_set(UPDI_CONTROL, UPDI::UPDI_TERM_bp);
            return false;
          }
        }
        /* Range violation results in failure response */
        set_response(RSP_ILLEGAL_VALUE);
    134a:	89 cf       	rjmp	.-238    	; 0x125e <main+0x372>
set_parameter():
    134c:	86 ea       	ldi	r24, 0xA6	; 166
/Users/askn/Documents/Zinnia-tools/Products/hardware/UPDI4AVR/libraries/UPDI4AVR/examples/UPDI4AVR_FW634B/src/JTAG2.cpp:447
        // SYS::WDT_REBOOT();
        SYS::System_Reset();
      }
      /* Returns negation for unknown commands */
      default : {
        set_response(RSP_FAILED);
    134e:	90 e0       	ldi	r25, 0x00	; 0
process_command():
    1350:	55 d8       	rcall	.-3926   	; 0x3fc <JTAG2::set_response(JTAG2::jtag_response_e)>
    1352:	85 cf       	rjmp	.-246    	; 0x125e <main+0x372>
get_parameter():
/Users/askn/Documents/Zinnia-tools/Products/hardware/UPDI4AVR/libraries/UPDI4AVR/examples/UPDI4AVR_FW634B/src/JTAG2.cpp:235
  /**********************
   * CMND_GET_PARAMETER *
   **********************/

  void get_parameter (void) {
    switch ( packet.body[RSP_DATA] ) {
    1354:	80 91 97 38 	lds	r24, 0x3897	; 0x803897 <JTAG2::packet+0x9>
    1358:	83 30       	cpi	r24, 0x03	; 3
    135a:	c9 f1       	breq	.+114    	; 0x13ce <main+0x4e2>
    135c:	38 f4       	brcc	.+14     	; 0x136c <main+0x480>
    135e:	81 30       	cpi	r24, 0x01	; 1
    1360:	b1 f0       	breq	.+44     	; 0x138e <main+0x4a2>
    1362:	82 30       	cpi	r24, 0x02	; 2
    1364:	f1 f0       	breq	.+60     	; 0x13a2 <main+0x4b6>
/Users/askn/Documents/Zinnia-tools/Products/hardware/UPDI4AVR/libraries/UPDI4AVR/examples/UPDI4AVR_FW634B/src/JTAG2.cpp:282
          packet.size_word[0] = 1 + sizeof(updi_desc.sib);
          break;
        }
      }
      default : {
        set_response(RSP_ILLEGAL_PARAMETER);
    1366:	81 ea       	ldi	r24, 0xA1	; 161
    1368:	90 e0       	ldi	r25, 0x00	; 0
    136a:	f2 cf       	rjmp	.-28     	; 0x1350 <main+0x464>
/Users/askn/Documents/Zinnia-tools/Products/hardware/UPDI4AVR/libraries/UPDI4AVR/examples/UPDI4AVR_FW634B/src/JTAG2.cpp:235
  /**********************
   * CMND_GET_PARAMETER *
   **********************/

  void get_parameter (void) {
    switch ( packet.body[RSP_DATA] ) {
    136c:	86 30       	cpi	r24, 0x06	; 6
    136e:	c9 f1       	breq	.+114    	; 0x13e2 <main+0x4f6>
    1370:	8d 31       	cpi	r24, 0x1D	; 29
    1372:	f1 f1       	breq	.+124    	; 0x13f0 <main+0x504>
    1374:	85 30       	cpi	r24, 0x05	; 5
    1376:	b9 f7       	brne	.-18     	; 0x1366 <main+0x47a>
/Users/askn/Documents/Zinnia-tools/Products/hardware/UPDI4AVR/libraries/UPDI4AVR/examples/UPDI4AVR_FW634B/src/JTAG2.cpp:258
        packet.body[1] = 0x55;
        packet.size_word[0] = 2;
        break;
      }
      case PAR_BAUD_RATE : {
        packet.body[1] = param_baud_rate_val;
    1378:	80 91 36 38 	lds	r24, 0x3836	; 0x803836 <JTAG2::param_baud_rate_val>
    137c:	80 93 97 38 	sts	0x3897, r24	; 0x803897 <JTAG2::packet+0x9>
/Users/askn/Documents/Zinnia-tools/Products/hardware/UPDI4AVR/libraries/UPDI4AVR/examples/UPDI4AVR_FW634B/src/JTAG2.cpp:259
        packet.size_word[0] = 2;
    1380:	e2 e0       	ldi	r30, 0x02	; 2
    1382:	f0 e0       	ldi	r31, 0x00	; 0
    1384:	e0 93 91 38 	sts	0x3891, r30	; 0x803891 <JTAG2::packet+0x3>
    1388:	f0 93 92 38 	sts	0x3892, r31	; 0x803892 <JTAG2::packet+0x4>
    138c:	1c c0       	rjmp	.+56     	; 0x13c6 <main+0x4da>
/Users/askn/Documents/Zinnia-tools/Products/hardware/UPDI4AVR/libraries/UPDI4AVR/examples/UPDI4AVR_FW634B/src/JTAG2.cpp:237
   **********************/

  void get_parameter (void) {
    switch ( packet.body[RSP_DATA] ) {
      case PAR_HW_VER : {
        packet.body[1] = sign_on_resp[5];
    138e:	82 e0       	ldi	r24, 0x02	; 2
    1390:	80 93 97 38 	sts	0x3897, r24	; 0x803897 <JTAG2::packet+0x9>
/Users/askn/Documents/Zinnia-tools/Products/hardware/UPDI4AVR/libraries/UPDI4AVR/examples/UPDI4AVR_FW634B/src/JTAG2.cpp:238
        packet.body[2] = sign_on_resp[9];
    1394:	80 93 98 38 	sts	0x3898, r24	; 0x803898 <JTAG2::packet+0xa>
/Users/askn/Documents/Zinnia-tools/Products/hardware/UPDI4AVR/libraries/UPDI4AVR/examples/UPDI4AVR_FW634B/src/JTAG2.cpp:264
        packet.size_word[0] = 2;
        break;
      }
      case PAR_VTARGET : {
        _CAPS16(packet.body[1])->word = SYS::get_vcc();
        packet.size_word[0] = 3;
    1398:	20 92 91 38 	sts	0x3891, r2	; 0x803891 <JTAG2::packet+0x3>
    139c:	30 92 92 38 	sts	0x3892, r3	; 0x803892 <JTAG2::packet+0x4>
    13a0:	12 c0       	rjmp	.+36     	; 0x13c6 <main+0x4da>
/Users/askn/Documents/Zinnia-tools/Products/hardware/UPDI4AVR/libraries/UPDI4AVR/examples/UPDI4AVR_FW634B/src/JTAG2.cpp:243
        packet.body[2] = sign_on_resp[9];
        packet.size_word[0] = 3;
        break;
      }
      case PAR_FW_VER : {
        packet.body[1] = sign_on_resp[3];
    13a2:	85 e3       	ldi	r24, 0x35	; 53
    13a4:	80 93 97 38 	sts	0x3897, r24	; 0x803897 <JTAG2::packet+0x9>
/Users/askn/Documents/Zinnia-tools/Products/hardware/UPDI4AVR/libraries/UPDI4AVR/examples/UPDI4AVR_FW634B/src/JTAG2.cpp:244
        packet.body[2] = sign_on_resp[4];
    13a8:	87 e0       	ldi	r24, 0x07	; 7
    13aa:	80 93 98 38 	sts	0x3898, r24	; 0x803898 <JTAG2::packet+0xa>
/Users/askn/Documents/Zinnia-tools/Products/hardware/UPDI4AVR/libraries/UPDI4AVR/examples/UPDI4AVR_FW634B/src/JTAG2.cpp:245
        packet.body[3] = sign_on_resp[7];
    13ae:	82 e2       	ldi	r24, 0x22	; 34
    13b0:	80 93 99 38 	sts	0x3899, r24	; 0x803899 <JTAG2::packet+0xb>
/Users/askn/Documents/Zinnia-tools/Products/hardware/UPDI4AVR/libraries/UPDI4AVR/examples/UPDI4AVR_FW634B/src/JTAG2.cpp:246
        packet.body[4] = sign_on_resp[8];
    13b4:	86 e0       	ldi	r24, 0x06	; 6
    13b6:	80 93 9a 38 	sts	0x389A, r24	; 0x80389a <JTAG2::packet+0xc>
/Users/askn/Documents/Zinnia-tools/Products/hardware/UPDI4AVR/libraries/UPDI4AVR/examples/UPDI4AVR_FW634B/src/JTAG2.cpp:247
        packet.size_word[0] = 5;
    13ba:	85 e0       	ldi	r24, 0x05	; 5
    13bc:	90 e0       	ldi	r25, 0x00	; 0
    13be:	80 93 91 38 	sts	0x3891, r24	; 0x803891 <JTAG2::packet+0x3>
    13c2:	90 93 92 38 	sts	0x3892, r25	; 0x803892 <JTAG2::packet+0x4>
/Users/askn/Documents/Zinnia-tools/Products/hardware/UPDI4AVR/libraries/UPDI4AVR/examples/UPDI4AVR_FW634B/src/JTAG2.cpp:286
      default : {
        set_response(RSP_ILLEGAL_PARAMETER);
        return;
      }
    }
    packet.body[MESSAGE_ID] = RSP_PARAMETER;
    13c6:	81 e8       	ldi	r24, 0x81	; 129
    13c8:	80 93 96 38 	sts	0x3896, r24	; 0x803896 <JTAG2::packet+0x8>
    13cc:	48 cf       	rjmp	.-368    	; 0x125e <main+0x372>
/Users/askn/Documents/Zinnia-tools/Products/hardware/UPDI4AVR/libraries/UPDI4AVR/examples/UPDI4AVR_FW634B/src/JTAG2.cpp:253
        break;
      }
      case PAR_EMU_MODE : {
        /* This response code indicates an UPDI-only implementation */
        /* In normal JTAGICEmkII this is never queried */
        packet.body[1] = 0x55;
    13ce:	85 e5       	ldi	r24, 0x55	; 85
    13d0:	80 93 97 38 	sts	0x3897, r24	; 0x803897 <JTAG2::packet+0x9>
/Users/askn/Documents/Zinnia-tools/Products/hardware/UPDI4AVR/libraries/UPDI4AVR/examples/UPDI4AVR_FW634B/src/JTAG2.cpp:254
        packet.size_word[0] = 2;
    13d4:	a2 e0       	ldi	r26, 0x02	; 2
    13d6:	b0 e0       	ldi	r27, 0x00	; 0
    13d8:	a0 93 91 38 	sts	0x3891, r26	; 0x803891 <JTAG2::packet+0x3>
    13dc:	b0 93 92 38 	sts	0x3892, r27	; 0x803892 <JTAG2::packet+0x4>
    13e0:	f2 cf       	rjmp	.-28     	; 0x13c6 <main+0x4da>
/Users/askn/Documents/Zinnia-tools/Products/hardware/UPDI4AVR/libraries/UPDI4AVR/examples/UPDI4AVR_FW634B/src/JTAG2.cpp:263
        packet.body[1] = param_baud_rate_val;
        packet.size_word[0] = 2;
        break;
      }
      case PAR_VTARGET : {
        _CAPS16(packet.body[1])->word = SYS::get_vcc();
    13e2:	0e 94 c1 01 	call	0x382	; 0x382 <SYS::get_vcc()>
    13e6:	80 93 97 38 	sts	0x3897, r24	; 0x803897 <JTAG2::packet+0x9>
    13ea:	90 93 98 38 	sts	0x3898, r25	; 0x803898 <JTAG2::packet+0xa>
    13ee:	d4 cf       	rjmp	.-88     	; 0x1398 <main+0x4ac>
/Users/askn/Documents/Zinnia-tools/Products/hardware/UPDI4AVR/libraries/UPDI4AVR/examples/UPDI4AVR_FW634B/src/JTAG2.cpp:273
      case PAR_TARGET_SIGNATURE : {
        /* SIB information can be returned as an extended signature. */
        /* Responds correctly only during programming mode.          */
        /* otherwise an error will be returned.                      */
        /* Silicon revision (REVID) can be read as normal IO memory. */
        if (bit_is_set(UPDI_CONTROL, UPDI::UPDI_INFO_bp)) {
    13f0:	e0 9b       	sbis	0x1c, 0	; 28
    13f2:	b9 cf       	rjmp	.-142    	; 0x1366 <main+0x47a>
    13f4:	ee e6       	ldi	r30, 0x6E	; 110
    13f6:	f8 e3       	ldi	r31, 0x38	; 56
    13f8:	a7 e9       	ldi	r26, 0x97	; 151
    13fa:	b8 e3       	ldi	r27, 0x38	; 56
/Users/askn/Documents/Zinnia-tools/Products/hardware/UPDI4AVR/libraries/UPDI4AVR/examples/UPDI4AVR_FW634B/src/JTAG2.cpp:276
          uint8_t *q = &packet.body[RSP_DATA];
          uint8_t *p = &updi_desc.sib[0];
          for (uint8_t i = 0; i < sizeof(updi_desc.sib); i++) *q++ = *p++;
    13fc:	81 91       	ld	r24, Z+
    13fe:	8d 93       	st	X+, r24
    1400:	2e e8       	ldi	r18, 0x8E	; 142
    1402:	38 e3       	ldi	r19, 0x38	; 56
    1404:	2e 17       	cp	r18, r30
    1406:	3f 07       	cpc	r19, r31
    1408:	c9 f7       	brne	.-14     	; 0x13fc <main+0x510>
/Users/askn/Documents/Zinnia-tools/Products/hardware/UPDI4AVR/libraries/UPDI4AVR/examples/UPDI4AVR_FW634B/src/JTAG2.cpp:277
          packet.size_word[0] = 1 + sizeof(updi_desc.sib);
    140a:	41 e2       	ldi	r20, 0x21	; 33
    140c:	50 e0       	ldi	r21, 0x00	; 0
    140e:	40 93 91 38 	sts	0x3891, r20	; 0x803891 <JTAG2::packet+0x3>
    1412:	50 93 92 38 	sts	0x3892, r21	; 0x803892 <JTAG2::packet+0x4>
    1416:	d7 cf       	rjmp	.-82     	; 0x13c6 <main+0x4da>
process_command():
/Users/askn/Documents/Zinnia-tools/Products/hardware/UPDI4AVR/libraries/UPDI4AVR/examples/UPDI4AVR_FW634B/src/JTAG2.cpp:360
        get_parameter();
        break;
      }
      case CMND_RESET : {
        /* Run only the first time */
        if (bit_is_clear(UPDI_CONTROL, UPDI::UPDI_INIT_bp)) {
    1418:	e7 99       	sbic	0x1c, 7	; 28
    141a:	21 cf       	rjmp	.-446    	; 0x125e <main+0x372>
/Users/askn/Documents/Zinnia-tools/Products/hardware/UPDI4AVR/libraries/UPDI4AVR/examples/UPDI4AVR_FW634B/src/JTAG2.cpp:361
          uint8_t hv_control = packet.body[RSP_DATA];
    141c:	80 91 97 38 	lds	r24, 0x3897	; 0x803897 <JTAG2::packet+0x9>
/Users/askn/Documents/Zinnia-tools/Products/hardware/UPDI4AVR/libraries/UPDI4AVR/examples/UPDI4AVR_FW634B/src/JTAG2.cpp:362
          if ((hv_control & '0') == '0') {
    1420:	98 2f       	mov	r25, r24
    1422:	90 73       	andi	r25, 0x30	; 48
    1424:	90 33       	cpi	r25, 0x30	; 48
/Users/askn/Documents/Zinnia-tools/Products/hardware/UPDI4AVR/libraries/UPDI4AVR/examples/UPDI4AVR_FW634B/src/JTAG2.cpp:366
            /* If the general reset setting is neither 0 nor 1. */
            /* Accepts special extension settings.              */
            /* This forces HV control.                          */
            updi_desc.hvupdi_variant = hv_control;
    1426:	29 f4       	brne	.+10     	; 0x1432 <main+0x546>
    1428:	80 93 64 38 	sts	0x3864, r24	; 0x803864 <JTAG2::updi_desc+0x2>
/Users/askn/Documents/Zinnia-tools/Products/hardware/UPDI4AVR/libraries/UPDI4AVR/examples/UPDI4AVR_FW634B/src/JTAG2.cpp:368
            /* '1' must be passed for automatic HV control to be inhibited */
            if (hv_control != '1') bit_set(UPDI_CONTROL, UPDI::UPDI_FCHV_bp);
    142c:	81 33       	cpi	r24, 0x31	; 49
    142e:	09 f0       	breq	.+2      	; 0x1432 <main+0x546>
/Users/askn/Documents/Zinnia-tools/Products/hardware/UPDI4AVR/libraries/UPDI4AVR/examples/UPDI4AVR_FW634B/src/JTAG2.cpp:371
          }
          /* Here UPDI control is tried */
          UPDI::updi_activate();
    1430:	e4 9a       	sbi	0x1c, 4	; 28
    1432:	87 dc       	rcall	.-1778   	; 0xd42 <UPDI::updi_activate()>
    1434:	80 91 61 38 	lds	r24, 0x3861	; 0x803861 <TIM::mode>
/Users/askn/Documents/Zinnia-tools/Products/hardware/UPDI4AVR/libraries/UPDI4AVR/examples/UPDI4AVR_FW634B/src/JTAG2.cpp:372
          if (bit_is_set(UPDI_CONTROL, UPDI::UPDI_TERM_bp)) {
    1438:	e5 9b       	sbis	0x1c, 5	; 28
    143a:	1a c0       	rjmp	.+52     	; 0x1470 <main+0x584>
LED_TCB1():
/Users/askn/Documents/Zinnia-tools/Products/hardware/UPDI4AVR/libraries/UPDI4AVR/examples/UPDI4AVR_FW634B/src/TIM.cpp:139
    LEDG_EVOUT = EVSYS_USER_CHANNEL2_gc;
  }
}

void LED_TCB1 (uint8_t mode, uint16_t ccmp) {
  if (TIM::mode != mode) {
    143c:	83 30       	cpi	r24, 0x03	; 3
    143e:	99 f0       	breq	.+38     	; 0x1466 <main+0x57a>
/Users/askn/Documents/Zinnia-tools/Products/hardware/UPDI4AVR/libraries/UPDI4AVR/examples/UPDI4AVR_FW634B/src/TIM.cpp:140
    TIM::mode = mode;
    1440:	83 e0       	ldi	r24, 0x03	; 3
    1442:	80 93 61 38 	sts	0x3861, r24	; 0x803861 <TIM::mode>
/Users/askn/Documents/Zinnia-tools/Products/hardware/UPDI4AVR/libraries/UPDI4AVR/examples/UPDI4AVR_FW634B/src/TIM.cpp:141
    TCB1_CCMP = ccmp;
    1446:	89 ea       	ldi	r24, 0xA9	; 169
    1448:	95 e5       	ldi	r25, 0x55	; 85
    144a:	80 93 9c 0a 	sts	0x0A9C, r24	; 0x800a9c <__RODATA_PM_OFFSET__+0x7f8a9c>
    144e:	90 93 9d 0a 	sts	0x0A9D, r25	; 0x800a9d <__RODATA_PM_OFFSET__+0x7f8a9d>
/Users/askn/Documents/Zinnia-tools/Products/hardware/UPDI4AVR/libraries/UPDI4AVR/examples/UPDI4AVR_FW634B/src/TIM.cpp:142
    TCB1_CNT = 0;
    1452:	10 92 9a 0a 	sts	0x0A9A, r1	; 0x800a9a <__RODATA_PM_OFFSET__+0x7f8a9a>
    1456:	10 92 9b 0a 	sts	0x0A9B, r1	; 0x800a9b <__RODATA_PM_OFFSET__+0x7f8a9b>
/Users/askn/Documents/Zinnia-tools/Products/hardware/UPDI4AVR/libraries/UPDI4AVR/examples/UPDI4AVR_FW634B/src/TIM.cpp:143
    TCB1_CTRLA = TCB_RUNSTDBY_bm | TCB_ENABLE_bm | TCB_CLKSEL_EVENT_gc;
    145a:	8f e4       	ldi	r24, 0x4F	; 79
    145c:	80 93 90 0a 	sts	0x0A90, r24	; 0x800a90 <__RODATA_PM_OFFSET__+0x7f8a90>
/Users/askn/Documents/Zinnia-tools/Products/hardware/UPDI4AVR/libraries/UPDI4AVR/examples/UPDI4AVR_FW634B/src/TIM.cpp:144
    LEDG_EVOUT = EVSYS_USER_CHANNEL0_gc;
    1460:	81 e0       	ldi	r24, 0x01	; 1
    1462:	80 93 a9 01 	sts	0x01A9, r24	; 0x8001a9 <__RODATA_PM_OFFSET__+0x7f81a9>
WDT_OFF():
/Users/askn/Documents/Zinnia-tools/Products/hardware/UPDI4AVR/libraries/UPDI4AVR/examples/UPDI4AVR_FW634B/src/SYS.cpp:164
void SYS::WDT_SET (uint8_t _wdt_period) {
  loop_until_bit_is_clear(WDT_STATUS, WDT_SYNCBUSY_bp);
  _PROTECTED_WRITE(WDT_CTRLA, _wdt_period);
}

void SYS::WDT_OFF (void) { WDT_SET(WDT_PERIOD_OFF_gc); }
    1466:	80 e0       	ldi	r24, 0x00	; 0
    1468:	0e 94 b8 01 	call	0x370	; 0x370 <SYS::WDT_SET(unsigned char)>
process_command():
/Users/askn/Documents/Zinnia-tools/Products/hardware/UPDI4AVR/libraries/UPDI4AVR/examples/UPDI4AVR_FW634B/src/JTAG2.cpp:381
          }
          else {
            /* If not set to interactive mode, the LED will flash rapidly */
            TIM::LED_Fast();
          }
          bit_set(UPDI_CONTROL, UPDI::UPDI_INIT_bp);
    146c:	e7 9a       	sbi	0x1c, 7	; 28
    146e:	f7 ce       	rjmp	.-530    	; 0x125e <main+0x372>
LED_TCB1():
/Users/askn/Documents/Zinnia-tools/Products/hardware/UPDI4AVR/libraries/UPDI4AVR/examples/UPDI4AVR_FW634B/src/TIM.cpp:139
    LEDG_EVOUT = EVSYS_USER_CHANNEL2_gc;
  }
}

void LED_TCB1 (uint8_t mode, uint16_t ccmp) {
  if (TIM::mode != mode) {
    1470:	84 30       	cpi	r24, 0x04	; 4
    1472:	e1 f3       	breq	.-8      	; 0x146c <main+0x580>
/Users/askn/Documents/Zinnia-tools/Products/hardware/UPDI4AVR/libraries/UPDI4AVR/examples/UPDI4AVR_FW634B/src/TIM.cpp:140
    TIM::mode = mode;
    1474:	84 e0       	ldi	r24, 0x04	; 4
    1476:	80 93 61 38 	sts	0x3861, r24	; 0x803861 <TIM::mode>
/Users/askn/Documents/Zinnia-tools/Products/hardware/UPDI4AVR/libraries/UPDI4AVR/examples/UPDI4AVR_FW634B/src/TIM.cpp:141
    TCB1_CCMP = ccmp;
    147a:	a5 e1       	ldi	r26, 0x15	; 21
    147c:	b4 e0       	ldi	r27, 0x04	; 4
    147e:	a0 93 9c 0a 	sts	0x0A9C, r26	; 0x800a9c <__RODATA_PM_OFFSET__+0x7f8a9c>
    1482:	b0 93 9d 0a 	sts	0x0A9D, r27	; 0x800a9d <__RODATA_PM_OFFSET__+0x7f8a9d>
/Users/askn/Documents/Zinnia-tools/Products/hardware/UPDI4AVR/libraries/UPDI4AVR/examples/UPDI4AVR_FW634B/src/TIM.cpp:142
    TCB1_CNT = 0;
    1486:	10 92 9a 0a 	sts	0x0A9A, r1	; 0x800a9a <__RODATA_PM_OFFSET__+0x7f8a9a>
    148a:	10 92 9b 0a 	sts	0x0A9B, r1	; 0x800a9b <__RODATA_PM_OFFSET__+0x7f8a9b>
/Users/askn/Documents/Zinnia-tools/Products/hardware/UPDI4AVR/libraries/UPDI4AVR/examples/UPDI4AVR_FW634B/src/TIM.cpp:143
    TCB1_CTRLA = TCB_RUNSTDBY_bm | TCB_ENABLE_bm | TCB_CLKSEL_EVENT_gc;
    148e:	8f e4       	ldi	r24, 0x4F	; 79
    1490:	80 93 90 0a 	sts	0x0A90, r24	; 0x800a90 <__RODATA_PM_OFFSET__+0x7f8a90>
/Users/askn/Documents/Zinnia-tools/Products/hardware/UPDI4AVR/libraries/UPDI4AVR/examples/UPDI4AVR_FW634B/src/TIM.cpp:144
    LEDG_EVOUT = EVSYS_USER_CHANNEL0_gc;
    1494:	81 e0       	ldi	r24, 0x01	; 1
    1496:	80 93 a9 01 	sts	0x01A9, r24	; 0x8001a9 <__RODATA_PM_OFFSET__+0x7f81a9>
/Users/askn/Documents/Zinnia-tools/Products/hardware/UPDI4AVR/libraries/UPDI4AVR/examples/UPDI4AVR_FW634B/src/JTAG2.cpp:389
        UPDI::_send_buf_copy();
        #endif
        break;
      }
      case CMND_READ_MEMORY : {
        if (!UPDI::runtime(UPDI::UPDI_CMD_READ_MEMORY)) {
    149a:	e8 cf       	rjmp	.-48     	; 0x146c <main+0x580>
process_command():
    149c:	81 e0       	ldi	r24, 0x01	; 1
    149e:	72 d9       	rcall	.-3356   	; 0x784 <UPDI::runtime(unsigned char)>
    14a0:	81 11       	cpse	r24, r1
    14a2:	dd ce       	rjmp	.-582    	; 0x125e <main+0x372>
/Users/askn/Documents/Zinnia-tools/Products/hardware/UPDI4AVR/libraries/UPDI4AVR/examples/UPDI4AVR_FW634B/src/JTAG2.cpp:390
          set_response(RSP_NO_TARGET_POWER);
    14a4:	8b ea       	ldi	r24, 0xAB	; 171
    14a6:	90 e0       	ldi	r25, 0x00	; 0
    14a8:	53 cf       	rjmp	.-346    	; 0x1350 <main+0x464>
/Users/askn/Documents/Zinnia-tools/Products/hardware/UPDI4AVR/libraries/UPDI4AVR/examples/UPDI4AVR_FW634B/src/JTAG2.cpp:396
        }
        break;
      }
      case CMND_WRITE_MEMORY : {
        /* Received packet error retransmission exception */
        if (before_seqnum == packet.number) break;
    14aa:	20 91 8f 38 	lds	r18, 0x388F	; 0x80388f <JTAG2::packet+0x1>
    14ae:	30 91 90 38 	lds	r19, 0x3890	; 0x803890 <JTAG2::packet+0x2>
    14b2:	80 91 38 38 	lds	r24, 0x3838	; 0x803838 <JTAG2::before_seqnum>
    14b6:	90 91 39 38 	lds	r25, 0x3839	; 0x803839 <JTAG2::before_seqnum+0x1>
    14ba:	28 17       	cp	r18, r24
    14bc:	39 07       	cpc	r19, r25
    14be:	09 f4       	brne	.+2      	; 0x14c2 <main+0x5d6>
/Users/askn/Documents/Zinnia-tools/Products/hardware/UPDI4AVR/libraries/UPDI4AVR/examples/UPDI4AVR_FW634B/src/JTAG2.cpp:397
        if (UPDI::runtime(UPDI::UPDI_CMD_WRITE_MEMORY)) {
    14c0:	ce ce       	rjmp	.-612    	; 0x125e <main+0x372>
    14c2:	82 e0       	ldi	r24, 0x02	; 2
    14c4:	5f d9       	rcall	.-3394   	; 0x784 <UPDI::runtime(unsigned char)>
    14c6:	88 23       	and	r24, r24
    14c8:	49 f0       	breq	.+18     	; 0x14dc <main+0x5f0>
/Users/askn/Documents/Zinnia-tools/Products/hardware/UPDI4AVR/libraries/UPDI4AVR/examples/UPDI4AVR_FW634B/src/JTAG2.cpp:414
      case CMND_XMEGA_ERASE : {
        /* Received packet error retransmission exception */
        if (before_seqnum == packet.number) break;
        if (UPDI::runtime(UPDI::UPDI_CMD_ERASE)) {
          /* Keep the sequence number if completed successfully */
          before_seqnum = packet.number;
    14ca:	80 91 8f 38 	lds	r24, 0x388F	; 0x80388f <JTAG2::packet+0x1>
    14ce:	90 91 90 38 	lds	r25, 0x3890	; 0x803890 <JTAG2::packet+0x2>
    14d2:	80 93 38 38 	sts	0x3838, r24	; 0x803838 <JTAG2::before_seqnum>
    14d6:	90 93 39 38 	sts	0x3839, r25	; 0x803839 <JTAG2::before_seqnum+0x1>
    14da:	c1 ce       	rjmp	.-638    	; 0x125e <main+0x372>
/Users/askn/Documents/Zinnia-tools/Products/hardware/UPDI4AVR/libraries/UPDI4AVR/examples/UPDI4AVR_FW634B/src/JTAG2.cpp:402
        if (UPDI::runtime(UPDI::UPDI_CMD_WRITE_MEMORY)) {
          /* Keep the sequence number if completed successfully */
          before_seqnum = packet.number;
        }
        else {
          set_response(RSP_ILLEGAL_MCU_STATE);
    14dc:	85 ea       	ldi	r24, 0xA5	; 165
    14de:	90 e0       	ldi	r25, 0x00	; 0
    14e0:	37 cf       	rjmp	.-402    	; 0x1350 <main+0x464>
set_descripter():
/Users/askn/Documents/Zinnia-tools/Products/hardware/UPDI4AVR/libraries/UPDI4AVR/examples/UPDI4AVR_FW634B/src/JTAG2.cpp:297

  void set_descripter (uint8_t type) {
    if (type == CMND_SET_DEVICE_DESC) {
      const struct jtag_device_descriptor *desc =
           (struct jtag_device_descriptor*)&packet.body[RSP_DATA];
      updi_desc.flash_page_size = *(uint16_t*)(&desc->uiFlashPageSize[0]);
    14e2:	80 91 8a 39 	lds	r24, 0x398A	; 0x80398a <JTAG2::packet+0xfc>
    14e6:	90 91 8b 39 	lds	r25, 0x398B	; 0x80398b <JTAG2::packet+0xfd>
    14ea:	80 93 66 38 	sts	0x3866, r24	; 0x803866 <JTAG2::updi_desc+0x4>
    14ee:	90 93 67 38 	sts	0x3867, r25	; 0x803867 <JTAG2::updi_desc+0x5>
/Users/askn/Documents/Zinnia-tools/Products/hardware/UPDI4AVR/libraries/UPDI4AVR/examples/UPDI4AVR_FW634B/src/JTAG2.cpp:298
      updi_desc.eeprom_page_size = desc->ucEepromPageSize;
    14f2:	80 91 8c 39 	lds	r24, 0x398C	; 0x80398c <JTAG2::packet+0xfe>
    14f6:	80 93 68 38 	sts	0x3868, r24	; 0x803868 <JTAG2::updi_desc+0x6>
/Users/askn/Documents/Zinnia-tools/Products/hardware/UPDI4AVR/libraries/UPDI4AVR/examples/UPDI4AVR_FW634B/src/JTAG2.cpp:299
      if ((desc->ucIDRAddress & '0') == '0') {
    14fa:	90 91 87 39 	lds	r25, 0x3987	; 0x803987 <JTAG2::packet+0xf9>
    14fe:	29 2f       	mov	r18, r25
    1500:	20 73       	andi	r18, 0x30	; 48
    1502:	20 33       	cpi	r18, 0x30	; 48
    1504:	19 f4       	brne	.+6      	; 0x150c <main+0x620>
/Users/askn/Documents/Zinnia-tools/Products/hardware/UPDI4AVR/libraries/UPDI4AVR/examples/UPDI4AVR_FW634B/src/JTAG2.cpp:303
        /* Accepts special extension settings. */
        /* 0x31 must be passed for automatic HV control to be inhibited. */
        /* This parameter can be specified in the `idr` descriptor in the `part` section. */
        updi_desc.hvupdi_variant = desc->ucIDRAddress;  // Valid value 0x30,0x31 or 0x32
    1506:	90 93 64 38 	sts	0x3864, r25	; 0x803864 <JTAG2::updi_desc+0x2>
    150a:	a9 ce       	rjmp	.-686    	; 0x125e <main+0x372>
/Users/askn/Documents/Zinnia-tools/Products/hardware/UPDI4AVR/libraries/UPDI4AVR/examples/UPDI4AVR_FW634B/src/JTAG2.cpp:308
      }
      else {
        /* If the EEPROM page size is 32 or more, it is considered a HV=12V system. */
        /* This setting will be referenced when automatic HV control is requested.  */
        updi_desc.hvupdi_variant = updi_desc.eeprom_page_size >= 32 ? '0' : '2';
    150c:	80 32       	cpi	r24, 0x20	; 32
    150e:	20 f4       	brcc	.+8      	; 0x1518 <main+0x62c>
main():
    1510:	82 e3       	ldi	r24, 0x32	; 50
set_descripter():
    1512:	80 93 64 38 	sts	0x3864, r24	; 0x803864 <JTAG2::updi_desc+0x2>
    1516:	a3 ce       	rjmp	.-698    	; 0x125e <main+0x372>
main():
    1518:	80 e3       	ldi	r24, 0x30	; 48
    151a:	fb cf       	rjmp	.-10     	; 0x1512 <main+0x626>
set_descripter():
/Users/askn/Documents/Zinnia-tools/Products/hardware/UPDI4AVR/libraries/UPDI4AVR/examples/UPDI4AVR_FW634B/src/JTAG2.cpp:316
    else if (type == CMND_SET_UPDI_PARAMS) {
      /* This structure is used instead of CMND_SET_DEVICE_DESC after */
      /* answering 0x55 ('U') to PAR_EMU_MODE of CMND_GET_PARAMETER.  */
      /* Once you have confirmed the magic number and data length,    */
      /* you can simply clone it into your internal structure.        */
      const struct updi_device_descriptor *desc =
    151c:	e7 e9       	ldi	r30, 0x97	; 151
    151e:	f8 e3       	ldi	r31, 0x38	; 56
    1520:	e9 83       	std	Y+1, r30	; 0x01
    1522:	fa 83       	std	Y+2, r31	; 0x02
/Users/askn/Documents/Zinnia-tools/Products/hardware/UPDI4AVR/libraries/UPDI4AVR/examples/UPDI4AVR_FW634B/src/JTAG2.cpp:318
           (struct updi_device_descriptor*)&packet.body[RSP_DATA];
      if (desc->magicnumber == 'U' && desc->length <= sizeof(updi_desc) - 2) {
    1524:	80 91 97 38 	lds	r24, 0x3897	; 0x803897 <JTAG2::packet+0x9>
    1528:	85 35       	cpi	r24, 0x55	; 85
    152a:	09 f0       	breq	.+2      	; 0x152e <main+0x642>
    152c:	98 ce       	rjmp	.-720    	; 0x125e <main+0x372>
    152e:	90 91 98 38 	lds	r25, 0x3898	; 0x803898 <JTAG2::packet+0xa>
    1532:	9b 32       	cpi	r25, 0x2B	; 43
    1534:	08 f0       	brcs	.+2      	; 0x1538 <main+0x64c>
    1536:	93 ce       	rjmp	.-730    	; 0x125e <main+0x372>
    1538:	de 01       	movw	r26, r28
    153a:	13 96       	adiw	r26, 0x03	; 3
    153c:	e4 e6       	ldi	r30, 0x64	; 100
    153e:	f8 e3       	ldi	r31, 0x38	; 56
main():
/Users/askn/Documents/Zinnia-tools/Products/hardware/UPDI4AVR/libraries/UPDI4AVR/examples/UPDI4AVR_FW634B/src/JTAG2.cpp:321
        uint8_t *q = 2 + (uint8_t*)&updi_desc;
        uint8_t *p = 2 + (uint8_t*)&desc;
        for (int8_t i = 0; i < desc->length; i++) *q++ = *p++;
    1540:	80 e0       	ldi	r24, 0x00	; 0
set_descripter():
    1542:	98 17       	cp	r25, r24
    1544:	09 f4       	brne	.+2      	; 0x1548 <main+0x65c>
    1546:	8b ce       	rjmp	.-746    	; 0x125e <main+0x372>
    1548:	2d 91       	ld	r18, X+
    154a:	21 93       	st	Z+, r18
    154c:	8f 5f       	subi	r24, 0xFF	; 255
/Users/askn/Documents/Zinnia-tools/Products/hardware/UPDI4AVR/libraries/UPDI4AVR/examples/UPDI4AVR_FW634B/src/JTAG2.cpp:437
      case CMND_GO :
      case CMND_GET_SYNC : {
        break;
      }
      case CMND_SIGN_OFF : {
        answer_transfer();
    154e:	f9 cf       	rjmp	.-14     	; 0x1542 <main+0x656>
process_command():
    1550:	0e 94 22 02 	call	0x444	; 0x444 <JTAG2::answer_transfer()>
flush():
/Users/askn/Documents/Zinnia-tools/Products/hardware/UPDI4AVR/libraries/UPDI4AVR/examples/UPDI4AVR_FW634B/src/JTAG2.cpp:97
    JTAG_USART.STATUS = USART_TXCIF_bm;
    return JTAG_USART.TXDATAL = _data;
  }

  void flush (void) {
    loop_until_bit_is_set(JTAG_USART.STATUS, USART_TXCIF_bp);
    1554:	80 91 24 08 	lds	r24, 0x0824	; 0x800824 <__RODATA_PM_OFFSET__+0x7f8824>
    1558:	86 ff       	sbrs	r24, 6
/Users/askn/Documents/Zinnia-tools/Products/hardware/UPDI4AVR/libraries/UPDI4AVR/examples/UPDI4AVR_FW634B/src/JTAG2.cpp:439
        break;
      }
      case CMND_SIGN_OFF : {
        answer_transfer();
        flush();
        if (bit_is_set(UPDI_CONTROL, UPDI::UPDI_PROG_bp))
    155a:	fc cf       	rjmp	.-8      	; 0x1554 <main+0x668>
process_command():
    155c:	e1 9b       	sbis	0x1c, 1	; 28
/Users/askn/Documents/Zinnia-tools/Products/hardware/UPDI4AVR/libraries/UPDI4AVR/examples/UPDI4AVR_FW634B/src/JTAG2.cpp:440
          UPDI::runtime(UPDI::UPDI_CMD_GO);
    155e:	02 c0       	rjmp	.+4      	; 0x1564 <main+0x678>
    1560:	84 e0       	ldi	r24, 0x04	; 4
    1562:	10 d9       	rcall	.-3552   	; 0x784 <UPDI::runtime(unsigned char)>
System_Reset():
/Users/askn/Documents/Zinnia-tools/Products/hardware/UPDI4AVR/libraries/UPDI4AVR/examples/UPDI4AVR_FW634B/src/SYS.cpp:88
/*************
 * Self reset *
 *************/

void SYS::System_Reset (void) {
  _PROTECTED_WRITE(RSTCTRL_SWRR, RSTCTRL_SWRE_bm);
    1564:	88 ed       	ldi	r24, 0xD8	; 216
    1566:	91 e0       	ldi	r25, 0x01	; 1
    1568:	84 bf       	out	0x34, r24	; 52
    156a:	90 93 41 00 	sts	0x0041, r25	; 0x800041 <__RODATA_PM_OFFSET__+0x7f8041>
    156e:	6b ce       	rjmp	.-810    	; 0x1246 <main+0x35a>

00001570 <setjmp>:
setjmp():
    1570:	dc 01       	movw	r26, r24
    1572:	2d 92       	st	X+, r2
    1574:	3d 92       	st	X+, r3
    1576:	4d 92       	st	X+, r4
    1578:	5d 92       	st	X+, r5
    157a:	6d 92       	st	X+, r6
    157c:	7d 92       	st	X+, r7
    157e:	8d 92       	st	X+, r8
    1580:	9d 92       	st	X+, r9
    1582:	ad 92       	st	X+, r10
    1584:	bd 92       	st	X+, r11
    1586:	cd 92       	st	X+, r12
    1588:	dd 92       	st	X+, r13
    158a:	ed 92       	st	X+, r14
    158c:	fd 92       	st	X+, r15
    158e:	0d 93       	st	X+, r16
    1590:	1d 93       	st	X+, r17
    1592:	cd 93       	st	X+, r28
    1594:	dd 93       	st	X+, r29
    1596:	ff 91       	pop	r31
    1598:	ef 91       	pop	r30
    159a:	8d b7       	in	r24, 0x3d	; 61
    159c:	8d 93       	st	X+, r24
    159e:	8e b7       	in	r24, 0x3e	; 62
    15a0:	8d 93       	st	X+, r24
    15a2:	8f b7       	in	r24, 0x3f	; 63
    15a4:	8d 93       	st	X+, r24
    15a6:	ed 93       	st	X+, r30
    15a8:	fd 93       	st	X+, r31
    15aa:	88 27       	eor	r24, r24
    15ac:	99 27       	eor	r25, r25
    15ae:	09 94       	ijmp

000015b0 <longjmp>:
longjmp():
    15b0:	dc 01       	movw	r26, r24
    15b2:	cb 01       	movw	r24, r22
    15b4:	81 30       	cpi	r24, 0x01	; 1
    15b6:	91 05       	cpc	r25, r1
    15b8:	81 1d       	adc	r24, r1
    15ba:	2d 90       	ld	r2, X+
    15bc:	3d 90       	ld	r3, X+
    15be:	4d 90       	ld	r4, X+
    15c0:	5d 90       	ld	r5, X+
    15c2:	6d 90       	ld	r6, X+
    15c4:	7d 90       	ld	r7, X+
    15c6:	8d 90       	ld	r8, X+
    15c8:	9d 90       	ld	r9, X+
    15ca:	ad 90       	ld	r10, X+
    15cc:	bd 90       	ld	r11, X+
    15ce:	cd 90       	ld	r12, X+
    15d0:	dd 90       	ld	r13, X+
    15d2:	ed 90       	ld	r14, X+
    15d4:	fd 90       	ld	r15, X+
    15d6:	0d 91       	ld	r16, X+
    15d8:	1d 91       	ld	r17, X+
    15da:	cd 91       	ld	r28, X+
    15dc:	dd 91       	ld	r29, X+
    15de:	ed 91       	ld	r30, X+
    15e0:	fd 91       	ld	r31, X+
    15e2:	0d 90       	ld	r0, X+
    15e4:	0f be       	out	0x3f, r0	; 63
    15e6:	ed bf       	out	0x3d, r30	; 61
    15e8:	fe bf       	out	0x3e, r31	; 62
    15ea:	ed 91       	ld	r30, X+
    15ec:	fd 91       	ld	r31, X+
    15ee:	09 94       	ijmp

000015f0 <_exit>:
exit():
    15f0:	f8 94       	cli

000015f2 <__stop_program>:
__stop_program():
    15f2:	ff cf       	rjmp	.-2      	; 0x15f2 <__stop_program>

Disassembly of section .nvmem:

0000163a <.nvmem>:
    163a:	00 00       	nop
    163c:	00 00       	nop
	...
