
/var/folders/4m/5plmh1yn7tjd65bkjnn6yc5c0000gn/T/arduino_build_596698/UPDI4AVR_FW753B.ino.elf:     file format elf32-avr


Disassembly of section .data:

00803800 <__data_start>:
__data_start():
  803800:	55 c8       	rjmp	.-3926   	; 0x8028ac <UPDI::nvmprog_key+0x7f910e>
  803802:	00 c3       	rjmp	.+1536   	; 0x803e04 <__bss_end+0x390>
  803804:	04 55       	subi	r16, 0x54	; 84

00803805 <UPDI::send_repeat_header(unsigned char, unsigned long, unsigned int)::set_repeat>:
  803805:	55 a0 00 55 04                                      U..U.

0080380a <UPDI::send_repeat_header(unsigned char, unsigned long, unsigned int)::set_ptr>:
  80380a:	55 6a 00 00 00 00                                   Uj....

00803810 <UPDI::st8(unsigned long, unsigned char)::set_ptr>:
  803810:	55 48 00 00 00 00                                   UH....

00803816 <UPDI::ld8(unsigned long)::set_ptr>:
  803816:	55 08 00 00 00 00                                   U.....

0080381c <UPDI::is_cs_stat(unsigned char, unsigned char)::set_ptr>:
  80381c:	55 00                                               U.

0080381e <NVM::set_repeat_rsd>:
  80381e:	55 c2 0e 55 a0 00 55 65                             U..U..Ue

00803826 <NVM::set_repeat>:
  803826:	55 a0 00 55 64                                      U..Ud

0080382b <NVM::set_ptr>:
  80382b:	55 6a 00 00 00 00                                   Uj....

00803831 <UPDI::enter_updi(bool)::set_ptr>:
  803831:	55 e5                                               U.

00803833 <JTAG2::PARAM_BAUD_RATE_VAL>:
  803833:	04 00                                               ..

00803835 <UPDI::set_cs_stat(unsigned char, unsigned char)::set_ptr>:
  803835:	55 00 00                                            U..

Disassembly of section .text:

00000000 <__vectors>:
__vectors():
../../../../crt1/gcrt1.S:61
       0:	67 c0       	rjmp	.+206    	; 0xd0 <__ctors_end>
       2:	00 00       	nop
../../../../crt1/gcrt1.S:67
       4:	81 c0       	rjmp	.+258    	; 0x108 <__bad_interrupt>
       6:	00 00       	nop
../../../../crt1/gcrt1.S:68
       8:	7f c0       	rjmp	.+254    	; 0x108 <__bad_interrupt>
       a:	00 00       	nop
../../../../crt1/gcrt1.S:69
       c:	7d c0       	rjmp	.+250    	; 0x108 <__bad_interrupt>
       e:	00 00       	nop
../../../../crt1/gcrt1.S:70
      10:	7b c0       	rjmp	.+246    	; 0x108 <__bad_interrupt>
      12:	00 00       	nop
../../../../crt1/gcrt1.S:71
      14:	79 c0       	rjmp	.+242    	; 0x108 <__bad_interrupt>
      16:	00 00       	nop
../../../../crt1/gcrt1.S:72
      18:	f5 c7       	rjmp	.+4074   	; 0x1004 <__vector_6>
      1a:	00 00       	nop
../../../../crt1/gcrt1.S:73
      1c:	0c 94 38 08 	jmp	0x1070	; 0x1070 <__vector_7>
../../../../crt1/gcrt1.S:74
      20:	73 c0       	rjmp	.+230    	; 0x108 <__bad_interrupt>
      22:	00 00       	nop
../../../../crt1/gcrt1.S:75
      24:	71 c0       	rjmp	.+226    	; 0x108 <__bad_interrupt>
      26:	00 00       	nop
../../../../crt1/gcrt1.S:76
      28:	6f c0       	rjmp	.+222    	; 0x108 <__bad_interrupt>
      2a:	00 00       	nop
../../../../crt1/gcrt1.S:77
      2c:	6d c0       	rjmp	.+218    	; 0x108 <__bad_interrupt>
      2e:	00 00       	nop
../../../../crt1/gcrt1.S:78
      30:	6b c0       	rjmp	.+214    	; 0x108 <__bad_interrupt>
      32:	00 00       	nop
../../../../crt1/gcrt1.S:79
      34:	dc c7       	rjmp	.+4024   	; 0xfee <__vector_13>
      36:	00 00       	nop
../../../../crt1/gcrt1.S:80
      38:	67 c0       	rjmp	.+206    	; 0x108 <__bad_interrupt>
      3a:	00 00       	nop
../../../../crt1/gcrt1.S:81
      3c:	65 c0       	rjmp	.+202    	; 0x108 <__bad_interrupt>
      3e:	00 00       	nop
../../../../crt1/gcrt1.S:82
      40:	63 c0       	rjmp	.+198    	; 0x108 <__bad_interrupt>
      42:	00 00       	nop
../../../../crt1/gcrt1.S:83
      44:	61 c0       	rjmp	.+194    	; 0x108 <__bad_interrupt>
      46:	00 00       	nop
../../../../crt1/gcrt1.S:84
      48:	5f c0       	rjmp	.+190    	; 0x108 <__bad_interrupt>
      4a:	00 00       	nop
../../../../crt1/gcrt1.S:85
      4c:	5d c0       	rjmp	.+186    	; 0x108 <__bad_interrupt>
      4e:	00 00       	nop
../../../../crt1/gcrt1.S:86
      50:	5b c0       	rjmp	.+182    	; 0x108 <__bad_interrupt>
      52:	00 00       	nop
../../../../crt1/gcrt1.S:87
      54:	59 c0       	rjmp	.+178    	; 0x108 <__bad_interrupt>
      56:	00 00       	nop
../../../../crt1/gcrt1.S:88
      58:	57 c0       	rjmp	.+174    	; 0x108 <__bad_interrupt>
      5a:	00 00       	nop
../../../../crt1/gcrt1.S:89
      5c:	55 c0       	rjmp	.+170    	; 0x108 <__bad_interrupt>
      5e:	00 00       	nop
../../../../crt1/gcrt1.S:90
      60:	53 c0       	rjmp	.+166    	; 0x108 <__bad_interrupt>
      62:	00 00       	nop
../../../../crt1/gcrt1.S:91
      64:	51 c0       	rjmp	.+162    	; 0x108 <__bad_interrupt>
      66:	00 00       	nop
../../../../crt1/gcrt1.S:92
      68:	4f c0       	rjmp	.+158    	; 0x108 <__bad_interrupt>
      6a:	00 00       	nop
../../../../crt1/gcrt1.S:93
      6c:	4d c0       	rjmp	.+154    	; 0x108 <__bad_interrupt>
      6e:	00 00       	nop
../../../../crt1/gcrt1.S:94
      70:	4b c0       	rjmp	.+150    	; 0x108 <__bad_interrupt>
      72:	00 00       	nop
../../../../crt1/gcrt1.S:95
      74:	49 c0       	rjmp	.+146    	; 0x108 <__bad_interrupt>
	...

00000078 <__trampolines_end>:
__trampolines_start():
      78:	86 01       	movw	r16, r12
      7a:	01 01       	movw	r0, r2
      7c:	02 01       	movw	r0, r4
      7e:	01 35       	cpi	r16, 0x51	; 81
      80:	07 01       	movw	r0, r14
      82:	00 00       	nop
      84:	00 00       	nop
      86:	00 00       	nop
      88:	4a 54       	subi	r20, 0x4A	; 74
      8a:	41 47       	sbci	r20, 0x71	; 113
      8c:	49 43       	sbci	r20, 0x39	; 57
      8e:	45 20       	and	r4, r5
      90:	6d 6b       	ori	r22, 0xBD	; 189
      92:	49 49       	sbci	r20, 0x99	; 153
	...

00000095 <JTAG2::BAUD_TABLE>:
      95:	00 00 1b 41 8d 20 47 10 23 08 12 04 b6 02 5b 01     ...A. G.#.....[.
      a5:	da 0a 04 01 ae 00 57 00 2b 00 39 01 9c 00 00 00     ......W.+.9.....
      b5:	00 00 0b 01 c8 00 a0 00 85 00 64 00 50 00 43 00     ..........d.P.C.
      c5:	3c 00 28 00 1b 00 14 00 0d 00 00                    <.(........

000000d0 <__ctors_end>:
__dtors_end():
../../../../crt1/gcrt1.S:230
      d0:	11 24       	eor	r1, r1
../../../../crt1/gcrt1.S:231
      d2:	1f be       	out	0x3f, r1	; 63
../../../../crt1/gcrt1.S:232
      d4:	cf ef       	ldi	r28, 0xFF	; 255
../../../../crt1/gcrt1.S:234
      d6:	cd bf       	out	0x3d, r28	; 61
../../../../crt1/gcrt1.S:236
      d8:	df e3       	ldi	r29, 0x3F	; 63
../../../../crt1/gcrt1.S:237
      da:	de bf       	out	0x3e, r29	; 62

000000dc <__do_copy_data>:
__do_copy_data():
      dc:	18 e3       	ldi	r17, 0x38	; 56
      de:	a0 e0       	ldi	r26, 0x00	; 0
      e0:	b8 e3       	ldi	r27, 0x38	; 56
      e2:	e8 ea       	ldi	r30, 0xA8	; 168
      e4:	f7 e1       	ldi	r31, 0x17	; 23
      e6:	02 c0       	rjmp	.+4      	; 0xec <__do_copy_data+0x10>
      e8:	05 90       	lpm	r0, Z+
      ea:	0d 92       	st	X+, r0
      ec:	a8 33       	cpi	r26, 0x38	; 56
      ee:	b1 07       	cpc	r27, r17
      f0:	d9 f7       	brne	.-10     	; 0xe8 <__do_copy_data+0xc>

000000f2 <__do_clear_bss>:
__do_clear_bss():
      f2:	2a e3       	ldi	r18, 0x3A	; 58
      f4:	a8 e3       	ldi	r26, 0x38	; 56
      f6:	b8 e3       	ldi	r27, 0x38	; 56
      f8:	01 c0       	rjmp	.+2      	; 0xfc <.do_clear_bss_start>

000000fa <.do_clear_bss_loop>:
      fa:	1d 92       	st	X+, r1

000000fc <.do_clear_bss_start>:
      fc:	a4 37       	cpi	r26, 0x74	; 116
      fe:	b2 07       	cpc	r27, r18
     100:	e1 f7       	brne	.-8      	; 0xfa <.do_clear_bss_loop>
.do_clear_bss_start():
../../../../crt1/gcrt1.S:314
     102:	cf d7       	rcall	.+3998   	; 0x10a2 <main>
../../../../crt1/gcrt1.S:315
     104:	0c 94 c8 0b 	jmp	0x1790	; 0x1790 <_exit>

00000108 <__bad_interrupt>:
__vector_22():
../../../../crt1/gcrt1.S:209
     108:	7b cf       	rjmp	.-266    	; 0x0 <__vectors>

0000010a <UPDI::RECV()>:
_ZN4UPDI4RECVEv():
/Users/askn/Documents/Zinnia-tools/Products/hardware/UPDI4AVR/libraries/UPDI4AVR/examples/UPDI4AVR_FW753B/src/UPDI.cpp:43
/*
 * UPDI受信
 */

uint8_t UPDI::RECV (void) {
  loop_until_bit_is_set(UPDI_USART.STATUS, USART_RXCIF_bp);
     10a:	80 91 04 08 	lds	r24, 0x0804	; 0x800804 <UPDI::nvmprog_key+0x7f7066>
     10e:	87 ff       	sbrs	r24, 7
     110:	fc cf       	rjmp	.-8      	; 0x10a <UPDI::RECV()>
/Users/askn/Documents/Zinnia-tools/Products/hardware/UPDI4AVR/libraries/UPDI4AVR/examples/UPDI4AVR_FW753B/src/UPDI.cpp:44
  UPDI_LASTH = UPDI_USART.RXDATAH ^ 0x80;
     112:	80 91 01 08 	lds	r24, 0x0801	; 0x800801 <UPDI::nvmprog_key+0x7f7063>
     116:	80 58       	subi	r24, 0x80	; 128
     118:	8f bb       	out	0x1f, r24	; 31
/Users/askn/Documents/Zinnia-tools/Products/hardware/UPDI4AVR/libraries/UPDI4AVR/examples/UPDI4AVR_FW753B/src/UPDI.cpp:45
  return UPDI_LASTL = UPDI_USART.RXDATAL;
     11a:	80 91 00 08 	lds	r24, 0x0800	; 0x800800 <UPDI::nvmprog_key+0x7f7062>
     11e:	8e bb       	out	0x1e, r24	; 30
/Users/askn/Documents/Zinnia-tools/Products/hardware/UPDI4AVR/libraries/UPDI4AVR/examples/UPDI4AVR_FW753B/src/UPDI.cpp:46
}
     120:	08 95       	ret

00000122 <UPDI::SEND(unsigned char)>:
_ZN4UPDI4SENDEh():
/Users/askn/Documents/Zinnia-tools/Products/hardware/UPDI4AVR/libraries/UPDI4AVR/examples/UPDI4AVR_FW753B/src/UPDI.cpp:54
 * UPDI送信
 *
 * ループバック受信で送信値を照合
 */

bool UPDI::SEND (uint8_t _data) {
     122:	cf 93       	push	r28
     124:	c8 2f       	mov	r28, r24
/Users/askn/Documents/Zinnia-tools/Products/hardware/UPDI4AVR/libraries/UPDI4AVR/examples/UPDI4AVR_FW753B/src/UPDI.cpp:56
  bool _r;
  loop_until_bit_is_set(UPDI_USART.STATUS, USART_DREIF_bp);
     126:	80 91 04 08 	lds	r24, 0x0804	; 0x800804 <UPDI::nvmprog_key+0x7f7066>
     12a:	85 ff       	sbrs	r24, 5
     12c:	fc cf       	rjmp	.-8      	; 0x126 <UPDI::SEND(unsigned char)+0x4>
/Users/askn/Documents/Zinnia-tools/Products/hardware/UPDI4AVR/libraries/UPDI4AVR/examples/UPDI4AVR_FW753B/src/UPDI.cpp:57
  UPDI_USART.STATUS = USART_TXCIF_bm;
     12e:	80 e4       	ldi	r24, 0x40	; 64
     130:	80 93 04 08 	sts	0x0804, r24	; 0x800804 <UPDI::nvmprog_key+0x7f7066>
/Users/askn/Documents/Zinnia-tools/Products/hardware/UPDI4AVR/libraries/UPDI4AVR/examples/UPDI4AVR_FW753B/src/UPDI.cpp:58
  UPDI_USART.TXDATAL = _data;
     134:	c0 93 02 08 	sts	0x0802, r28	; 0x800802 <UPDI::nvmprog_key+0x7f7064>
/Users/askn/Documents/Zinnia-tools/Products/hardware/UPDI4AVR/libraries/UPDI4AVR/examples/UPDI4AVR_FW753B/src/UPDI.cpp:59
  loop_until_bit_is_set(UPDI_USART.STATUS, USART_TXCIF_bp);
     138:	80 91 04 08 	lds	r24, 0x0804	; 0x800804 <UPDI::nvmprog_key+0x7f7066>
     13c:	86 ff       	sbrs	r24, 6
     13e:	fc cf       	rjmp	.-8      	; 0x138 <UPDI::SEND(unsigned char)+0x16>
/Users/askn/Documents/Zinnia-tools/Products/hardware/UPDI4AVR/libraries/UPDI4AVR/examples/UPDI4AVR_FW753B/src/UPDI.cpp:60
  _r = _data == UPDI::RECV();
     140:	e4 df       	rcall	.-56     	; 0x10a <UPDI::RECV()>
     142:	98 2f       	mov	r25, r24
     144:	81 e0       	ldi	r24, 0x01	; 1
     146:	9c 13       	cpse	r25, r28
     148:	80 e0       	ldi	r24, 0x00	; 0
/Users/askn/Documents/Zinnia-tools/Products/hardware/UPDI4AVR/libraries/UPDI4AVR/examples/UPDI4AVR_FW753B/src/UPDI.cpp:61
  if (!_r) UPDI_LASTH |= 0x20;
     14a:	9c 13       	cpse	r25, r28
     14c:	fd 9a       	sbi	0x1f, 5	; 31
/Users/askn/Documents/Zinnia-tools/Products/hardware/UPDI4AVR/libraries/UPDI4AVR/examples/UPDI4AVR_FW753B/src/UPDI.cpp:63
  return _r;
}
     14e:	cf 91       	pop	r28
     150:	08 95       	ret

00000152 <UPDI::send_bytes(unsigned char const*, unsigned int)>:
_ZN4UPDI10send_bytesEPKhj():
/Users/askn/Documents/Zinnia-tools/Products/hardware/UPDI4AVR/libraries/UPDI4AVR/examples/UPDI4AVR_FW753B/src/UPDI.cpp:110

/*
 * バイト塊送信
 */

bool UPDI::send_bytes (const uint8_t *data, size_t len) {
     152:	0f 93       	push	r16
     154:	1f 93       	push	r17
     156:	cf 93       	push	r28
     158:	df 93       	push	r29
     15a:	eb 01       	movw	r28, r22
     15c:	8c 01       	movw	r16, r24
/Users/askn/Documents/Zinnia-tools/Products/hardware/UPDI4AVR/libraries/UPDI4AVR/examples/UPDI4AVR_FW753B/src/UPDI.cpp:113
  uint8_t *p = (uint8_t*)(void*)data;
  do {
    if (!UPDI::SEND(*p++)) break;
     15e:	f8 01       	movw	r30, r16
     160:	81 91       	ld	r24, Z+
     162:	8f 01       	movw	r16, r30
     164:	de df       	rcall	.-68     	; 0x122 <UPDI::SEND(unsigned char)>
     166:	88 23       	and	r24, r24
     168:	11 f0       	breq	.+4      	; 0x16e <UPDI::send_bytes(unsigned char const*, unsigned int)+0x1c>
/Users/askn/Documents/Zinnia-tools/Products/hardware/UPDI4AVR/libraries/UPDI4AVR/examples/UPDI4AVR_FW753B/src/UPDI.cpp:114
  } while (--len);
     16a:	21 97       	sbiw	r28, 0x01	; 1
     16c:	c1 f7       	brne	.-16     	; 0x15e <UPDI::send_bytes(unsigned char const*, unsigned int)+0xc>
/Users/askn/Documents/Zinnia-tools/Products/hardware/UPDI4AVR/libraries/UPDI4AVR/examples/UPDI4AVR_FW753B/src/UPDI.cpp:115
  return len == 0;
     16e:	81 e0       	ldi	r24, 0x01	; 1
     170:	cd 2b       	or	r28, r29
     172:	09 f0       	breq	.+2      	; 0x176 <UPDI::send_bytes(unsigned char const*, unsigned int)+0x24>
     174:	80 e0       	ldi	r24, 0x00	; 0
/Users/askn/Documents/Zinnia-tools/Products/hardware/UPDI4AVR/libraries/UPDI4AVR/examples/UPDI4AVR_FW753B/src/UPDI.cpp:116
}
     176:	df 91       	pop	r29
     178:	cf 91       	pop	r28
     17a:	1f 91       	pop	r17
     17c:	0f 91       	pop	r16
     17e:	08 95       	ret

00000180 <UPDI::updi_reset(bool)>:
_ZN4UPDI10updi_resetEb():
/Users/askn/Documents/Zinnia-tools/Products/hardware/UPDI4AVR/libraries/UPDI4AVR/examples/UPDI4AVR_FW753B/src/UPDI.cpp:223
}
inline bool UPDI::set_cs_ctra (const uint8_t data) {
  return UPDI::set_cs_stat(UPDI::UPDI_CS_CTRLA, data);
}
inline bool UPDI::updi_reset (bool logic) {
  return UPDI::set_cs_stat(
     180:	81 11       	cpse	r24, r1
     182:	89 e5       	ldi	r24, 0x59	; 89
set_cs_stat():
/Users/askn/Documents/Zinnia-tools/Products/hardware/UPDI4AVR/libraries/UPDI4AVR/examples/UPDI4AVR_FW753B/src/UPDI.cpp:215
 * コントロールステータス送信
 */

bool UPDI::set_cs_stat (const uint8_t code, uint8_t data) {
  static uint8_t set_ptr[] = { UPDI::UPDI_SYNCH, 0, 0 };
  set_ptr[1] = UPDI::UPDI_STCS | code;
     184:	98 ec       	ldi	r25, 0xC8	; 200
     186:	90 93 36 38 	sts	0x3836, r25	; 0x803836 <UPDI::set_cs_stat(unsigned char, unsigned char)::set_ptr+0x1>
/Users/askn/Documents/Zinnia-tools/Products/hardware/UPDI4AVR/libraries/UPDI4AVR/examples/UPDI4AVR_FW753B/src/UPDI.cpp:216
  set_ptr[2] = data;
     18a:	80 93 37 38 	sts	0x3837, r24	; 0x803837 <UPDI::set_cs_stat(unsigned char, unsigned char)::set_ptr+0x2>
/Users/askn/Documents/Zinnia-tools/Products/hardware/UPDI4AVR/libraries/UPDI4AVR/examples/UPDI4AVR_FW753B/src/UPDI.cpp:217
  return UPDI::send_bytes(set_ptr, sizeof(set_ptr));
     18e:	63 e0       	ldi	r22, 0x03	; 3
     190:	70 e0       	ldi	r23, 0x00	; 0
     192:	85 e3       	ldi	r24, 0x35	; 53
     194:	98 e3       	ldi	r25, 0x38	; 56
     196:	dd cf       	rjmp	.-70     	; 0x152 <UPDI::send_bytes(unsigned char const*, unsigned int)>

00000198 <UPDI::set_cs_ctra(unsigned char) [clone .constprop.1]>:
_ZN4UPDI11set_cs_ctraEh.constprop.1():
/Users/askn/Documents/Zinnia-tools/Products/hardware/UPDI4AVR/libraries/UPDI4AVR/examples/UPDI4AVR_FW753B/src/UPDI.cpp:215
 * コントロールステータス送信
 */

bool UPDI::set_cs_stat (const uint8_t code, uint8_t data) {
  static uint8_t set_ptr[] = { UPDI::UPDI_SYNCH, 0, 0 };
  set_ptr[1] = UPDI::UPDI_STCS | code;
     198:	e5 e3       	ldi	r30, 0x35	; 53
     19a:	f8 e3       	ldi	r31, 0x38	; 56
     19c:	82 ec       	ldi	r24, 0xC2	; 194
     19e:	81 83       	std	Z+1, r24	; 0x01
/Users/askn/Documents/Zinnia-tools/Products/hardware/UPDI4AVR/libraries/UPDI4AVR/examples/UPDI4AVR_FW753B/src/UPDI.cpp:216
  set_ptr[2] = data;
     1a0:	86 e0       	ldi	r24, 0x06	; 6
     1a2:	82 83       	std	Z+2, r24	; 0x02
/Users/askn/Documents/Zinnia-tools/Products/hardware/UPDI4AVR/libraries/UPDI4AVR/examples/UPDI4AVR_FW753B/src/UPDI.cpp:217
  return UPDI::send_bytes(set_ptr, sizeof(set_ptr));
     1a4:	63 e0       	ldi	r22, 0x03	; 3
     1a6:	70 e0       	ldi	r23, 0x00	; 0
     1a8:	cf 01       	movw	r24, r30
     1aa:	d3 cf       	rjmp	.-90     	; 0x152 <UPDI::send_bytes(unsigned char const*, unsigned int)>

000001ac <UPDI::enter_updi(bool) [clone .part.4]>:
_ZN4UPDI10enter_updiEb.part.4():
/Users/askn/Documents/Zinnia-tools/Products/hardware/UPDI4AVR/libraries/UPDI4AVR/examples/UPDI4AVR_FW753B/src/UPDI.cpp:329

/*
 * UPDI制御開始
 */

bool UPDI::enter_updi (bool skip) {
     1ac:	0f 93       	push	r16
     1ae:	1f 93       	push	r17
     1b0:	cf 93       	push	r28
/Users/askn/Documents/Zinnia-tools/Products/hardware/UPDI4AVR/libraries/UPDI4AVR/examples/UPDI4AVR_FW753B/src/UPDI.cpp:352
    else
      UPDI::BREAK();
  }
  if (bit_is_clear(UPDI_CONTROL, UPDI::UPDI_INFO_bp)) {
    if (!UPDI::set_cs_ctra(UPDI::UPDI_SET_GTVAL_2)) return false;
    if (!UPDI::send_bytes(set_ptr, sizeof(set_ptr))) return false;
     1b2:	62 e0       	ldi	r22, 0x02	; 2
     1b4:	70 e0       	ldi	r23, 0x00	; 0
     1b6:	81 e3       	ldi	r24, 0x31	; 49
     1b8:	98 e3       	ldi	r25, 0x38	; 56
     1ba:	cb df       	rcall	.-106    	; 0x152 <UPDI::send_bytes(unsigned char const*, unsigned int)>
     1bc:	c8 2f       	mov	r28, r24
     1be:	88 23       	and	r24, r24
     1c0:	61 f1       	breq	.+88     	; 0x21a <UPDI::enter_updi(bool) [clone .part.4]+0x6e>
     1c2:	0a e6       	ldi	r16, 0x6A	; 106
     1c4:	18 e3       	ldi	r17, 0x38	; 56
/Users/askn/Documents/Zinnia-tools/Products/hardware/UPDI4AVR/libraries/UPDI4AVR/examples/UPDI4AVR_FW753B/src/UPDI.cpp:353
    while (_len--) *_p++ = UPDI::RECV();
     1c6:	88 e3       	ldi	r24, 0x38	; 56
     1c8:	0a 37       	cpi	r16, 0x7A	; 122
     1ca:	18 07       	cpc	r17, r24
     1cc:	29 f0       	breq	.+10     	; 0x1d8 <UPDI::enter_updi(bool) [clone .part.4]+0x2c>
     1ce:	9d df       	rcall	.-198    	; 0x10a <UPDI::RECV()>
     1d0:	f8 01       	movw	r30, r16
     1d2:	81 93       	st	Z+, r24
     1d4:	8f 01       	movw	r16, r30
     1d6:	f7 cf       	rjmp	.-18     	; 0x1c6 <UPDI::enter_updi(bool) [clone .part.4]+0x1a>
     1d8:	80 91 6a 38 	lds	r24, 0x386A	; 0x80386a <JTAG2::packet+0xb>
/Users/askn/Documents/Zinnia-tools/Products/hardware/UPDI4AVR/libraries/UPDI4AVR/examples/UPDI4AVR_FW753B/src/UPDI.cpp:354
    switch (JTAG2::packet.body[3]) {
     1dc:	8d 36       	cpi	r24, 0x6D	; 109
     1de:	79 f0       	breq	.+30     	; 0x1fe <UPDI::enter_updi(bool) [clone .part.4]+0x52>
     1e0:	84 37       	cpi	r24, 0x74	; 116
     1e2:	01 f1       	breq	.+64     	; 0x224 <UPDI::enter_updi(bool) [clone .part.4]+0x78>
     1e4:	81 34       	cpi	r24, 0x41	; 65
     1e6:	19 f5       	brne	.+70     	; 0x22e <UPDI::enter_updi(bool) [clone .part.4]+0x82>
     1e8:	80 91 74 38 	lds	r24, 0x3874	; 0x803874 <JTAG2::packet+0x15>
/Users/askn/Documents/Zinnia-tools/Products/hardware/UPDI4AVR/libraries/UPDI4AVR/examples/UPDI4AVR_FW753B/src/UPDI.cpp:369
        break;
      }
      case 'A' : {              // 'AVR_Dx' series
        /* AVR Dx SIB = 'AVR     P:2D:1-3' */
        /* AVR Ex SIB = 'AVR     P:3D:1-3' */
        if (JTAG2::packet.body[13] == '3') {
     1ec:	83 33       	cpi	r24, 0x33	; 51
     1ee:	09 f4       	brne	.+2      	; 0x1f2 <UPDI::enter_updi(bool) [clone .part.4]+0x46>
     1f0:	ea 9a       	sbi	0x1d, 2	; 29
/Users/askn/Documents/Zinnia-tools/Products/hardware/UPDI4AVR/libraries/UPDI4AVR/examples/UPDI4AVR_FW753B/src/UPDI.cpp:371
          // 'AVR_Ex' series
          UPDI_NVMCTRL |= _BV(UPDI::UPDI_GEN3_bp);
     1f2:	e9 9a       	sbi	0x1d, 1	; 29
/Users/askn/Documents/Zinnia-tools/Products/hardware/UPDI4AVR/libraries/UPDI4AVR/examples/UPDI4AVR_FW753B/src/UPDI.cpp:373
        }
        UPDI_NVMCTRL |= _BV(UPDI::UPDI_GEN2_bp);
     1f4:	80 e0       	ldi	r24, 0x00	; 0
/Users/askn/Documents/Zinnia-tools/Products/hardware/UPDI4AVR/libraries/UPDI4AVR/examples/UPDI4AVR_FW753B/src/UPDI.cpp:374
        NVM::nvm_flash_offset = 0x800000;
     1f6:	90 e0       	ldi	r25, 0x00	; 0
     1f8:	a0 e8       	ldi	r26, 0x80	; 128
     1fa:	b0 e0       	ldi	r27, 0x00	; 0
     1fc:	05 c0       	rjmp	.+10     	; 0x208 <UPDI::enter_updi(bool) [clone .part.4]+0x5c>
     1fe:	e8 9a       	sbi	0x1d, 0	; 29
/Users/askn/Documents/Zinnia-tools/Products/hardware/UPDI4AVR/libraries/UPDI4AVR/examples/UPDI4AVR_FW753B/src/UPDI.cpp:357
    if (!UPDI::send_bytes(set_ptr, sizeof(set_ptr))) return false;
    while (_len--) *_p++ = UPDI::RECV();
    switch (JTAG2::packet.body[3]) {
      case 'm' : {              // 'megaAVR' series
        /* megaAVR SIB = 'megaAVR P:0D:1-3' */
        UPDI_NVMCTRL |= _BV(UPDI::UPDI_LOWF_bp);
     200:	80 e0       	ldi	r24, 0x00	; 0
/Users/askn/Documents/Zinnia-tools/Products/hardware/UPDI4AVR/libraries/UPDI4AVR/examples/UPDI4AVR_FW753B/src/UPDI.cpp:358
        NVM::nvm_flash_offset = 0x4000;
     202:	90 e4       	ldi	r25, 0x40	; 64
     204:	a0 e0       	ldi	r26, 0x00	; 0
     206:	b0 e0       	ldi	r27, 0x00	; 0
     208:	80 93 51 38 	sts	0x3851, r24	; 0x803851 <NVM::nvm_flash_offset>
/Users/askn/Documents/Zinnia-tools/Products/hardware/UPDI4AVR/libraries/UPDI4AVR/examples/UPDI4AVR_FW753B/src/UPDI.cpp:374
        if (JTAG2::packet.body[13] == '3') {
          // 'AVR_Ex' series
          UPDI_NVMCTRL |= _BV(UPDI::UPDI_GEN3_bp);
        }
        UPDI_NVMCTRL |= _BV(UPDI::UPDI_GEN2_bp);
        NVM::nvm_flash_offset = 0x800000;
     20c:	90 93 52 38 	sts	0x3852, r25	; 0x803852 <NVM::nvm_flash_offset+0x1>
     210:	a0 93 53 38 	sts	0x3853, r26	; 0x803853 <NVM::nvm_flash_offset+0x2>
     214:	b0 93 54 38 	sts	0x3854, r27	; 0x803854 <NVM::nvm_flash_offset+0x3>
     218:	e0 9a       	sbi	0x1c, 0	; 28
/Users/askn/Documents/Zinnia-tools/Products/hardware/UPDI4AVR/libraries/UPDI4AVR/examples/UPDI4AVR_FW753B/src/UPDI.cpp:379
        break;
      }
      default : return false;
    }
    UPDI_CONTROL |= _BV(UPDI::UPDI_INFO_bp);
     21a:	8c 2f       	mov	r24, r28
/Users/askn/Documents/Zinnia-tools/Products/hardware/UPDI4AVR/libraries/UPDI4AVR/examples/UPDI4AVR_FW753B/src/UPDI.cpp:382
  }
  return true;
}
     21c:	cf 91       	pop	r28
     21e:	1f 91       	pop	r17
     220:	0f 91       	pop	r16
     222:	08 95       	ret
     224:	80 e0       	ldi	r24, 0x00	; 0
/Users/askn/Documents/Zinnia-tools/Products/hardware/UPDI4AVR/libraries/UPDI4AVR/examples/UPDI4AVR_FW753B/src/UPDI.cpp:363
        NVM::nvm_flash_offset = 0x4000;
        break;
      }
      case 't' : {              // 'tinyAVR' series
        /* tinyAVR SIB = 'tinyAVR P:0D:1-3' */
        NVM::nvm_flash_offset = 0x8000;
     226:	90 e8       	ldi	r25, 0x80	; 128
     228:	a0 e0       	ldi	r26, 0x00	; 0
     22a:	b0 e0       	ldi	r27, 0x00	; 0
     22c:	ed cf       	rjmp	.-38     	; 0x208 <UPDI::enter_updi(bool) [clone .part.4]+0x5c>
     22e:	c0 e0       	ldi	r28, 0x00	; 0
/Users/askn/Documents/Zinnia-tools/Products/hardware/UPDI4AVR/libraries/UPDI4AVR/examples/UPDI4AVR_FW753B/src/UPDI.cpp:377
        }
        UPDI_NVMCTRL |= _BV(UPDI::UPDI_GEN2_bp);
        NVM::nvm_flash_offset = 0x800000;
        break;
      }
      default : return false;
     230:	f4 cf       	rjmp	.-24     	; 0x21a <UPDI::enter_updi(bool) [clone .part.4]+0x6e>

00000232 <UPDI::st8(unsigned long, unsigned char)>:
_ZN4UPDI3st8Emh():
     232:	cf 93       	push	r28
/Users/askn/Documents/Zinnia-tools/Products/hardware/UPDI4AVR/libraries/UPDI4AVR/examples/UPDI4AVR_FW753B/src/UPDI.cpp:147

/*
 * 単バイト送信
 */

bool UPDI::st8 (uint32_t addr, uint8_t data) {
     234:	c4 2f       	mov	r28, r20
     236:	60 93 12 38 	sts	0x3812, r22	; 0x803812 <UPDI::st8(unsigned long, unsigned char)::set_ptr+0x2>
/Users/askn/Documents/Zinnia-tools/Products/hardware/UPDI4AVR/libraries/UPDI4AVR/examples/UPDI4AVR_FW753B/src/UPDI.cpp:153
  static uint8_t set_ptr[] = {
      UPDI::UPDI_SYNCH
    , UPDI::UPDI_STS | UPDI::UPDI_ADDR3 | UPDI::UPDI_DATA1
    , 0, 0, 0, 0  // qword address
  };
  _CAPS32(set_ptr[2])->dword = addr;
     23a:	70 93 13 38 	sts	0x3813, r23	; 0x803813 <UPDI::st8(unsigned long, unsigned char)::set_ptr+0x3>
     23e:	80 93 14 38 	sts	0x3814, r24	; 0x803814 <UPDI::st8(unsigned long, unsigned char)::set_ptr+0x4>
     242:	90 93 15 38 	sts	0x3815, r25	; 0x803815 <UPDI::st8(unsigned long, unsigned char)::set_ptr+0x5>
/Users/askn/Documents/Zinnia-tools/Products/hardware/UPDI4AVR/libraries/UPDI4AVR/examples/UPDI4AVR_FW753B/src/UPDI.cpp:154
  if (!UPDI::send_bytes(set_ptr, sizeof(set_ptr) - 1)) return false;
     246:	65 e0       	ldi	r22, 0x05	; 5
     248:	70 e0       	ldi	r23, 0x00	; 0
     24a:	80 e1       	ldi	r24, 0x10	; 16
     24c:	98 e3       	ldi	r25, 0x38	; 56
     24e:	81 df       	rcall	.-254    	; 0x152 <UPDI::send_bytes(unsigned char const*, unsigned int)>
     250:	81 11       	cpse	r24, r1
     252:	02 c0       	rjmp	.+4      	; 0x258 <UPDI::st8(unsigned long, unsigned char)+0x26>
/Users/askn/Documents/Zinnia-tools/Products/hardware/UPDI4AVR/libraries/UPDI4AVR/examples/UPDI4AVR_FW753B/src/UPDI.cpp:157
  if (UPDI::UPDI_ACK != UPDI::RECV()) return false;
  if (!UPDI::SEND(data)) return false;
  return UPDI::UPDI_ACK == UPDI::RECV();
     254:	90 e0       	ldi	r25, 0x00	; 0
     256:	0b c0       	rjmp	.+22     	; 0x26e <UPDI::st8(unsigned long, unsigned char)+0x3c>
/Users/askn/Documents/Zinnia-tools/Products/hardware/UPDI4AVR/libraries/UPDI4AVR/examples/UPDI4AVR_FW753B/src/UPDI.cpp:155
    , UPDI::UPDI_STS | UPDI::UPDI_ADDR3 | UPDI::UPDI_DATA1
    , 0, 0, 0, 0  // qword address
  };
  _CAPS32(set_ptr[2])->dword = addr;
  if (!UPDI::send_bytes(set_ptr, sizeof(set_ptr) - 1)) return false;
  if (UPDI::UPDI_ACK != UPDI::RECV()) return false;
     258:	58 df       	rcall	.-336    	; 0x10a <UPDI::RECV()>
     25a:	80 34       	cpi	r24, 0x40	; 64
     25c:	d9 f7       	brne	.-10     	; 0x254 <UPDI::st8(unsigned long, unsigned char)+0x22>
/Users/askn/Documents/Zinnia-tools/Products/hardware/UPDI4AVR/libraries/UPDI4AVR/examples/UPDI4AVR_FW753B/src/UPDI.cpp:156
  if (!UPDI::SEND(data)) return false;
     25e:	8c 2f       	mov	r24, r28
     260:	60 df       	rcall	.-320    	; 0x122 <UPDI::SEND(unsigned char)>
     262:	88 23       	and	r24, r24
     264:	b9 f3       	breq	.-18     	; 0x254 <UPDI::st8(unsigned long, unsigned char)+0x22>
     266:	51 df       	rcall	.-350    	; 0x10a <UPDI::RECV()>
/Users/askn/Documents/Zinnia-tools/Products/hardware/UPDI4AVR/libraries/UPDI4AVR/examples/UPDI4AVR_FW753B/src/UPDI.cpp:157
  return UPDI::UPDI_ACK == UPDI::RECV();
     268:	91 e0       	ldi	r25, 0x01	; 1
     26a:	80 34       	cpi	r24, 0x40	; 64
     26c:	99 f7       	brne	.-26     	; 0x254 <UPDI::st8(unsigned long, unsigned char)+0x22>
     26e:	89 2f       	mov	r24, r25
     270:	cf 91       	pop	r28
/Users/askn/Documents/Zinnia-tools/Products/hardware/UPDI4AVR/libraries/UPDI4AVR/examples/UPDI4AVR_FW753B/src/UPDI.cpp:158
}
     272:	08 95       	ret

00000274 <UPDI::send_repeat_header(unsigned char, unsigned long, unsigned int)>:
_ZN4UPDI18send_repeat_headerEhmj():
     274:	40 93 0c 38 	sts	0x380C, r20	; 0x80380c <UPDI::send_repeat_header(unsigned char, unsigned long, unsigned int)::set_ptr+0x2>
/Users/askn/Documents/Zinnia-tools/Products/hardware/UPDI4AVR/libraries/UPDI4AVR/examples/UPDI4AVR_FW753B/src/UPDI.cpp:135
    , UPDI::UPDI_REPEAT | UPDI::UPDI_DATA1
    , 0                   // repeat count
    , UPDI::UPDI_SYNCH
    , UPDI::UPDI_PTR_INC  // +cmd
  };
  _CAPS32(set_ptr[2])->dword = addr;
     278:	50 93 0d 38 	sts	0x380D, r21	; 0x80380d <UPDI::send_repeat_header(unsigned char, unsigned long, unsigned int)::set_ptr+0x3>
     27c:	60 93 0e 38 	sts	0x380E, r22	; 0x80380e <UPDI::send_repeat_header(unsigned char, unsigned long, unsigned int)::set_ptr+0x4>
     280:	70 93 0f 38 	sts	0x380F, r23	; 0x80380f <UPDI::send_repeat_header(unsigned char, unsigned long, unsigned int)::set_ptr+0x5>
     284:	21 50       	subi	r18, 0x01	; 1
     286:	20 93 07 38 	sts	0x3807, r18	; 0x803807 <UPDI::send_repeat_header(unsigned char, unsigned long, unsigned int)::set_repeat+0x2>
/Users/askn/Documents/Zinnia-tools/Products/hardware/UPDI4AVR/libraries/UPDI4AVR/examples/UPDI4AVR_FW753B/src/UPDI.cpp:136
  set_repeat[2] = len - 1;
     28a:	84 60       	ori	r24, 0x04	; 4
/Users/askn/Documents/Zinnia-tools/Products/hardware/UPDI4AVR/libraries/UPDI4AVR/examples/UPDI4AVR_FW753B/src/UPDI.cpp:137
  set_repeat[4] = UPDI::UPDI_PTR_INC | cmd;
     28c:	80 93 09 38 	sts	0x3809, r24	; 0x803809 <UPDI::send_repeat_header(unsigned char, unsigned long, unsigned int)::set_repeat+0x4>
/Users/askn/Documents/Zinnia-tools/Products/hardware/UPDI4AVR/libraries/UPDI4AVR/examples/UPDI4AVR_FW753B/src/UPDI.cpp:138
  if (!UPDI::send_bytes(set_ptr, sizeof(set_ptr) - 1)) return false;
     290:	65 e0       	ldi	r22, 0x05	; 5
     292:	70 e0       	ldi	r23, 0x00	; 0
     294:	8a e0       	ldi	r24, 0x0A	; 10
     296:	98 e3       	ldi	r25, 0x38	; 56
     298:	5c df       	rcall	.-328    	; 0x152 <UPDI::send_bytes(unsigned char const*, unsigned int)>
     29a:	88 23       	and	r24, r24
     29c:	41 f0       	breq	.+16     	; 0x2ae <UPDI::send_repeat_header(unsigned char, unsigned long, unsigned int)+0x3a>
/Users/askn/Documents/Zinnia-tools/Products/hardware/UPDI4AVR/libraries/UPDI4AVR/examples/UPDI4AVR_FW753B/src/UPDI.cpp:139
  if (UPDI::UPDI_ACK != UPDI::RECV()) return false;
     29e:	35 df       	rcall	.-406    	; 0x10a <UPDI::RECV()>
     2a0:	80 34       	cpi	r24, 0x40	; 64
     2a2:	29 f4       	brne	.+10     	; 0x2ae <UPDI::send_repeat_header(unsigned char, unsigned long, unsigned int)+0x3a>
     2a4:	65 e0       	ldi	r22, 0x05	; 5
/Users/askn/Documents/Zinnia-tools/Products/hardware/UPDI4AVR/libraries/UPDI4AVR/examples/UPDI4AVR_FW753B/src/UPDI.cpp:140
  return UPDI::send_bytes(set_repeat, sizeof(set_repeat));
     2a6:	70 e0       	ldi	r23, 0x00	; 0
     2a8:	85 e0       	ldi	r24, 0x05	; 5
     2aa:	98 e3       	ldi	r25, 0x38	; 56
     2ac:	52 cf       	rjmp	.-348    	; 0x152 <UPDI::send_bytes(unsigned char const*, unsigned int)>
     2ae:	80 e0       	ldi	r24, 0x00	; 0
/Users/askn/Documents/Zinnia-tools/Products/hardware/UPDI4AVR/libraries/UPDI4AVR/examples/UPDI4AVR_FW753B/src/UPDI.cpp:141
}
     2b0:	08 95       	ret

000002b2 <UPDI::BREAK()>:
_ZN4UPDI5BREAKEv():
     2b2:	cf 93       	push	r28
/Users/askn/Documents/Zinnia-tools/Products/hardware/UPDI4AVR/libraries/UPDI4AVR/examples/UPDI4AVR_FW753B/src/UPDI.cpp:81
 * BREAKキャラクタ
 *
 * 送信速度を遅くすることで生成する
 */

void UPDI::BREAK (void) {
     2b4:	df 93       	push	r29
     2b6:	c0 e0       	ldi	r28, 0x00	; 0
/Users/askn/Documents/Zinnia-tools/Products/hardware/UPDI4AVR/libraries/UPDI4AVR/examples/UPDI4AVR_FW753B/src/UPDI.cpp:82
  UPDI_USART.BAUD = UPDI_BAUD_BREAK;
     2b8:	d8 e0       	ldi	r29, 0x08	; 8
     2ba:	80 ec       	ldi	r24, 0xC0	; 192
     2bc:	94 e4       	ldi	r25, 0x44	; 68
     2be:	88 87       	std	Y+8, r24	; 0x08
     2c0:	99 87       	std	Y+9, r25	; 0x09
     2c2:	80 e0       	ldi	r24, 0x00	; 0
/Users/askn/Documents/Zinnia-tools/Products/hardware/UPDI4AVR/libraries/UPDI4AVR/examples/UPDI4AVR_FW753B/src/UPDI.cpp:83
  UPDI::SEND(UPDI::UPDI_NOP);
     2c4:	2e df       	rcall	.-420    	; 0x122 <UPDI::SEND(unsigned char)>
     2c6:	80 eb       	ldi	r24, 0xB0	; 176
     2c8:	90 e0       	ldi	r25, 0x00	; 0
/Users/askn/Documents/Zinnia-tools/Products/hardware/UPDI4AVR/libraries/UPDI4AVR/examples/UPDI4AVR_FW753B/src/UPDI.cpp:84
  UPDI_USART.BAUD = UPDI_BAUD_CALC;
     2ca:	88 87       	std	Y+8, r24	; 0x08
     2cc:	99 87       	std	Y+9, r25	; 0x09
     2ce:	df 91       	pop	r29
/Users/askn/Documents/Zinnia-tools/Products/hardware/UPDI4AVR/libraries/UPDI4AVR/examples/UPDI4AVR_FW753B/src/UPDI.cpp:85
}
     2d0:	cf 91       	pop	r28
     2d2:	08 95       	ret

000002d4 <UPDI::is_cs_stat(unsigned char, unsigned char)>:
_ZN4UPDI10is_cs_statEhh():
/Users/askn/Documents/Zinnia-tools/Products/hardware/UPDI4AVR/libraries/UPDI4AVR/examples/UPDI4AVR_FW753B/src/UPDI.cpp:193

/*
 * コントロールステータス受信
 */

bool UPDI::is_cs_stat (const uint8_t code, uint8_t check) {
     2d4:	cf 93       	push	r28
/Users/askn/Documents/Zinnia-tools/Products/hardware/UPDI4AVR/libraries/UPDI4AVR/examples/UPDI4AVR_FW753B/src/UPDI.cpp:195
  static uint8_t set_ptr[] = { UPDI::UPDI_SYNCH, 0 };
  set_ptr[1] = UPDI::UPDI_LDCS | code;
     2d6:	c6 2f       	mov	r28, r22
     2d8:	80 68       	ori	r24, 0x80	; 128
     2da:	80 93 1d 38 	sts	0x381D, r24	; 0x80381d <UPDI::is_cs_stat(unsigned char, unsigned char)::set_ptr+0x1>
/Users/askn/Documents/Zinnia-tools/Products/hardware/UPDI4AVR/libraries/UPDI4AVR/examples/UPDI4AVR_FW753B/src/UPDI.cpp:196
  while (!UPDI::send_bytes(set_ptr, sizeof(set_ptr))) UPDI::BREAK();
     2de:	62 e0       	ldi	r22, 0x02	; 2
     2e0:	70 e0       	ldi	r23, 0x00	; 0
     2e2:	8c e1       	ldi	r24, 0x1C	; 28
     2e4:	98 e3       	ldi	r25, 0x38	; 56
     2e6:	35 df       	rcall	.-406    	; 0x152 <UPDI::send_bytes(unsigned char const*, unsigned int)>
     2e8:	81 11       	cpse	r24, r1
     2ea:	02 c0       	rjmp	.+4      	; 0x2f0 <UPDI::is_cs_stat(unsigned char, unsigned char)+0x1c>
     2ec:	e2 df       	rcall	.-60     	; 0x2b2 <UPDI::BREAK()>
     2ee:	f7 cf       	rjmp	.-18     	; 0x2de <UPDI::is_cs_stat(unsigned char, unsigned char)+0xa>
     2f0:	0c df       	rcall	.-488    	; 0x10a <UPDI::RECV()>
/Users/askn/Documents/Zinnia-tools/Products/hardware/UPDI4AVR/libraries/UPDI4AVR/examples/UPDI4AVR_FW753B/src/UPDI.cpp:197
  return check == (UPDI::RECV() & check);
     2f2:	98 2f       	mov	r25, r24
     2f4:	9c 23       	and	r25, r28
     2f6:	81 e0       	ldi	r24, 0x01	; 1
     2f8:	9c 13       	cpse	r25, r28
     2fa:	80 e0       	ldi	r24, 0x00	; 0
/Users/askn/Documents/Zinnia-tools/Products/hardware/UPDI4AVR/libraries/UPDI4AVR/examples/UPDI4AVR_FW753B/src/UPDI.cpp:198
}
     2fc:	cf 91       	pop	r28
/Users/askn/Documents/Zinnia-tools/Products/hardware/UPDI4AVR/libraries/UPDI4AVR/examples/UPDI4AVR_FW753B/src/UPDI.cpp:184
  static uint8_t set_ptr[] = {
      UPDI::UPDI_SYNCH
    , UPDI::UPDI_LDS | UPDI::UPDI_ADDR3 | UPDI::UPDI_DATA1
    , 0, 0, 0, 0  // qword address
  };
  _CAPS16(set_ptr[2])->word = (uint16_t)addr;
     2fe:	08 95       	ret

00000300 <UPDI::ld8(unsigned long)>:
_ZN4UPDI3ld8Em():
     300:	60 93 18 38 	sts	0x3818, r22	; 0x803818 <UPDI::ld8(unsigned long)::set_ptr+0x2>
     304:	70 93 19 38 	sts	0x3819, r23	; 0x803819 <UPDI::ld8(unsigned long)::set_ptr+0x3>
/Users/askn/Documents/Zinnia-tools/Products/hardware/UPDI4AVR/libraries/UPDI4AVR/examples/UPDI4AVR_FW753B/src/UPDI.cpp:185
  while (!UPDI::send_bytes(set_ptr, sizeof(set_ptr) - 1)) UPDI::BREAK();
     308:	65 e0       	ldi	r22, 0x05	; 5
     30a:	70 e0       	ldi	r23, 0x00	; 0
     30c:	86 e1       	ldi	r24, 0x16	; 22
     30e:	98 e3       	ldi	r25, 0x38	; 56
     310:	20 df       	rcall	.-448    	; 0x152 <UPDI::send_bytes(unsigned char const*, unsigned int)>
     312:	81 11       	cpse	r24, r1
     314:	02 c0       	rjmp	.+4      	; 0x31a <UPDI::ld8(unsigned long)+0x1a>
     316:	cd df       	rcall	.-102    	; 0x2b2 <UPDI::BREAK()>
     318:	f7 cf       	rjmp	.-18     	; 0x308 <UPDI::ld8(unsigned long)+0x8>
/Users/askn/Documents/Zinnia-tools/Products/hardware/UPDI4AVR/libraries/UPDI4AVR/examples/UPDI4AVR_FW753B/src/UPDI.cpp:186
  return UPDI::RECV();
     31a:	f7 ce       	rjmp	.-530    	; 0x10a <UPDI::RECV()>

0000031c <UPDI::Target_Reset(bool)>:
_ZN4UPDI12Target_ResetEb():
     31c:	cf 93       	push	r28
/Users/askn/Documents/Zinnia-tools/Products/hardware/UPDI4AVR/libraries/UPDI4AVR/examples/UPDI4AVR_FW753B/src/UPDI.cpp:93
 * 対象リセット
 *
 * BREAKを前置するタイプ
 */

bool UPDI::Target_Reset (bool _enable) {
     31e:	c8 2f       	mov	r28, r24
     320:	c8 df       	rcall	.-112    	; 0x2b2 <UPDI::BREAK()>
/Users/askn/Documents/Zinnia-tools/Products/hardware/UPDI4AVR/libraries/UPDI4AVR/examples/UPDI4AVR_FW753B/src/UPDI.cpp:101
    , UPDI::UPDI_STCS | UPDI::UPDI_CS_ASI_RESET_REQ
    , 0
    , UPDI::UPDI_STCS | UPDI::UPDI_CS_CTRLB
    , UPDI::UPDI_SET_UPDIDIS
  };
  UPDI::BREAK();
     322:	80 e0       	ldi	r24, 0x00	; 0
     324:	c1 11       	cpse	r28, r1
/Users/askn/Documents/Zinnia-tools/Products/hardware/UPDI4AVR/libraries/UPDI4AVR/examples/UPDI4AVR_FW753B/src/UPDI.cpp:102
  set_ptr[2] = _enable ? UPDI::UPDI_RSTREQ : UPDI::UPDI_NOP;
     326:	89 e5       	ldi	r24, 0x59	; 89
     328:	80 93 02 38 	sts	0x3802, r24	; 0x803802 <__DATA_REGION_ORIGIN__+0x2>
     32c:	65 e0       	ldi	r22, 0x05	; 5
     32e:	70 e0       	ldi	r23, 0x00	; 0
/Users/askn/Documents/Zinnia-tools/Products/hardware/UPDI4AVR/libraries/UPDI4AVR/examples/UPDI4AVR_FW753B/src/UPDI.cpp:103
  return UPDI::send_bytes(set_ptr, sizeof(set_ptr));
     330:	80 e0       	ldi	r24, 0x00	; 0
     332:	98 e3       	ldi	r25, 0x38	; 56
     334:	cf 91       	pop	r28
     336:	0d cf       	rjmp	.-486    	; 0x152 <UPDI::send_bytes(unsigned char const*, unsigned int)>

00000338 <TIM::LED_Blink()>:
_ZN3TIM9LED_BlinkEv():
/Users/askn/Documents/Zinnia-tools/Products/hardware/UPDI4AVR/libraries/UPDI4AVR/examples/UPDI4AVR_FW753B/src/UPDI.cpp:104
}
     338:	80 91 50 38 	lds	r24, 0x3850	; 0x803850 <TIM::mode>
/Users/askn/Documents/Zinnia-tools/Products/hardware/UPDI4AVR/libraries/UPDI4AVR/examples/UPDI4AVR_FW753B/src/UPDI.cpp:103
    , UPDI::UPDI_STCS | UPDI::UPDI_CS_CTRLB
    , UPDI::UPDI_SET_UPDIDIS
  };
  UPDI::BREAK();
  set_ptr[2] = _enable ? UPDI::UPDI_RSTREQ : UPDI::UPDI_NOP;
  return UPDI::send_bytes(set_ptr, sizeof(set_ptr));
     33c:	83 30       	cpi	r24, 0x03	; 3
/Users/askn/Documents/Zinnia-tools/Products/hardware/UPDI4AVR/libraries/UPDI4AVR/examples/UPDI4AVR_FW753B/src/TIM.cpp:155
    LEDG_EVOUT = EVSYS_USER_CHANNEL2_gc;
  }
}

void LED_TCB1 (uint8_t mode, uint16_t ccmp) {
  if (TIM::mode != mode) {
     33e:	99 f0       	breq	.+38     	; 0x366 <TIM::LED_Blink()+0x2e>
     340:	83 e0       	ldi	r24, 0x03	; 3
     342:	80 93 50 38 	sts	0x3850, r24	; 0x803850 <TIM::mode>
/Users/askn/Documents/Zinnia-tools/Products/hardware/UPDI4AVR/libraries/UPDI4AVR/examples/UPDI4AVR_FW753B/src/TIM.cpp:156
    TIM::mode = mode;
     346:	89 ea       	ldi	r24, 0xA9	; 169
     348:	95 e5       	ldi	r25, 0x55	; 85
     34a:	80 93 9c 0a 	sts	0x0A9C, r24	; 0x800a9c <UPDI::nvmprog_key+0x7f72fe>
/Users/askn/Documents/Zinnia-tools/Products/hardware/UPDI4AVR/libraries/UPDI4AVR/examples/UPDI4AVR_FW753B/src/TIM.cpp:157
    TCB1_CCMP = ccmp;
     34e:	90 93 9d 0a 	sts	0x0A9D, r25	; 0x800a9d <UPDI::nvmprog_key+0x7f72ff>
     352:	10 92 9a 0a 	sts	0x0A9A, r1	; 0x800a9a <UPDI::nvmprog_key+0x7f72fc>
     356:	10 92 9b 0a 	sts	0x0A9B, r1	; 0x800a9b <UPDI::nvmprog_key+0x7f72fd>
/Users/askn/Documents/Zinnia-tools/Products/hardware/UPDI4AVR/libraries/UPDI4AVR/examples/UPDI4AVR_FW753B/src/TIM.cpp:158
    TCB1_CNT = 0;
     35a:	8f e4       	ldi	r24, 0x4F	; 79
     35c:	80 93 90 0a 	sts	0x0A90, r24	; 0x800a90 <UPDI::nvmprog_key+0x7f72f2>
/Users/askn/Documents/Zinnia-tools/Products/hardware/UPDI4AVR/libraries/UPDI4AVR/examples/UPDI4AVR_FW753B/src/TIM.cpp:159
    TCB1_CTRLA = TCB_RUNSTDBY_bm | TCB_ENABLE_bm | TCB_CLKSEL_EVENT_gc;
     360:	81 e0       	ldi	r24, 0x01	; 1
     362:	80 93 a9 01 	sts	0x01A9, r24	; 0x8001a9 <UPDI::nvmprog_key+0x7f6a0b>
/Users/askn/Documents/Zinnia-tools/Products/hardware/UPDI4AVR/libraries/UPDI4AVR/examples/UPDI4AVR_FW753B/src/TIM.cpp:160
    LEDG_EVOUT = EVSYS_USER_CHANNEL0_gc;
     366:	08 95       	ret

00000368 <TIM::LED_Flash()>:
_ZN3TIM9LED_FlashEv():
     368:	80 91 50 38 	lds	r24, 0x3850	; 0x803850 <TIM::mode>
/Users/askn/Documents/Zinnia-tools/Products/hardware/UPDI4AVR/libraries/UPDI4AVR/examples/UPDI4AVR_FW753B/src/TIM.cpp:172
}

/* 点滅（SW1アサート）*/
void TIM::LED_Blink (void) {
  LED_TCB1(3, TCB1_BLINK);
}
     36c:	82 30       	cpi	r24, 0x02	; 2
/Users/askn/Documents/Zinnia-tools/Products/hardware/UPDI4AVR/libraries/UPDI4AVR/examples/UPDI4AVR_FW753B/src/TIM.cpp:155
    LEDG_EVOUT = EVSYS_USER_CHANNEL2_gc;
  }
}

void LED_TCB1 (uint8_t mode, uint16_t ccmp) {
  if (TIM::mode != mode) {
     36e:	99 f0       	breq	.+38     	; 0x396 <TIM::LED_Flash()+0x2e>
     370:	82 e0       	ldi	r24, 0x02	; 2
     372:	80 93 50 38 	sts	0x3850, r24	; 0x803850 <TIM::mode>
/Users/askn/Documents/Zinnia-tools/Products/hardware/UPDI4AVR/libraries/UPDI4AVR/examples/UPDI4AVR_FW753B/src/TIM.cpp:156
    TIM::mode = mode;
     376:	89 ea       	ldi	r24, 0xA9	; 169
     378:	98 e0       	ldi	r25, 0x08	; 8
     37a:	80 93 9c 0a 	sts	0x0A9C, r24	; 0x800a9c <UPDI::nvmprog_key+0x7f72fe>
/Users/askn/Documents/Zinnia-tools/Products/hardware/UPDI4AVR/libraries/UPDI4AVR/examples/UPDI4AVR_FW753B/src/TIM.cpp:157
    TCB1_CCMP = ccmp;
     37e:	90 93 9d 0a 	sts	0x0A9D, r25	; 0x800a9d <UPDI::nvmprog_key+0x7f72ff>
     382:	10 92 9a 0a 	sts	0x0A9A, r1	; 0x800a9a <UPDI::nvmprog_key+0x7f72fc>
     386:	10 92 9b 0a 	sts	0x0A9B, r1	; 0x800a9b <UPDI::nvmprog_key+0x7f72fd>
/Users/askn/Documents/Zinnia-tools/Products/hardware/UPDI4AVR/libraries/UPDI4AVR/examples/UPDI4AVR_FW753B/src/TIM.cpp:158
    TCB1_CNT = 0;
     38a:	8f e4       	ldi	r24, 0x4F	; 79
     38c:	80 93 90 0a 	sts	0x0A90, r24	; 0x800a90 <UPDI::nvmprog_key+0x7f72f2>
/Users/askn/Documents/Zinnia-tools/Products/hardware/UPDI4AVR/libraries/UPDI4AVR/examples/UPDI4AVR_FW753B/src/TIM.cpp:159
    TCB1_CTRLA = TCB_RUNSTDBY_bm | TCB_ENABLE_bm | TCB_CLKSEL_EVENT_gc;
     390:	81 e0       	ldi	r24, 0x01	; 1
     392:	80 93 a9 01 	sts	0x01A9, r24	; 0x8001a9 <UPDI::nvmprog_key+0x7f6a0b>
/Users/askn/Documents/Zinnia-tools/Products/hardware/UPDI4AVR/libraries/UPDI4AVR/examples/UPDI4AVR_FW753B/src/TIM.cpp:160
    LEDG_EVOUT = EVSYS_USER_CHANNEL0_gc;
     396:	08 95       	ret

00000398 <TIM::Timeout_Stop()>:
_ZN3TIM12Timeout_StopEv():
     398:	8f b7       	in	r24, 0x3f	; 63
__iCliRetVal():
     39a:	f8 94       	cli
_ZN3TIM12Timeout_StopEv():
/Users/askn/Documents/Zinnia-tools/Products/hardware/UPDI4AVR/libraries/UPDI4AVR/examples/UPDI4AVR_FW753B/src/TIM.cpp:167
}

/* フラッシュ（RTSアサート/UPDI許認可後）*/
void TIM::LED_Flash (void) {
  LED_TCB1(2, TCB1_FLASH);
}
     39c:	10 92 80 0a 	sts	0x0A80, r1	; 0x800a80 <UPDI::nvmprog_key+0x7f72e2>
/Users/askn/Library/Arduino15/packages/MultiX-Zinnia/tools/avr-gcc/7.3.0-avr8-gnu-toolchain/avr/include/util/atomic.h:50
    return 1;
}

static __inline__ uint8_t __iCliRetVal(void)
{
    cli();
     3a0:	91 e0       	ldi	r25, 0x01	; 1
/Users/askn/Documents/Zinnia-tools/Products/hardware/UPDI4AVR/libraries/UPDI4AVR/examples/UPDI4AVR_FW753B/src/TIM.cpp:133
  }
}

void TIM::Timeout_Stop (void) {
  ATOMIC_BLOCK(ATOMIC_RESTORESTATE) {
    TCB0_CTRLA = 0;
     3a2:	90 93 86 0a 	sts	0x0A86, r25	; 0x800a86 <UPDI::nvmprog_key+0x7f72e8>
__iRestore():
/Users/askn/Documents/Zinnia-tools/Products/hardware/UPDI4AVR/libraries/UPDI4AVR/examples/UPDI4AVR_FW753B/src/TIM.cpp:134
    TCB0_INTFLAGS = TCB_CAPT_bm;
     3a6:	8f bf       	out	0x3f, r24	; 63
_ZN3TIM12Timeout_StopEv():
     3a8:	18 95       	reti
/Users/askn/Library/Arduino15/packages/MultiX-Zinnia/tools/avr-gcc/7.3.0-avr8-gnu-toolchain/avr/include/util/atomic.h:70
    (void)__s;
}

static __inline__ void __iRestore(const  uint8_t *__s)
{
    SREG = *__s;
     3aa:	08 95       	ret

000003ac <SYS::WDT_SET(unsigned char)>:
_ZN3SYS7WDT_SETEh():
/Users/askn/Documents/Zinnia-tools/Products/hardware/UPDI4AVR/libraries/UPDI4AVR/examples/UPDI4AVR_FW753B/src/TIM.cpp:136
  }
  reti();
     3ac:	90 91 01 01 	lds	r25, 0x0101	; 0x800101 <UPDI::nvmprog_key+0x7f6963>
/Users/askn/Documents/Zinnia-tools/Products/hardware/UPDI4AVR/libraries/UPDI4AVR/examples/UPDI4AVR_FW753B/src/SYS.cpp:133
/*
 * WDT操作
 */

void SYS::WDT_SET (uint8_t _wdt_period) {
  loop_until_bit_is_clear(WDT_STATUS, WDT_SYNCBUSY_bp);
     3b0:	90 fd       	sbrc	r25, 0
     3b2:	fc cf       	rjmp	.-8      	; 0x3ac <SYS::WDT_SET(unsigned char)>
     3b4:	98 ed       	ldi	r25, 0xD8	; 216
/Users/askn/Documents/Zinnia-tools/Products/hardware/UPDI4AVR/libraries/UPDI4AVR/examples/UPDI4AVR_FW753B/src/SYS.cpp:134
  _PROTECTED_WRITE(WDT_CTRLA, _wdt_period);
     3b6:	94 bf       	out	0x34, r25	; 52
     3b8:	80 93 00 01 	sts	0x0100, r24	; 0x800100 <UPDI::nvmprog_key+0x7f6962>
/Users/askn/Documents/Zinnia-tools/Products/hardware/UPDI4AVR/libraries/UPDI4AVR/examples/UPDI4AVR_FW753B/src/SYS.cpp:135
}
     3bc:	08 95       	ret

000003be <NVM::nvm_ctrl(unsigned char)>:
_ZN3NVM8nvm_ctrlEh():
/Users/askn/Documents/Zinnia-tools/Products/hardware/UPDI4AVR/libraries/UPDI4AVR/examples/UPDI4AVR_FW753B/src/NVM.cpp:289
/*
 * NVMCTRL制御
 */

bool NVM::nvm_ctrl (uint8_t nvmcmd) {
  return UPDI::st8(NVM::NVMCTRL_REG_CTRLA, nvmcmd);
     3be:	48 2f       	mov	r20, r24
     3c0:	60 e0       	ldi	r22, 0x00	; 0
     3c2:	70 e1       	ldi	r23, 0x10	; 16
     3c4:	80 e0       	ldi	r24, 0x00	; 0
     3c6:	90 e0       	ldi	r25, 0x00	; 0
     3c8:	34 cf       	rjmp	.-408    	; 0x232 <UPDI::st8(unsigned long, unsigned char)>

000003ca <nvm_ctrl_change(unsigned char)>:
_Z15nvm_ctrl_changeh():
/Users/askn/Documents/Zinnia-tools/Products/hardware/UPDI4AVR/libraries/UPDI4AVR/examples/UPDI4AVR_FW753B/src/NVM.cpp:293
}

/* NVMCTRL v0 */
bool nvm_ctrl_change (uint8_t nvmcmd) {
     3ca:	cf 93       	push	r28
     3cc:	c8 2f       	mov	r28, r24
/Users/askn/Documents/Zinnia-tools/Products/hardware/UPDI4AVR/libraries/UPDI4AVR/examples/UPDI4AVR_FW753B/src/NVM.cpp:294
  if (UPDI::ld8(NVM::NVMCTRL_REG_CTRLA) == nvmcmd) return true;
     3ce:	60 e0       	ldi	r22, 0x00	; 0
     3d0:	70 e1       	ldi	r23, 0x10	; 16
     3d2:	80 e0       	ldi	r24, 0x00	; 0
     3d4:	90 e0       	ldi	r25, 0x00	; 0
     3d6:	94 df       	rcall	.-216    	; 0x300 <UPDI::ld8(unsigned long)>
     3d8:	8c 13       	cpse	r24, r28
     3da:	03 c0       	rjmp	.+6      	; 0x3e2 <nvm_ctrl_change(unsigned char)+0x18>
     3dc:	81 e0       	ldi	r24, 0x01	; 1
     3de:	cf 91       	pop	r28
/Users/askn/Documents/Zinnia-tools/Products/hardware/UPDI4AVR/libraries/UPDI4AVR/examples/UPDI4AVR_FW753B/src/NVM.cpp:298
  if (!NVM::nvm_ctrl(NVM::NVM_V2_CMD_NOCMD)) return false;
  if (NVM::NVM_V2_CMD_NOCMD != nvmcmd) return NVM::nvm_ctrl(nvmcmd);
  return true;
}
     3e0:	08 95       	ret
     3e2:	80 e0       	ldi	r24, 0x00	; 0
/Users/askn/Documents/Zinnia-tools/Products/hardware/UPDI4AVR/libraries/UPDI4AVR/examples/UPDI4AVR_FW753B/src/NVM.cpp:295
}

/* NVMCTRL v0 */
bool nvm_ctrl_change (uint8_t nvmcmd) {
  if (UPDI::ld8(NVM::NVMCTRL_REG_CTRLA) == nvmcmd) return true;
  if (!NVM::nvm_ctrl(NVM::NVM_V2_CMD_NOCMD)) return false;
     3e4:	ec df       	rcall	.-40     	; 0x3be <NVM::nvm_ctrl(unsigned char)>
     3e6:	88 23       	and	r24, r24
     3e8:	d1 f3       	breq	.-12     	; 0x3de <nvm_ctrl_change(unsigned char)+0x14>
     3ea:	cc 23       	and	r28, r28
     3ec:	b9 f3       	breq	.-18     	; 0x3dc <nvm_ctrl_change(unsigned char)+0x12>
/Users/askn/Documents/Zinnia-tools/Products/hardware/UPDI4AVR/libraries/UPDI4AVR/examples/UPDI4AVR_FW753B/src/NVM.cpp:296
  if (NVM::NVM_V2_CMD_NOCMD != nvmcmd) return NVM::nvm_ctrl(nvmcmd);
     3ee:	8c 2f       	mov	r24, r28
     3f0:	cf 91       	pop	r28
     3f2:	e5 cf       	rjmp	.-54     	; 0x3be <NVM::nvm_ctrl(unsigned char)>

000003f4 <JTAG2::set_response(JTAG2::jtag_response_e)>:
_ZN5JTAG212set_responseENS_15jtag_response_eE():
/Users/askn/Documents/Zinnia-tools/Products/hardware/UPDI4AVR/libraries/UPDI4AVR/examples/UPDI4AVR_FW753B/src/NVM.cpp:298
  return true;
}
     3f4:	44 e0       	ldi	r20, 0x04	; 4
/Users/askn/Documents/Zinnia-tools/Products/hardware/UPDI4AVR/libraries/UPDI4AVR/examples/UPDI4AVR_FW753B/src/NVM.cpp:296

/* NVMCTRL v0 */
bool nvm_ctrl_change (uint8_t nvmcmd) {
  if (UPDI::ld8(NVM::NVMCTRL_REG_CTRLA) == nvmcmd) return true;
  if (!NVM::nvm_ctrl(NVM::NVM_V2_CMD_NOCMD)) return false;
  if (NVM::NVM_V2_CMD_NOCMD != nvmcmd) return NVM::nvm_ctrl(nvmcmd);
     3f6:	50 e0       	ldi	r21, 0x00	; 0
     3f8:	60 e0       	ldi	r22, 0x00	; 0
/Users/askn/Documents/Zinnia-tools/Products/hardware/UPDI4AVR/libraries/UPDI4AVR/examples/UPDI4AVR_FW753B/src/JTAG2.cpp:162
  }
}

/* JTAG Response */
void JTAG2::set_response (jtag_response_e response_code) {
  packet.size = 4;
     3fa:	70 e0       	ldi	r23, 0x00	; 0
     3fc:	40 93 62 38 	sts	0x3862, r20	; 0x803862 <JTAG2::packet+0x3>
     400:	50 93 63 38 	sts	0x3863, r21	; 0x803863 <JTAG2::packet+0x4>
     404:	60 93 64 38 	sts	0x3864, r22	; 0x803864 <JTAG2::packet+0x5>
     408:	70 93 65 38 	sts	0x3865, r23	; 0x803865 <JTAG2::packet+0x6>
     40c:	80 93 67 38 	sts	0x3867, r24	; 0x803867 <JTAG2::packet+0x8>
     410:	e1 99       	sbic	0x1c, 1	; 28
/Users/askn/Documents/Zinnia-tools/Products/hardware/UPDI4AVR/libraries/UPDI4AVR/examples/UPDI4AVR_FW753B/src/JTAG2.cpp:164
  /* 応答番号 */
  packet.body[0] = response_code;
     412:	0b c0       	rjmp	.+22     	; 0x42a <__LOCK_REGION_LENGTH__+0x2a>
     414:	8c b3       	in	r24, 0x1c	; 28
/Users/askn/Documents/Zinnia-tools/Products/hardware/UPDI4AVR/libraries/UPDI4AVR/examples/UPDI4AVR_FW753B/src/JTAG2.cpp:166
  /* 動作状態 0:無効 1:認識 2:書込可 */
  packet.body[1] = bit_is_set(UPDI_CONTROL, UPDI::UPDI_PROG_bp) ? 2
     416:	81 70       	andi	r24, 0x01	; 1
     418:	80 93 68 38 	sts	0x3868, r24	; 0x803868 <JTAG2::packet+0x9>
     41c:	8c b3       	in	r24, 0x1c	; 28
     41e:	80 93 69 38 	sts	0x3869, r24	; 0x803869 <JTAG2::packet+0xa>
/Users/askn/Documents/Zinnia-tools/Products/hardware/UPDI4AVR/libraries/UPDI4AVR/examples/UPDI4AVR_FW753B/src/JTAG2.cpp:169
                 : bit_is_set(UPDI_CONTROL, UPDI::UPDI_INFO_bp) ? 1 : 0;
  /* 内部状態フラグ */
  packet.body[2] = UPDI_CONTROL;
     422:	8d b3       	in	r24, 0x1d	; 29
     424:	80 93 6a 38 	sts	0x386A, r24	; 0x80386a <JTAG2::packet+0xb>
/Users/askn/Documents/Zinnia-tools/Products/hardware/UPDI4AVR/libraries/UPDI4AVR/examples/UPDI4AVR_FW753B/src/JTAG2.cpp:170
  packet.body[3] = UPDI_NVMCTRL;
     428:	08 95       	ret
     42a:	82 e0       	ldi	r24, 0x02	; 2
     42c:	f5 cf       	rjmp	.-22     	; 0x418 <__LOCK_REGION_LENGTH__+0x18>

0000042e <_crc_ccitt_update(unsigned int, unsigned char)>:
_ZL17_crc_ccitt_updatejh():
/Users/askn/Documents/Zinnia-tools/Products/hardware/UPDI4AVR/libraries/UPDI4AVR/examples/UPDI4AVR_FW753B/src/JTAG2.cpp:171
}
     42e:	86 27       	eor	r24, r22
/Users/askn/Documents/Zinnia-tools/Products/hardware/UPDI4AVR/libraries/UPDI4AVR/examples/UPDI4AVR_FW753B/src/JTAG2.cpp:166
void JTAG2::set_response (jtag_response_e response_code) {
  packet.size = 4;
  /* 応答番号 */
  packet.body[0] = response_code;
  /* 動作状態 0:無効 1:認識 2:書込可 */
  packet.body[1] = bit_is_set(UPDI_CONTROL, UPDI::UPDI_PROG_bp) ? 2
     430:	08 2e       	mov	r0, r24
     432:	82 95       	swap	r24
/Users/askn/Library/Arduino15/packages/MultiX-Zinnia/tools/avr-gcc/7.3.0-avr8-gnu-toolchain/avr/include/util/crc16.h:285
        "eor    %A0,__tmp_reg__"

        : "=d" (__ret)
        : "r" (__data), "0" (__crc)
        : "r0"
    );
     434:	80 7f       	andi	r24, 0xF0	; 240
     436:	80 25       	eor	r24, r0
     438:	09 2e       	mov	r0, r25
     43a:	98 2f       	mov	r25, r24
     43c:	82 95       	swap	r24
     43e:	8f 70       	andi	r24, 0x0F	; 15
     440:	08 26       	eor	r0, r24
     442:	86 95       	lsr	r24
     444:	98 27       	eor	r25, r24
     446:	89 27       	eor	r24, r25
     448:	88 0f       	add	r24, r24
     44a:	88 0f       	add	r24, r24
     44c:	88 0f       	add	r24, r24
     44e:	80 25       	eor	r24, r0
     450:	08 95       	ret

00000452 <JTAG2::answer_transfer()>:
_ZN5JTAG215answer_transferEv():
     452:	af 92       	push	r10
     454:	bf 92       	push	r11
/Users/askn/Library/Arduino15/packages/MultiX-Zinnia/tools/avr-gcc/7.3.0-avr8-gnu-toolchain/avr/include/util/crc16.h:287
    return __ret;
}
     456:	cf 92       	push	r12
/Users/askn/Documents/Zinnia-tools/Products/hardware/UPDI4AVR/libraries/UPDI4AVR/examples/UPDI4AVR_FW753B/src/JTAG2.cpp:147
  while (p != q) _crc = JTAG2::crc16_update(_crc, *q++);
  return _crc == 0;
}

/* JTAG Answer */
void JTAG2::answer_transfer (void) {
     458:	df 92       	push	r13
     45a:	ef 92       	push	r14
     45c:	ff 92       	push	r15
     45e:	0f 93       	push	r16
     460:	1f 93       	push	r17
     462:	cf 93       	push	r28
     464:	df 93       	push	r29
     466:	00 d0       	rcall	.+0      	; 0x468 <JTAG2::answer_transfer()+0x16>
     468:	cd b7       	in	r28, 0x3d	; 61
     46a:	de b7       	in	r29, 0x3e	; 62
     46c:	8f ef       	ldi	r24, 0xFF	; 255
     46e:	9f ef       	ldi	r25, 0xFF	; 255
     470:	89 83       	std	Y+1, r24	; 0x01
/Users/askn/Documents/Zinnia-tools/Products/hardware/UPDI4AVR/libraries/UPDI4AVR/examples/UPDI4AVR_FW753B/src/JTAG2.cpp:148
  uint16_t _crc = ~0;
     472:	9a 83       	std	Y+2, r25	; 0x02
     474:	e0 90 62 38 	lds	r14, 0x3862	; 0x803862 <JTAG2::packet+0x3>
/Users/askn/Documents/Zinnia-tools/Products/hardware/UPDI4AVR/libraries/UPDI4AVR/examples/UPDI4AVR_FW753B/src/JTAG2.cpp:149
  int16_t _len = packet.size_word[0] + 8;
     478:	f0 90 63 38 	lds	r15, 0x3863	; 0x803863 <JTAG2::packet+0x4>
     47c:	87 01       	movw	r16, r14
     47e:	08 5f       	subi	r16, 0xF8	; 248
     480:	1f 4f       	sbci	r17, 0xFF	; 255
     482:	8f e5       	ldi	r24, 0x5F	; 95
     484:	c8 2e       	mov	r12, r24
     486:	88 e3       	ldi	r24, 0x38	; 56
     488:	d8 2e       	mov	r13, r24
     48a:	56 01       	movw	r10, r12
     48c:	81 e0       	ldi	r24, 0x01	; 1
     48e:	e8 1a       	sub	r14, r24
     490:	f1 08       	sbc	r15, r1
     492:	a7 ef       	ldi	r26, 0xF7	; 247
     494:	ea 16       	cp	r14, r26
/Users/askn/Documents/Zinnia-tools/Products/hardware/UPDI4AVR/libraries/UPDI4AVR/examples/UPDI4AVR_FW753B/src/JTAG2.cpp:152
  uint8_t *_p = (uint8_t*) &packet.soh;
  uint8_t *_q = (uint8_t*) &packet.soh;
  while (_len--) _crc = JTAG2::crc16_update(_crc, *_q++);
     496:	af ef       	ldi	r26, 0xFF	; 255
     498:	fa 06       	cpc	r15, r26
     49a:	49 f0       	breq	.+18     	; 0x4ae <JTAG2::answer_transfer()+0x5c>
     49c:	f5 01       	movw	r30, r10
     49e:	61 91       	ld	r22, Z+
     4a0:	5f 01       	movw	r10, r30
crc16_update():
     4a2:	89 81       	ldd	r24, Y+1	; 0x01
     4a4:	9a 81       	ldd	r25, Y+2	; 0x02
/Users/askn/Documents/Zinnia-tools/Products/hardware/UPDI4AVR/libraries/UPDI4AVR/examples/UPDI4AVR_FW753B/src/JTAG2.cpp:116
void JTAG2::flush (void) {
  loop_until_bit_is_set(JTAG_USART.STATUS, USART_TXCIF_bp);
}

uint16_t JTAG2::crc16_update(uint16_t _crc, uint8_t _data) {
  return _crc_ccitt_update(_crc, _data);
     4a6:	c3 df       	rcall	.-122    	; 0x42e <_crc_ccitt_update(unsigned int, unsigned char)>
_ZN5JTAG215answer_transferEv():
     4a8:	89 83       	std	Y+1, r24	; 0x01
     4aa:	9a 83       	std	Y+2, r25	; 0x02
     4ac:	ef cf       	rjmp	.-34     	; 0x48c <JTAG2::answer_transfer()+0x3a>
/Users/askn/Documents/Zinnia-tools/Products/hardware/UPDI4AVR/libraries/UPDI4AVR/examples/UPDI4AVR_FW753B/src/JTAG2.cpp:152
void JTAG2::answer_transfer (void) {
  uint16_t _crc = ~0;
  int16_t _len = packet.size_word[0] + 8;
  uint8_t *_p = (uint8_t*) &packet.soh;
  uint8_t *_q = (uint8_t*) &packet.soh;
  while (_len--) _crc = JTAG2::crc16_update(_crc, *_q++);
     4ae:	f8 01       	movw	r30, r16
     4b0:	e1 5a       	subi	r30, 0xA1	; 161
     4b2:	f7 4c       	sbci	r31, 0xC7	; 199
     4b4:	89 81       	ldd	r24, Y+1	; 0x01
     4b6:	80 83       	st	Z, r24
     4b8:	8a 81       	ldd	r24, Y+2	; 0x02
/Users/askn/Documents/Zinnia-tools/Products/hardware/UPDI4AVR/libraries/UPDI4AVR/examples/UPDI4AVR_FW753B/src/JTAG2.cpp:153
  (*_q++) = _CAPS16(_crc)->bytes[0];
     4ba:	81 83       	std	Z+1, r24	; 0x01
     4bc:	2f b7       	in	r18, 0x3f	; 63
__iCliRetVal():
/Users/askn/Documents/Zinnia-tools/Products/hardware/UPDI4AVR/libraries/UPDI4AVR/examples/UPDI4AVR_FW753B/src/JTAG2.cpp:154
  (*_q++) = _CAPS16(_crc)->bytes[1];
     4be:	f8 94       	cli
_ZN5JTAG215answer_transferEv():
     4c0:	32 96       	adiw	r30, 0x02	; 2
put():
/Users/askn/Documents/Zinnia-tools/Products/hardware/UPDI4AVR/libraries/UPDI4AVR/examples/UPDI4AVR_FW753B/src/JTAG2.cpp:155
  ATOMIC_BLOCK(ATOMIC_RESTORESTATE) {
     4c2:	90 e4       	ldi	r25, 0x40	; 64
_ZN5JTAG215answer_transferEv():
/Users/askn/Library/Arduino15/packages/MultiX-Zinnia/tools/avr-gcc/7.3.0-avr8-gnu-toolchain/avr/include/util/atomic.h:50
    return 1;
}

static __inline__ uint8_t __iCliRetVal(void)
{
    cli();
     4c4:	ce 16       	cp	r12, r30
/Users/askn/Documents/Zinnia-tools/Products/hardware/UPDI4AVR/libraries/UPDI4AVR/examples/UPDI4AVR_FW753B/src/JTAG2.cpp:154
  int16_t _len = packet.size_word[0] + 8;
  uint8_t *_p = (uint8_t*) &packet.soh;
  uint8_t *_q = (uint8_t*) &packet.soh;
  while (_len--) _crc = JTAG2::crc16_update(_crc, *_q++);
  (*_q++) = _CAPS16(_crc)->bytes[0];
  (*_q++) = _CAPS16(_crc)->bytes[1];
     4c6:	df 06       	cpc	r13, r31
/Users/askn/Documents/Zinnia-tools/Products/hardware/UPDI4AVR/libraries/UPDI4AVR/examples/UPDI4AVR_FW753B/src/JTAG2.cpp:107
  return JTAG_USART.RXDATAL;
}

uint8_t JTAG2::put (uint8_t _data) {
  loop_until_bit_is_set(JTAG_USART.STATUS, USART_DREIF_bp);
  JTAG_USART.STATUS = USART_TXCIF_bm;
     4c8:	71 f4       	brne	.+28     	; 0x4e6 <JTAG2::answer_transfer()+0x94>
__iRestore():
/Users/askn/Documents/Zinnia-tools/Products/hardware/UPDI4AVR/libraries/UPDI4AVR/examples/UPDI4AVR_FW753B/src/JTAG2.cpp:156
  uint8_t *_q = (uint8_t*) &packet.soh;
  while (_len--) _crc = JTAG2::crc16_update(_crc, *_q++);
  (*_q++) = _CAPS16(_crc)->bytes[0];
  (*_q++) = _CAPS16(_crc)->bytes[1];
  ATOMIC_BLOCK(ATOMIC_RESTORESTATE) {
    while (_p != _q) put(*_p++);
     4ca:	2f bf       	out	0x3f, r18	; 63
_ZN5JTAG215answer_transferEv():
     4cc:	0f 90       	pop	r0
     4ce:	0f 90       	pop	r0
/Users/askn/Library/Arduino15/packages/MultiX-Zinnia/tools/avr-gcc/7.3.0-avr8-gnu-toolchain/avr/include/util/atomic.h:70
    (void)__s;
}

static __inline__ void __iRestore(const  uint8_t *__s)
{
    SREG = *__s;
     4d0:	df 91       	pop	r29
/Users/askn/Documents/Zinnia-tools/Products/hardware/UPDI4AVR/libraries/UPDI4AVR/examples/UPDI4AVR_FW753B/src/JTAG2.cpp:158
  }
}
     4d2:	cf 91       	pop	r28
     4d4:	1f 91       	pop	r17
     4d6:	0f 91       	pop	r16
     4d8:	ff 90       	pop	r15
     4da:	ef 90       	pop	r14
     4dc:	df 90       	pop	r13
     4de:	cf 90       	pop	r12
     4e0:	bf 90       	pop	r11
     4e2:	af 90       	pop	r10
     4e4:	08 95       	ret
     4e6:	d6 01       	movw	r26, r12
     4e8:	8d 91       	ld	r24, X+
/Users/askn/Documents/Zinnia-tools/Products/hardware/UPDI4AVR/libraries/UPDI4AVR/examples/UPDI4AVR_FW753B/src/JTAG2.cpp:156
  uint8_t *_q = (uint8_t*) &packet.soh;
  while (_len--) _crc = JTAG2::crc16_update(_crc, *_q++);
  (*_q++) = _CAPS16(_crc)->bytes[0];
  (*_q++) = _CAPS16(_crc)->bytes[1];
  ATOMIC_BLOCK(ATOMIC_RESTORESTATE) {
    while (_p != _q) put(*_p++);
     4ea:	6d 01       	movw	r12, r26
put():
     4ec:	30 91 24 08 	lds	r19, 0x0824	; 0x800824 <UPDI::nvmprog_key+0x7f7086>
/Users/askn/Documents/Zinnia-tools/Products/hardware/UPDI4AVR/libraries/UPDI4AVR/examples/UPDI4AVR_FW753B/src/JTAG2.cpp:106
  loop_until_bit_is_set(JTAG_USART.STATUS, USART_RXCIF_bp);
  return JTAG_USART.RXDATAL;
}

uint8_t JTAG2::put (uint8_t _data) {
  loop_until_bit_is_set(JTAG_USART.STATUS, USART_DREIF_bp);
     4f0:	35 ff       	sbrs	r19, 5
     4f2:	fc cf       	rjmp	.-8      	; 0x4ec <JTAG2::answer_transfer()+0x9a>
     4f4:	90 93 24 08 	sts	0x0824, r25	; 0x800824 <UPDI::nvmprog_key+0x7f7086>
/Users/askn/Documents/Zinnia-tools/Products/hardware/UPDI4AVR/libraries/UPDI4AVR/examples/UPDI4AVR_FW753B/src/JTAG2.cpp:108
  JTAG_USART.STATUS = USART_TXCIF_bm;
  return JTAG_USART.TXDATAL = _data;
     4f8:	80 93 22 08 	sts	0x0822, r24	; 0x800822 <UPDI::nvmprog_key+0x7f7084>
     4fc:	e3 cf       	rjmp	.-58     	; 0x4c4 <JTAG2::answer_transfer()+0x72>

000004fe <UPDI::enter_prog()>:
_ZN4UPDI10enter_progEv():
/Users/askn/Documents/Zinnia-tools/Products/hardware/UPDI4AVR/libraries/UPDI4AVR/examples/UPDI4AVR_FW753B/src/UPDI.cpp:389
/*
 * プログラミング制御開始
 *
 */

bool UPDI::enter_prog (void) {
     4fe:	cf 93       	push	r28
/Users/askn/Documents/Zinnia-tools/Products/hardware/UPDI4AVR/libraries/UPDI4AVR/examples/UPDI4AVR_FW753B/src/UPDI.cpp:390
  if (bit_is_clear(UPDI_CONTROL, UPDI::UPDI_PROG_bp)) {
     500:	e1 99       	sbic	0x1c, 1	; 28
     502:	36 c0       	rjmp	.+108    	; 0x570 <UPDI::enter_prog()+0x72>
is_sys_stat():
/Users/askn/Documents/Zinnia-tools/Products/hardware/UPDI4AVR/libraries/UPDI4AVR/examples/UPDI4AVR_FW753B/src/UPDI.cpp:200
  set_ptr[1] = UPDI::UPDI_LDCS | code;
  while (!UPDI::send_bytes(set_ptr, sizeof(set_ptr))) UPDI::BREAK();
  return check == (UPDI::RECV() & check);
}
inline bool UPDI::is_sys_stat (const uint8_t check) {
  return UPDI::is_cs_stat(UPDI::UPDI_CS_ASI_SYS_STATUS, check);
     504:	60 e2       	ldi	r22, 0x20	; 32
     506:	8b e0       	ldi	r24, 0x0B	; 11
     508:	e5 de       	rcall	.-566    	; 0x2d4 <UPDI::is_cs_stat(unsigned char, unsigned char)>
     50a:	c8 2f       	mov	r28, r24
_ZN4UPDI10enter_progEv():
/Users/askn/Documents/Zinnia-tools/Products/hardware/UPDI4AVR/libraries/UPDI4AVR/examples/UPDI4AVR_FW753B/src/UPDI.cpp:391
 *
 */

bool UPDI::enter_prog (void) {
  if (bit_is_clear(UPDI_CONTROL, UPDI::UPDI_PROG_bp)) {
    while (UPDI::is_sys_stat(UPDI::UPDI_SYS_RSTSYS));
     50c:	81 11       	cpse	r24, r1
     50e:	fa cf       	rjmp	.-12     	; 0x504 <UPDI::enter_prog()+0x6>
/Users/askn/Documents/Zinnia-tools/Products/hardware/UPDI4AVR/libraries/UPDI4AVR/examples/UPDI4AVR_FW753B/src/UPDI.cpp:392
    if (!(UPDI_LASTL & UPDI::UPDI_SYS_NVMPROG)) {
     510:	f3 99       	sbic	0x1e, 3	; 30
/Users/askn/Documents/Zinnia-tools/Products/hardware/UPDI4AVR/libraries/UPDI4AVR/examples/UPDI4AVR_FW753B/src/UPDI.cpp:393
      if (UPDI_LASTL & UPDI::UPDI_SYS_LOCKSTATUS) return false;
     512:	2c c0       	rjmp	.+88     	; 0x56c <UPDI::enter_prog()+0x6e>
     514:	f0 99       	sbic	0x1e, 0	; 30
/Users/askn/Documents/Zinnia-tools/Products/hardware/UPDI4AVR/libraries/UPDI4AVR/examples/UPDI4AVR_FW753B/src/UPDI.cpp:203
}
inline bool UPDI::is_sys_stat (const uint8_t check) {
  return UPDI::is_cs_stat(UPDI::UPDI_CS_ASI_SYS_STATUS, check);
}
inline bool UPDI::is_key_stat (const uint8_t check) {
  return UPDI::is_cs_stat(UPDI::UPDI_CS_ASI_KEY_STATUS, check);
     516:	2d c0       	rjmp	.+90     	; 0x572 <UPDI::enter_prog()+0x74>
is_key_stat():
     518:	60 e1       	ldi	r22, 0x10	; 16
     51a:	87 e0       	ldi	r24, 0x07	; 7
/Users/askn/Documents/Zinnia-tools/Products/hardware/UPDI4AVR/libraries/UPDI4AVR/examples/UPDI4AVR_FW753B/src/UPDI.cpp:394
bool UPDI::enter_prog (void) {
  if (bit_is_clear(UPDI_CONTROL, UPDI::UPDI_PROG_bp)) {
    while (UPDI::is_sys_stat(UPDI::UPDI_SYS_RSTSYS));
    if (!(UPDI_LASTL & UPDI::UPDI_SYS_NVMPROG)) {
      if (UPDI_LASTL & UPDI::UPDI_SYS_LOCKSTATUS) return false;
      if (!UPDI::is_key_stat(UPDI::UPDI_KEY_NVMPROG)) {
     51c:	db de       	rcall	.-586    	; 0x2d4 <UPDI::is_cs_stat(unsigned char, unsigned char)>
_ZN4UPDI10enter_progEv():
     51e:	81 11       	cpse	r24, r1
/Users/askn/Documents/Zinnia-tools/Products/hardware/UPDI4AVR/libraries/UPDI4AVR/examples/UPDI4AVR_FW753B/src/UPDI.cpp:395
        if (!UPDI::send_bytes(UPDI::nvmprog_key, sizeof(UPDI::nvmprog_key))) return false;
     520:	12 c0       	rjmp	.+36     	; 0x546 <UPDI::enter_prog()+0x48>
     522:	6a e0       	ldi	r22, 0x0A	; 10
     524:	70 e0       	ldi	r23, 0x00	; 0
     526:	8e e9       	ldi	r24, 0x9E	; 158
     528:	97 e9       	ldi	r25, 0x97	; 151
     52a:	13 de       	rcall	.-986    	; 0x152 <UPDI::send_bytes(unsigned char const*, unsigned int)>
     52c:	88 23       	and	r24, r24
/Users/askn/Library/Arduino15/packages/MultiX-Zinnia/hardware/UPDI4AVR/0.2.0/cores/megaAVR/api/delay_busywait.h:31
static __inline__ __attribute__((__always_inline__)) void delay_micros (uint32_t _us);
static __inline__ __attribute__((__always_inline__)) void delay_millis (uint32_t _ms);

void delay_micros (uint32_t _us) {
  if (F_CPU >= 1000000L) {
    __builtin_avr_delay_cycles((F_CPU / 1000000L) * _us);
     52e:	09 f1       	breq	.+66     	; 0x572 <UPDI::enter_prog()+0x74>
delay_micros():
     530:	89 ef       	ldi	r24, 0xF9	; 249
     532:	90 e0       	ldi	r25, 0x00	; 0
     534:	01 97       	sbiw	r24, 0x01	; 1
     536:	f1 f7       	brne	.-4      	; 0x534 <UPDI::enter_prog()+0x36>
     538:	00 c0       	rjmp	.+0      	; 0x53a <UPDI::enter_prog()+0x3c>
/Users/askn/Documents/Zinnia-tools/Products/hardware/UPDI4AVR/libraries/UPDI4AVR/examples/UPDI4AVR_FW753B/src/UPDI.cpp:203
}
inline bool UPDI::is_sys_stat (const uint8_t check) {
  return UPDI::is_cs_stat(UPDI::UPDI_CS_ASI_SYS_STATUS, check);
}
inline bool UPDI::is_key_stat (const uint8_t check) {
  return UPDI::is_cs_stat(UPDI::UPDI_CS_ASI_KEY_STATUS, check);
     53a:	00 00       	nop
is_key_stat():
     53c:	60 e1       	ldi	r22, 0x10	; 16
     53e:	87 e0       	ldi	r24, 0x07	; 7
     540:	c9 de       	rcall	.-622    	; 0x2d4 <UPDI::is_cs_stat(unsigned char, unsigned char)>
_ZN4UPDI10enter_progEv():
/Users/askn/Documents/Zinnia-tools/Products/hardware/UPDI4AVR/libraries/UPDI4AVR/examples/UPDI4AVR_FW753B/src/UPDI.cpp:396
    while (UPDI::is_sys_stat(UPDI::UPDI_SYS_RSTSYS));
    if (!(UPDI_LASTL & UPDI::UPDI_SYS_NVMPROG)) {
      if (UPDI_LASTL & UPDI::UPDI_SYS_LOCKSTATUS) return false;
      if (!UPDI::is_key_stat(UPDI::UPDI_KEY_NVMPROG)) {
        if (!UPDI::send_bytes(UPDI::nvmprog_key, sizeof(UPDI::nvmprog_key))) return false;
        do{ delay_micros(100); } while (!UPDI::is_key_stat(UPDI::UPDI_KEY_NVMPROG));
     542:	88 23       	and	r24, r24
     544:	a9 f3       	breq	.-22     	; 0x530 <UPDI::enter_prog()+0x32>
/Users/askn/Documents/Zinnia-tools/Products/hardware/UPDI4AVR/libraries/UPDI4AVR/examples/UPDI4AVR_FW753B/src/UPDI.cpp:398
      }
      if (!UPDI::updi_reset(true) || !UPDI::updi_reset(false)) return false;
     546:	81 e0       	ldi	r24, 0x01	; 1
     548:	1b de       	rcall	.-970    	; 0x180 <UPDI::updi_reset(bool)>
     54a:	88 23       	and	r24, r24
     54c:	91 f0       	breq	.+36     	; 0x572 <UPDI::enter_prog()+0x74>
     54e:	80 e0       	ldi	r24, 0x00	; 0
     550:	17 de       	rcall	.-978    	; 0x180 <UPDI::updi_reset(bool)>
     552:	88 23       	and	r24, r24
     554:	71 f0       	breq	.+28     	; 0x572 <UPDI::enter_prog()+0x74>
delay_micros():
     556:	89 ef       	ldi	r24, 0xF9	; 249
     558:	90 e0       	ldi	r25, 0x00	; 0
/Users/askn/Library/Arduino15/packages/MultiX-Zinnia/hardware/UPDI4AVR/0.2.0/cores/megaAVR/api/delay_busywait.h:31
     55a:	01 97       	sbiw	r24, 0x01	; 1
     55c:	f1 f7       	brne	.-4      	; 0x55a <UPDI::enter_prog()+0x5c>
     55e:	00 c0       	rjmp	.+0      	; 0x560 <UPDI::enter_prog()+0x62>
     560:	00 00       	nop
is_sys_stat():
     562:	68 e0       	ldi	r22, 0x08	; 8
     564:	8b e0       	ldi	r24, 0x0B	; 11
/Users/askn/Documents/Zinnia-tools/Products/hardware/UPDI4AVR/libraries/UPDI4AVR/examples/UPDI4AVR_FW753B/src/UPDI.cpp:200
  set_ptr[1] = UPDI::UPDI_LDCS | code;
  while (!UPDI::send_bytes(set_ptr, sizeof(set_ptr))) UPDI::BREAK();
  return check == (UPDI::RECV() & check);
}
inline bool UPDI::is_sys_stat (const uint8_t check) {
  return UPDI::is_cs_stat(UPDI::UPDI_CS_ASI_SYS_STATUS, check);
     566:	b6 de       	rcall	.-660    	; 0x2d4 <UPDI::is_cs_stat(unsigned char, unsigned char)>
_ZN4UPDI10enter_progEv():
     568:	88 23       	and	r24, r24
     56a:	a9 f3       	breq	.-22     	; 0x556 <UPDI::enter_prog()+0x58>
     56c:	e0 9a       	sbi	0x1c, 0	; 28
/Users/askn/Documents/Zinnia-tools/Products/hardware/UPDI4AVR/libraries/UPDI4AVR/examples/UPDI4AVR_FW753B/src/UPDI.cpp:399
      if (!UPDI::is_key_stat(UPDI::UPDI_KEY_NVMPROG)) {
        if (!UPDI::send_bytes(UPDI::nvmprog_key, sizeof(UPDI::nvmprog_key))) return false;
        do{ delay_micros(100); } while (!UPDI::is_key_stat(UPDI::UPDI_KEY_NVMPROG));
      }
      if (!UPDI::updi_reset(true) || !UPDI::updi_reset(false)) return false;
      do{ delay_micros(100); } while (!UPDI::is_sys_stat(UPDI::UPDI_SYS_NVMPROG));
     56e:	e1 9a       	sbi	0x1c, 1	; 28
     570:	c1 e0       	ldi	r28, 0x01	; 1
/Users/askn/Documents/Zinnia-tools/Products/hardware/UPDI4AVR/libraries/UPDI4AVR/examples/UPDI4AVR_FW753B/src/UPDI.cpp:401
    }
    UPDI_CONTROL |= _BV(UPDI::UPDI_INFO_bp);
     572:	8c 2f       	mov	r24, r28
/Users/askn/Documents/Zinnia-tools/Products/hardware/UPDI4AVR/libraries/UPDI4AVR/examples/UPDI4AVR_FW753B/src/UPDI.cpp:402
    UPDI_CONTROL |= _BV(UPDI::UPDI_PROG_bp);
     574:	cf 91       	pop	r28
/Users/askn/Documents/Zinnia-tools/Products/hardware/UPDI4AVR/libraries/UPDI4AVR/examples/UPDI4AVR_FW753B/src/UPDI.cpp:404
  }
  return true;
     576:	08 95       	ret

00000578 <HV_Pulse()>:
_Z8HV_Pulsev():
/Users/askn/Documents/Zinnia-tools/Products/hardware/UPDI4AVR/libraries/UPDI4AVR/examples/UPDI4AVR_FW753B/src/UPDI.cpp:405
}
     578:	80 e3       	ldi	r24, 0x30	; 48
     57a:	80 93 01 0a 	sts	0x0A01, r24	; 0x800a01 <UPDI::nvmprog_key+0x7f7263>
/Users/askn/Documents/Zinnia-tools/Products/hardware/UPDI4AVR/libraries/UPDI4AVR/examples/UPDI4AVR_FW753B/src/TIM.cpp:195
/*
 * HVチャージポンプ駆動制御
 */

void TIM::HV_Pulse_ON (void) {
  TCA0_SPLIT_CTRLB = TCA_SPLIT_HCMP0EN_bm | TCA_SPLIT_HCMP1EN_bm;
     57e:	21 9a       	sbi	0x04, 1	; 4
delay_micros():
     580:	87 e8       	ldi	r24, 0x87	; 135
/Users/askn/Documents/Zinnia-tools/Products/hardware/UPDI4AVR/libraries/UPDI4AVR/examples/UPDI4AVR_FW753B/src/UPDI.cpp:271
 * HVパルス印加
 */
void HV_Pulse (void) {
  // UPDI_USART.CTRLB = UPDI_USART_OFF;
  TIM::HV_Pulse_ON();
  openDrainWrite(TRST_PIN, LOW);
     582:	93 e1       	ldi	r25, 0x13	; 19
/Users/askn/Library/Arduino15/packages/MultiX-Zinnia/hardware/UPDI4AVR/0.2.0/cores/megaAVR/api/delay_busywait.h:31
     584:	01 97       	sbiw	r24, 0x01	; 1
     586:	f1 f7       	brne	.-4      	; 0x584 <HV_Pulse()+0xc>
     588:	00 c0       	rjmp	.+0      	; 0x58a <HV_Pulse()+0x12>
     58a:	00 00       	nop
_Z8HV_Pulsev():
     58c:	21 98       	cbi	0x04, 1	; 4
delay_micros():
     58e:	87 e8       	ldi	r24, 0x87	; 135
/Users/askn/Documents/Zinnia-tools/Products/hardware/UPDI4AVR/libraries/UPDI4AVR/examples/UPDI4AVR_FW753B/src/UPDI.cpp:273
  delay_micros(2000);
  openDrainWrite(TRST_PIN, HIGH);
     590:	93 e1       	ldi	r25, 0x13	; 19
/Users/askn/Library/Arduino15/packages/MultiX-Zinnia/hardware/UPDI4AVR/0.2.0/cores/megaAVR/api/delay_busywait.h:31
     592:	01 97       	sbiw	r24, 0x01	; 1
     594:	f1 f7       	brne	.-4      	; 0x592 <HV_Pulse()+0x1a>
     596:	00 c0       	rjmp	.+0      	; 0x598 <HV_Pulse()+0x20>
     598:	00 00       	nop
_Z8HV_Pulsev():
     59a:	e9 9b       	sbis	0x1d, 1	; 29
     59c:	1a c0       	rjmp	.+52     	; 0x5d2 <HV_Pulse()+0x5a>
/Users/askn/Documents/Zinnia-tools/Products/hardware/UPDI4AVR/libraries/UPDI4AVR/examples/UPDI4AVR_FW753B/src/UPDI.cpp:275
  delay_micros(2000);
  if (bit_is_set(UPDI_NVMCTRL, UPDI::UPDI_GEN2_bp)) {
     59e:	2d 9a       	sbi	0x05, 5	; 5
delay_micros():
     5a0:	8f ec       	ldi	r24, 0xCF	; 207
/Users/askn/Documents/Zinnia-tools/Products/hardware/UPDI4AVR/libraries/UPDI4AVR/examples/UPDI4AVR_FW753B/src/UPDI.cpp:276
    digitalWrite(HV8_PIN, HIGH);
     5a2:	97 e0       	ldi	r25, 0x07	; 7
/Users/askn/Library/Arduino15/packages/MultiX-Zinnia/hardware/UPDI4AVR/0.2.0/cores/megaAVR/api/delay_busywait.h:31
     5a4:	01 97       	sbiw	r24, 0x01	; 1
     5a6:	f1 f7       	brne	.-4      	; 0x5a4 <HV_Pulse()+0x2c>
     5a8:	00 c0       	rjmp	.+0      	; 0x5aa <HV_Pulse()+0x32>
     5aa:	00 00       	nop
_Z8HV_Pulsev():
     5ac:	2d 98       	cbi	0x05, 5	; 5
HV_Pulse_OFF():
     5ae:	10 92 01 0a 	sts	0x0A01, r1	; 0x800a01 <UPDI::nvmprog_key+0x7f7263>
_Z8HV_Pulsev():
/Users/askn/Documents/Zinnia-tools/Products/hardware/UPDI4AVR/libraries/UPDI4AVR/examples/UPDI4AVR_FW753B/src/TIM.cpp:199
}

void TIM::HV_Pulse_OFF (void) {
  TCA0_SPLIT_CTRLB = 0;
     5b2:	88 ee       	ldi	r24, 0xE8	; 232
     5b4:	93 e0       	ldi	r25, 0x03	; 3
/Users/askn/Documents/Zinnia-tools/Products/hardware/UPDI4AVR/libraries/UPDI4AVR/examples/UPDI4AVR_FW753B/src/UPDI.cpp:286
    digitalWrite(HV12_PIN, HIGH);
    delay_micros(800);
    digitalWrite(HV12_PIN, LOW);
  }
  TIM::HV_Pulse_OFF();
  UPDI_USART.BAUD = UPDI_BAUD_SHORT_BREAK;
     5b6:	80 93 08 08 	sts	0x0808, r24	; 0x800808 <UPDI::nvmprog_key+0x7f706a>
     5ba:	90 93 09 08 	sts	0x0809, r25	; 0x800809 <UPDI::nvmprog_key+0x7f706b>
     5be:	80 e0       	ldi	r24, 0x00	; 0
     5c0:	b0 dd       	rcall	.-1184   	; 0x122 <UPDI::SEND(unsigned char)>
/Users/askn/Documents/Zinnia-tools/Products/hardware/UPDI4AVR/libraries/UPDI4AVR/examples/UPDI4AVR_FW753B/src/UPDI.cpp:287
  UPDI::SEND(UPDI::UPDI_NOP);
     5c2:	80 eb       	ldi	r24, 0xB0	; 176
     5c4:	90 e0       	ldi	r25, 0x00	; 0
     5c6:	80 93 08 08 	sts	0x0808, r24	; 0x800808 <UPDI::nvmprog_key+0x7f706a>
/Users/askn/Documents/Zinnia-tools/Products/hardware/UPDI4AVR/libraries/UPDI4AVR/examples/UPDI4AVR_FW753B/src/UPDI.cpp:288
  UPDI_USART.BAUD = UPDI_BAUD_CALC;
     5ca:	90 93 09 08 	sts	0x0809, r25	; 0x800809 <UPDI::nvmprog_key+0x7f706b>
     5ce:	e3 9a       	sbi	0x1c, 3	; 28
     5d0:	08 95       	ret
     5d2:	e8 99       	sbic	0x1d, 0	; 29
/Users/askn/Documents/Zinnia-tools/Products/hardware/UPDI4AVR/libraries/UPDI4AVR/examples/UPDI4AVR_FW753B/src/UPDI.cpp:289
  UPDI_CONTROL |= _BV(UPDI::UPDI_ERHV_bp);
     5d4:	ec cf       	rjmp	.-40     	; 0x5ae <HV_Pulse()+0x36>
/Users/askn/Documents/Zinnia-tools/Products/hardware/UPDI4AVR/libraries/UPDI4AVR/examples/UPDI4AVR_FW753B/src/UPDI.cpp:290
}
     5d6:	0e 9a       	sbi	0x01, 6	; 1
delay_micros():
/Users/askn/Documents/Zinnia-tools/Products/hardware/UPDI4AVR/libraries/UPDI4AVR/examples/UPDI4AVR_FW753B/src/UPDI.cpp:280
  if (bit_is_set(UPDI_NVMCTRL, UPDI::UPDI_GEN2_bp)) {
    digitalWrite(HV8_PIN, HIGH);
    delay_micros(800);
    digitalWrite(HV8_PIN, LOW);
  }
  else if (bit_is_clear(UPDI_NVMCTRL, UPDI::UPDI_LOWF_bp)) {
     5d8:	8f ec       	ldi	r24, 0xCF	; 207
     5da:	97 e0       	ldi	r25, 0x07	; 7
/Users/askn/Documents/Zinnia-tools/Products/hardware/UPDI4AVR/libraries/UPDI4AVR/examples/UPDI4AVR_FW753B/src/UPDI.cpp:281
    digitalWrite(HV12_PIN, HIGH);
     5dc:	01 97       	sbiw	r24, 0x01	; 1
/Users/askn/Library/Arduino15/packages/MultiX-Zinnia/hardware/UPDI4AVR/0.2.0/cores/megaAVR/api/delay_busywait.h:31
     5de:	f1 f7       	brne	.-4      	; 0x5dc <HV_Pulse()+0x64>
     5e0:	00 c0       	rjmp	.+0      	; 0x5e2 <HV_Pulse()+0x6a>
     5e2:	00 00       	nop
_Z8HV_Pulsev():
     5e4:	0e 98       	cbi	0x01, 6	; 1
     5e6:	e3 cf       	rjmp	.-58     	; 0x5ae <HV_Pulse()+0x36>

000005e8 <UPDI::updi_activate()>:
_ZN4UPDI13updi_activateEv():
     5e8:	cf 93       	push	r28
/Users/askn/Documents/Zinnia-tools/Products/hardware/UPDI4AVR/libraries/UPDI4AVR/examples/UPDI4AVR_FW753B/src/UPDI.cpp:283
    delay_micros(800);
    digitalWrite(HV12_PIN, LOW);
     5ea:	df 93       	push	r29
     5ec:	1f 92       	push	r1
/Users/askn/Documents/Zinnia-tools/Products/hardware/UPDI4AVR/libraries/UPDI4AVR/examples/UPDI4AVR_FW753B/src/UPDI.cpp:411

/*
 * UPDI許認可
 */

bool UPDI::updi_activate (void) {
     5ee:	cd b7       	in	r28, 0x3d	; 61
     5f0:	de b7       	in	r29, 0x3e	; 62
     5f2:	83 e0       	ldi	r24, 0x03	; 3
     5f4:	89 83       	std	Y+1, r24	; 0x01
     5f6:	89 81       	ldd	r24, Y+1	; 0x01
/Users/askn/Documents/Zinnia-tools/Products/hardware/UPDI4AVR/libraries/UPDI4AVR/examples/UPDI4AVR_FW753B/src/UPDI.cpp:412
  volatile uint8_t count = 3;
     5f8:	81 50       	subi	r24, 0x01	; 1
     5fa:	89 83       	std	Y+1, r24	; 0x01
/Users/askn/Documents/Zinnia-tools/Products/hardware/UPDI4AVR/libraries/UPDI4AVR/examples/UPDI4AVR_FW753B/src/UPDI.cpp:413
  while (--count && bit_is_clear(UPDI_CONTROL, UPDI_PROG_bp)) {
     5fc:	88 23       	and	r24, r24
     5fe:	09 f4       	brne	.+2      	; 0x602 <UPDI::updi_activate()+0x1a>
     600:	52 c0       	rjmp	.+164    	; 0x6a6 <UPDI::updi_activate()+0xbe>
     602:	e1 99       	sbic	0x1c, 1	; 28
     604:	50 c0       	rjmp	.+160    	; 0x6a6 <UPDI::updi_activate()+0xbe>
delay_millis():
     606:	2f e3       	ldi	r18, 0x3F	; 63
     608:	3d e0       	ldi	r19, 0x0D	; 13
     60a:	83 e0       	ldi	r24, 0x03	; 3
/Users/askn/Library/Arduino15/packages/MultiX-Zinnia/hardware/UPDI4AVR/0.2.0/cores/megaAVR/api/delay_busywait.h:40
  }
}

void delay_millis (uint32_t _ms) {
  if (F_CPU >= 1000000L) {
    __builtin_avr_delay_cycles((F_CPU / 1000L) * _ms);
     60c:	21 50       	subi	r18, 0x01	; 1
     60e:	30 40       	sbci	r19, 0x00	; 0
     610:	80 40       	sbci	r24, 0x00	; 0
     612:	e1 f7       	brne	.-8      	; 0x60c <UPDI::updi_activate()+0x24>
     614:	00 c0       	rjmp	.+0      	; 0x616 <UPDI::updi_activate()+0x2e>
     616:	00 00       	nop
_ZN4UPDI13updi_activateEv():
     618:	88 e3       	ldi	r24, 0x38	; 56
     61a:	98 e3       	ldi	r25, 0x38	; 56
/Users/askn/Documents/Zinnia-tools/Products/hardware/UPDI4AVR/libraries/UPDI4AVR/examples/UPDI4AVR_FW753B/src/UPDI.cpp:415
    delay_millis(100);
    if (setjmp(TIM::CONTEXT) == 0) {
     61c:	0e 94 88 0b 	call	0x1710	; 0x1710 <setjmp>
     620:	89 2b       	or	r24, r25
     622:	09 f0       	breq	.+2      	; 0x626 <UPDI::updi_activate()+0x3e>
     624:	3b c0       	rjmp	.+118    	; 0x69c <UPDI::updi_activate()+0xb4>
Timeout_Start():
     626:	8f b7       	in	r24, 0x3f	; 63
__iCliRetVal():
/Users/askn/Library/Arduino15/packages/MultiX-Zinnia/tools/avr-gcc/7.3.0-avr8-gnu-toolchain/avr/include/util/atomic.h:50
    return 1;
}

static __inline__ uint8_t __iCliRetVal(void)
{
    cli();
     628:	f8 94       	cli
Timeout_Start():
/Users/askn/Documents/Zinnia-tools/Products/hardware/UPDI4AVR/libraries/UPDI4AVR/examples/UPDI4AVR_FW753B/src/TIM.cpp:123
 * タイムアウト制御
 */

void TIM::Timeout_Start (uint16_t _ms) {
  ATOMIC_BLOCK(ATOMIC_RESTORESTATE) {
    TCB0_CNT = 0;
     62a:	ea e8       	ldi	r30, 0x8A	; 138
     62c:	fa e0       	ldi	r31, 0x0A	; 10
     62e:	10 82       	st	Z, r1
/Users/askn/Documents/Zinnia-tools/Products/hardware/UPDI4AVR/libraries/UPDI4AVR/examples/UPDI4AVR_FW753B/src/TIM.cpp:124
    TCB0_CCMP = _ms >> 2;
     630:	11 82       	std	Z+1, r1	; 0x01
     632:	25 e2       	ldi	r18, 0x25	; 37
     634:	30 e0       	ldi	r19, 0x00	; 0
     636:	ec e8       	ldi	r30, 0x8C	; 140
     638:	fa e0       	ldi	r31, 0x0A	; 10
     63a:	20 83       	st	Z, r18
/Users/askn/Documents/Zinnia-tools/Products/hardware/UPDI4AVR/libraries/UPDI4AVR/examples/UPDI4AVR_FW753B/src/TIM.cpp:125
    TCB0_INTCTRL = TCB_CAPT_bm;
     63c:	31 83       	std	Z+1, r19	; 0x01
     63e:	21 e0       	ldi	r18, 0x01	; 1
     640:	e5 e8       	ldi	r30, 0x85	; 133
     642:	fa e0       	ldi	r31, 0x0A	; 10
/Users/askn/Documents/Zinnia-tools/Products/hardware/UPDI4AVR/libraries/UPDI4AVR/examples/UPDI4AVR_FW753B/src/TIM.cpp:126
    TCB0_INTFLAGS = TCB_CAPT_bm;
     644:	20 83       	st	Z, r18
     646:	e6 e8       	ldi	r30, 0x86	; 134
/Users/askn/Documents/Zinnia-tools/Products/hardware/UPDI4AVR/libraries/UPDI4AVR/examples/UPDI4AVR_FW753B/src/TIM.cpp:127
    TCB0_CTRLA = TCB_ENABLE_bm | TCB_CLKSEL_EVENT_gc;
     648:	fa e0       	ldi	r31, 0x0A	; 10
     64a:	20 83       	st	Z, r18
     64c:	2f e0       	ldi	r18, 0x0F	; 15
/Users/askn/Documents/Zinnia-tools/Products/hardware/UPDI4AVR/libraries/UPDI4AVR/examples/UPDI4AVR_FW753B/src/UPDI.cpp:335
  static uint8_t set_ptr[] = { UPDI::UPDI_SYNCH, UPDI::UPDI_SIB_128 };
  uint8_t* _p = &JTAG2::packet.body[3];
  size_t _len = 16;
  if (!skip) {
    /* HV制御強制許可 */
    if (bit_is_set(UPDI_CONTROL, UPDI_FCHV_bp)) {
     64e:	e0 e8       	ldi	r30, 0x80	; 128
/Users/askn/Documents/Zinnia-tools/Products/hardware/UPDI4AVR/libraries/UPDI4AVR/examples/UPDI4AVR_FW753B/src/UPDI.cpp:336
      HV_Pulse();
     650:	fa e0       	ldi	r31, 0x0A	; 10
     652:	20 83       	st	Z, r18
__iRestore():
/Users/askn/Documents/Zinnia-tools/Products/hardware/UPDI4AVR/libraries/UPDI4AVR/examples/UPDI4AVR_FW753B/src/UPDI.cpp:339

      /* send nvmprog_key */
      if (!UPDI::send_bytes(UPDI::nvmprog_key, sizeof(UPDI::nvmprog_key))) return false;
     654:	8f bf       	out	0x3f, r24	; 63
enter_updi():
     656:	e4 9b       	sbis	0x1c, 4	; 28
     658:	2d c0       	rjmp	.+90     	; 0x6b4 <UPDI::updi_activate()+0xcc>
     65a:	8e df       	rcall	.-228    	; 0x578 <HV_Pulse()>
     65c:	6a e0       	ldi	r22, 0x0A	; 10
     65e:	70 e0       	ldi	r23, 0x00	; 0
     660:	8e e9       	ldi	r24, 0x9E	; 158
     662:	97 e9       	ldi	r25, 0x97	; 151
/Users/askn/Documents/Zinnia-tools/Products/hardware/UPDI4AVR/libraries/UPDI4AVR/examples/UPDI4AVR_FW753B/src/UPDI.cpp:342

      /* restart target : change mode */
      if (!UPDI::updi_reset(true) || !UPDI::updi_reset(false)) return false;
     664:	76 dd       	rcall	.-1300   	; 0x152 <UPDI::send_bytes(unsigned char const*, unsigned int)>
     666:	88 23       	and	r24, r24
     668:	c9 f0       	breq	.+50     	; 0x69c <UPDI::updi_activate()+0xb4>
     66a:	81 e0       	ldi	r24, 0x01	; 1
     66c:	89 dd       	rcall	.-1262   	; 0x180 <UPDI::updi_reset(bool)>
     66e:	88 23       	and	r24, r24
     670:	a9 f0       	breq	.+42     	; 0x69c <UPDI::updi_activate()+0xb4>
     672:	80 e0       	ldi	r24, 0x00	; 0
/Users/askn/Library/Arduino15/packages/MultiX-Zinnia/hardware/UPDI4AVR/0.2.0/cores/megaAVR/api/delay_busywait.h:40
     674:	85 dd       	rcall	.-1270   	; 0x180 <UPDI::updi_reset(bool)>
     676:	88 23       	and	r24, r24
     678:	89 f0       	breq	.+34     	; 0x69c <UPDI::updi_activate()+0xb4>
delay_millis():
     67a:	3f e9       	ldi	r19, 0x9F	; 159
     67c:	86 e8       	ldi	r24, 0x86	; 134
     67e:	91 e0       	ldi	r25, 0x01	; 1
     680:	31 50       	subi	r19, 0x01	; 1
     682:	80 40       	sbci	r24, 0x00	; 0
/Users/askn/Documents/Zinnia-tools/Products/hardware/UPDI4AVR/libraries/UPDI4AVR/examples/UPDI4AVR_FW753B/src/UPDI.cpp:350
      delay_millis(50);
    }
    else
      UPDI::BREAK();
  }
  if (bit_is_clear(UPDI_CONTROL, UPDI::UPDI_INFO_bp)) {
     684:	90 40       	sbci	r25, 0x00	; 0
     686:	e1 f7       	brne	.-8      	; 0x680 <UPDI::updi_activate()+0x98>
/Users/askn/Documents/Zinnia-tools/Products/hardware/UPDI4AVR/libraries/UPDI4AVR/examples/UPDI4AVR_FW753B/src/UPDI.cpp:351
    if (!UPDI::set_cs_ctra(UPDI::UPDI_SET_GTVAL_2)) return false;
     688:	00 c0       	rjmp	.+0      	; 0x68a <UPDI::updi_activate()+0xa2>
     68a:	00 00       	nop
enter_updi():
     68c:	e0 99       	sbic	0x1c, 0	; 28
     68e:	05 c0       	rjmp	.+10     	; 0x69a <UPDI::updi_activate()+0xb2>
     690:	83 dd       	rcall	.-1274   	; 0x198 <UPDI::set_cs_ctra(unsigned char) [clone .constprop.1]>
/Users/askn/Documents/Zinnia-tools/Products/hardware/UPDI4AVR/libraries/UPDI4AVR/examples/UPDI4AVR_FW753B/src/UPDI.cpp:417
  volatile uint8_t count = 3;
  while (--count && bit_is_clear(UPDI_CONTROL, UPDI_PROG_bp)) {
    delay_millis(100);
    if (setjmp(TIM::CONTEXT) == 0) {
      TIM::Timeout_Start(150);
      UPDI::enter_updi(false) && UPDI::enter_prog();
     692:	88 23       	and	r24, r24
     694:	19 f0       	breq	.+6      	; 0x69c <UPDI::updi_activate()+0xb4>
     696:	8a dd       	rcall	.-1260   	; 0x1ac <UPDI::enter_updi(bool) [clone .part.4]>
_ZN4UPDI13updi_activateEv():
/Users/askn/Documents/Zinnia-tools/Products/hardware/UPDI4AVR/libraries/UPDI4AVR/examples/UPDI4AVR_FW753B/src/UPDI.cpp:419
    }
    TIM::Timeout_Stop();
     698:	81 11       	cpse	r24, r1
     69a:	31 df       	rcall	.-414    	; 0x4fe <UPDI::enter_prog()>
/Users/askn/Documents/Zinnia-tools/Products/hardware/UPDI4AVR/libraries/UPDI4AVR/examples/UPDI4AVR_FW753B/src/UPDI.cpp:422

    /* 2周目以降は JPショートならHV制御強制を許可 */
    if (!digitalRead(JP_SENSE_PIN)) UPDI_CONTROL |= _BV(UPDI::UPDI_FCHV_bp);
     69c:	7d de       	rcall	.-774    	; 0x398 <TIM::Timeout_Stop()>
     69e:	53 99       	sbic	0x0a, 3	; 10
     6a0:	aa cf       	rjmp	.-172    	; 0x5f6 <UPDI::updi_activate()+0xe>
     6a2:	e4 9a       	sbi	0x1c, 4	; 28
/Users/askn/Documents/Zinnia-tools/Products/hardware/UPDI4AVR/libraries/UPDI4AVR/examples/UPDI4AVR_FW753B/src/UPDI.cpp:424
  }
  return bit_is_set(UPDI_CONTROL, UPDI_PROG_bp);
     6a4:	a8 cf       	rjmp	.-176    	; 0x5f6 <UPDI::updi_activate()+0xe>
     6a6:	8c b3       	in	r24, 0x1c	; 28
     6a8:	86 95       	lsr	r24
/Users/askn/Documents/Zinnia-tools/Products/hardware/UPDI4AVR/libraries/UPDI4AVR/examples/UPDI4AVR_FW753B/src/UPDI.cpp:425
}
     6aa:	81 70       	andi	r24, 0x01	; 1
     6ac:	0f 90       	pop	r0
     6ae:	df 91       	pop	r29
     6b0:	cf 91       	pop	r28
/Users/askn/Documents/Zinnia-tools/Products/hardware/UPDI4AVR/libraries/UPDI4AVR/examples/UPDI4AVR_FW753B/src/UPDI.cpp:348

      /* wait enable : chip erase mode success */
      delay_millis(50);
    }
    else
      UPDI::BREAK();
     6b2:	08 95       	ret
enter_updi():
     6b4:	fe dd       	rcall	.-1028   	; 0x2b2 <UPDI::BREAK()>
     6b6:	ea cf       	rjmp	.-44     	; 0x68c <UPDI::updi_activate()+0xa4>

000006b8 <NVM::nvm_wait_v3()>:
_ZN3NVM11nvm_wait_v3Ev():
/Users/askn/Documents/Zinnia-tools/Products/hardware/UPDI4AVR/libraries/UPDI4AVR/examples/UPDI4AVR_FW753B/src/NVM.cpp:280
  return UPDI_LASTL;
}

/* NVMCTRL v3 */
uint8_t NVM::nvm_wait_v3 (void) {
  while (UPDI::ld8(NVM::NVMCTRL_V3_REG_STATUS) & 3) delay_micros(50);
     6b8:	66 e0       	ldi	r22, 0x06	; 6
     6ba:	70 e1       	ldi	r23, 0x10	; 16
     6bc:	80 e0       	ldi	r24, 0x00	; 0
     6be:	90 e0       	ldi	r25, 0x00	; 0
     6c0:	1f de       	rcall	.-962    	; 0x300 <UPDI::ld8(unsigned long)>
     6c2:	83 70       	andi	r24, 0x03	; 3
     6c4:	29 f0       	breq	.+10     	; 0x6d0 <NVM::nvm_wait_v3()+0x18>
delay_micros():
/Users/askn/Library/Arduino15/packages/MultiX-Zinnia/hardware/UPDI4AVR/0.2.0/cores/megaAVR/api/delay_busywait.h:31
static __inline__ __attribute__((__always_inline__)) void delay_micros (uint32_t _us);
static __inline__ __attribute__((__always_inline__)) void delay_millis (uint32_t _ms);

void delay_micros (uint32_t _us) {
  if (F_CPU >= 1000000L) {
    __builtin_avr_delay_cycles((F_CPU / 1000000L) * _us);
     6c6:	86 ea       	ldi	r24, 0xA6	; 166
     6c8:	8a 95       	dec	r24
     6ca:	f1 f7       	brne	.-4      	; 0x6c8 <NVM::nvm_wait_v3()+0x10>
     6cc:	00 c0       	rjmp	.+0      	; 0x6ce <NVM::nvm_wait_v3()+0x16>
     6ce:	f4 cf       	rjmp	.-24     	; 0x6b8 <NVM::nvm_wait_v3()>
_ZN3NVM11nvm_wait_v3Ev():
/Users/askn/Documents/Zinnia-tools/Products/hardware/UPDI4AVR/libraries/UPDI4AVR/examples/UPDI4AVR_FW753B/src/NVM.cpp:281
  return UPDI_LASTL;
     6d0:	8e b3       	in	r24, 0x1e	; 30
/Users/askn/Documents/Zinnia-tools/Products/hardware/UPDI4AVR/libraries/UPDI4AVR/examples/UPDI4AVR_FW753B/src/NVM.cpp:282
}
     6d2:	08 95       	ret

000006d4 <NVM::nvm_ctrl_v3(unsigned char)>:
_ZN3NVM11nvm_ctrl_v3Eh():
/Users/askn/Documents/Zinnia-tools/Products/hardware/UPDI4AVR/libraries/UPDI4AVR/examples/UPDI4AVR_FW753B/src/NVM.cpp:307
  NVM::nvm_wait();
  return nvm_ctrl_change(nvmcmd);
}

/* NVMCTRL v3 */
bool NVM::nvm_ctrl_v3 (uint8_t nvmcmd) {
     6d4:	cf 93       	push	r28
     6d6:	c8 2f       	mov	r28, r24
/Users/askn/Documents/Zinnia-tools/Products/hardware/UPDI4AVR/libraries/UPDI4AVR/examples/UPDI4AVR_FW753B/src/NVM.cpp:308
  NVM::nvm_wait_v3();
     6d8:	ef df       	rcall	.-34     	; 0x6b8 <NVM::nvm_wait_v3()>
     6da:	8c 2f       	mov	r24, r28
/Users/askn/Documents/Zinnia-tools/Products/hardware/UPDI4AVR/libraries/UPDI4AVR/examples/UPDI4AVR_FW753B/src/NVM.cpp:309
  return nvm_ctrl_change(nvmcmd);
     6dc:	cf 91       	pop	r28
     6de:	75 ce       	rjmp	.-790    	; 0x3ca <nvm_ctrl_change(unsigned char)>

000006e0 <NVM::write_flash_v3(unsigned long, unsigned int)>:
_ZN3NVM14write_flash_v3Emj():
     6e0:	cf 92       	push	r12
/Users/askn/Documents/Zinnia-tools/Products/hardware/UPDI4AVR/libraries/UPDI4AVR/examples/UPDI4AVR_FW753B/src/NVM.cpp:498

  return NVM::nvm_ctrl_v2(NVM::NVM_V2_CMD_NOCMD);
}

/* NVMCTRL v3 */
bool NVM::write_flash_v3 (uint32_t start_addr, size_t byte_count) {
     6e2:	df 92       	push	r13
     6e4:	ef 92       	push	r14
     6e6:	ff 92       	push	r15
     6e8:	0f 93       	push	r16
     6ea:	1f 93       	push	r17
     6ec:	cf 93       	push	r28
     6ee:	df 93       	push	r29
/Users/askn/Documents/Zinnia-tools/Products/hardware/UPDI4AVR/libraries/UPDI4AVR/examples/UPDI4AVR_FW753B/src/NVM.cpp:499
  byte_count >>= 1;
     6f0:	ea 01       	movw	r28, r20
     6f2:	d6 95       	lsr	r29
/Users/askn/Documents/Zinnia-tools/Products/hardware/UPDI4AVR/libraries/UPDI4AVR/examples/UPDI4AVR_FW753B/src/NVM.cpp:500
  if (byte_count == 0 || byte_count > 256) return false;
     6f4:	c7 95       	ror	r28
     6f6:	9e 01       	movw	r18, r28
     6f8:	21 50       	subi	r18, 0x01	; 1
     6fa:	31 09       	sbc	r19, r1
     6fc:	2f 3f       	cpi	r18, 0xFF	; 255
     6fe:	31 05       	cpc	r19, r1
     700:	11 f0       	breq	.+4      	; 0x706 <NVM::write_flash_v3(unsigned long, unsigned int)+0x26>
     702:	08 f0       	brcs	.+2      	; 0x706 <NVM::write_flash_v3(unsigned long, unsigned int)+0x26>
/Users/askn/Documents/Zinnia-tools/Products/hardware/UPDI4AVR/libraries/UPDI4AVR/examples/UPDI4AVR_FW753B/src/NVM.cpp:505

  /* チップ消去していない場合はセクター消去 */
  /* ただしページ境界先頭がアドレスされた場合に限る */
  if (bit_is_clear(UPDI_CONTROL, UPDI::UPDI_ERFM_bp)
  && ((uint16_t)start_addr & (NVM::flash_page_size - 1)) == 0) {
     704:	5b c0       	rjmp	.+182    	; 0x7bc <NVM::write_flash_v3(unsigned long, unsigned int)+0xdc>
     706:	6b 01       	movw	r12, r22
/Users/askn/Documents/Zinnia-tools/Products/hardware/UPDI4AVR/libraries/UPDI4AVR/examples/UPDI4AVR_FW753B/src/NVM.cpp:510
    NVM::nvm_wait_v3();
    if (!UPDI::st8(start_addr, 0xFF)) return false;
    if (!NVM::nvm_ctrl_v3(NVM::NVM_V3_CMD_FLPER)) return false;
  }
  if (!NVM::nvm_ctrl_v3(NVM::NVM_V3_CMD_FLPBCLR)) return false;
     708:	7c 01       	movw	r14, r24
     70a:	e2 9b       	sbis	0x1c, 2	; 28
     70c:	42 c0       	rjmp	.+132    	; 0x792 <NVM::write_flash_v3(unsigned long, unsigned int)+0xb2>
     70e:	8f e0       	ldi	r24, 0x0F	; 15
     710:	e1 df       	rcall	.-62     	; 0x6d4 <NVM::nvm_ctrl_v3(unsigned char)>
     712:	88 23       	and	r24, r24
/Users/askn/Documents/Zinnia-tools/Products/hardware/UPDI4AVR/libraries/UPDI4AVR/examples/UPDI4AVR_FW753B/src/NVM.cpp:513

  /* setting register pointer and enable RSD mode */
  _CAPS32(set_ptr[2])->dword = start_addr;
     714:	09 f4       	brne	.+2      	; 0x718 <NVM::write_flash_v3(unsigned long, unsigned int)+0x38>
     716:	52 c0       	rjmp	.+164    	; 0x7bc <NVM::write_flash_v3(unsigned long, unsigned int)+0xdc>
     718:	c0 92 2d 38 	sts	0x382D, r12	; 0x80382d <NVM::set_ptr+0x2>
     71c:	d0 92 2e 38 	sts	0x382E, r13	; 0x80382e <NVM::set_ptr+0x3>
     720:	e0 92 2f 38 	sts	0x382F, r14	; 0x80382f <NVM::set_ptr+0x4>
/Users/askn/Documents/Zinnia-tools/Products/hardware/UPDI4AVR/libraries/UPDI4AVR/examples/UPDI4AVR_FW753B/src/NVM.cpp:514
  set_repeat_rsd[5] = byte_count - 1;
     724:	f0 92 30 38 	sts	0x3830, r15	; 0x803830 <NVM::set_ptr+0x5>
     728:	8c 2f       	mov	r24, r28
/Users/askn/Documents/Zinnia-tools/Products/hardware/UPDI4AVR/libraries/UPDI4AVR/examples/UPDI4AVR_FW753B/src/NVM.cpp:515
  if (!UPDI::send_bytes(set_ptr, sizeof(set_ptr) - 1)) return false;
     72a:	81 50       	subi	r24, 0x01	; 1
     72c:	80 93 23 38 	sts	0x3823, r24	; 0x803823 <NVM::set_repeat_rsd+0x5>
     730:	65 e0       	ldi	r22, 0x05	; 5
     732:	70 e0       	ldi	r23, 0x00	; 0
     734:	8b e2       	ldi	r24, 0x2B	; 43
     736:	98 e3       	ldi	r25, 0x38	; 56
     738:	0c dd       	rcall	.-1512   	; 0x152 <UPDI::send_bytes(unsigned char const*, unsigned int)>
/Users/askn/Documents/Zinnia-tools/Products/hardware/UPDI4AVR/libraries/UPDI4AVR/examples/UPDI4AVR_FW753B/src/NVM.cpp:516
  if (UPDI::UPDI_ACK != UPDI::RECV()) return false;
     73a:	88 23       	and	r24, r24
     73c:	09 f4       	brne	.+2      	; 0x740 <NVM::write_flash_v3(unsigned long, unsigned int)+0x60>
     73e:	3e c0       	rjmp	.+124    	; 0x7bc <NVM::write_flash_v3(unsigned long, unsigned int)+0xdc>
     740:	e4 dc       	rcall	.-1592   	; 0x10a <UPDI::RECV()>
/Users/askn/Documents/Zinnia-tools/Products/hardware/UPDI4AVR/libraries/UPDI4AVR/examples/UPDI4AVR_FW753B/src/NVM.cpp:517
  if (!UPDI::send_bytes(set_repeat_rsd, sizeof(set_repeat_rsd))) return false;
     742:	80 34       	cpi	r24, 0x40	; 64
     744:	09 f0       	breq	.+2      	; 0x748 <NVM::write_flash_v3(unsigned long, unsigned int)+0x68>
     746:	3a c0       	rjmp	.+116    	; 0x7bc <NVM::write_flash_v3(unsigned long, unsigned int)+0xdc>
     748:	68 e0       	ldi	r22, 0x08	; 8
     74a:	70 e0       	ldi	r23, 0x00	; 0
     74c:	8e e1       	ldi	r24, 0x1E	; 30
     74e:	98 e3       	ldi	r25, 0x38	; 56
     750:	00 dd       	rcall	.-1536   	; 0x152 <UPDI::send_bytes(unsigned char const*, unsigned int)>
/Users/askn/Documents/Zinnia-tools/Products/hardware/UPDI4AVR/libraries/UPDI4AVR/examples/UPDI4AVR_FW753B/src/NVM.cpp:522

  /* page buffer stored */
  uint8_t* p = &JTAG2::packet.body[10];
  do {
    UPDI::SEND(*p++);
     752:	88 23       	and	r24, r24
     754:	99 f1       	breq	.+102    	; 0x7bc <NVM::write_flash_v3(unsigned long, unsigned int)+0xdc>
     756:	0f e5       	ldi	r16, 0x5F	; 95
     758:	18 e3       	ldi	r17, 0x38	; 56
/Users/askn/Documents/Zinnia-tools/Products/hardware/UPDI4AVR/libraries/UPDI4AVR/examples/UPDI4AVR_FW753B/src/NVM.cpp:523
    UPDI::SEND(*p++);
     75a:	f8 01       	movw	r30, r16
     75c:	82 89       	ldd	r24, Z+18	; 0x12
     75e:	e1 dc       	rcall	.-1598   	; 0x122 <UPDI::SEND(unsigned char)>
     760:	f8 01       	movw	r30, r16
/Users/askn/Documents/Zinnia-tools/Products/hardware/UPDI4AVR/libraries/UPDI4AVR/examples/UPDI4AVR_FW753B/src/NVM.cpp:524
  } while (--byte_count);
     762:	83 89       	ldd	r24, Z+19	; 0x13
     764:	de dc       	rcall	.-1604   	; 0x122 <UPDI::SEND(unsigned char)>
     766:	21 97       	sbiw	r28, 0x01	; 1
     768:	0e 5f       	subi	r16, 0xFE	; 254
/Users/askn/Library/Arduino15/packages/MultiX-Zinnia/hardware/UPDI4AVR/0.2.0/cores/megaAVR/api/delay_busywait.h:31
     76a:	1f 4f       	sbci	r17, 0xFF	; 255
     76c:	20 97       	sbiw	r28, 0x00	; 0
     76e:	a9 f7       	brne	.-22     	; 0x75a <NVM::write_flash_v3(unsigned long, unsigned int)+0x7a>
delay_micros():
     770:	f2 e9       	ldi	r31, 0x92	; 146
/Users/askn/Documents/Zinnia-tools/Products/hardware/UPDI4AVR/libraries/UPDI4AVR/examples/UPDI4AVR_FW753B/src/NVM.cpp:528
  UPDI::guardtime();

  /* disable RSD mode */
  if (!UPDI::set_cs_ctra(UPDI::UPDI_SET_GTVAL_2)) return false;
     772:	fa 95       	dec	r31
     774:	f1 f7       	brne	.-4      	; 0x772 <NVM::write_flash_v3(unsigned long, unsigned int)+0x92>
     776:	00 c0       	rjmp	.+0      	; 0x778 <NVM::write_flash_v3(unsigned long, unsigned int)+0x98>
_ZN3NVM14write_flash_v3Emj():
     778:	0f dd       	rcall	.-1506   	; 0x198 <UPDI::set_cs_ctra(unsigned char) [clone .constprop.1]>
/Users/askn/Documents/Zinnia-tools/Products/hardware/UPDI4AVR/libraries/UPDI4AVR/examples/UPDI4AVR_FW753B/src/NVM.cpp:530

  return NVM::nvm_ctrl_v3(NVM::NVM_V3_CMD_FLPW);
     77a:	88 23       	and	r24, r24
/Users/askn/Documents/Zinnia-tools/Products/hardware/UPDI4AVR/libraries/UPDI4AVR/examples/UPDI4AVR_FW753B/src/NVM.cpp:531
}
     77c:	f9 f0       	breq	.+62     	; 0x7bc <NVM::write_flash_v3(unsigned long, unsigned int)+0xdc>
     77e:	84 e0       	ldi	r24, 0x04	; 4
     780:	df 91       	pop	r29
     782:	cf 91       	pop	r28
     784:	1f 91       	pop	r17
     786:	0f 91       	pop	r16
/Users/askn/Documents/Zinnia-tools/Products/hardware/UPDI4AVR/libraries/UPDI4AVR/examples/UPDI4AVR_FW753B/src/NVM.cpp:530
  UPDI::guardtime();

  /* disable RSD mode */
  if (!UPDI::set_cs_ctra(UPDI::UPDI_SET_GTVAL_2)) return false;

  return NVM::nvm_ctrl_v3(NVM::NVM_V3_CMD_FLPW);
     788:	ff 90       	pop	r15
     78a:	ef 90       	pop	r14
/Users/askn/Documents/Zinnia-tools/Products/hardware/UPDI4AVR/libraries/UPDI4AVR/examples/UPDI4AVR_FW753B/src/NVM.cpp:505
  if (byte_count == 0 || byte_count > 256) return false;

  /* チップ消去していない場合はセクター消去 */
  /* ただしページ境界先頭がアドレスされた場合に限る */
  if (bit_is_clear(UPDI_CONTROL, UPDI::UPDI_ERFM_bp)
  && ((uint16_t)start_addr & (NVM::flash_page_size - 1)) == 0) {
     78c:	df 90       	pop	r13
     78e:	cf 90       	pop	r12
     790:	a1 cf       	rjmp	.-190    	; 0x6d4 <NVM::nvm_ctrl_v3(unsigned char)>
     792:	80 91 55 38 	lds	r24, 0x3855	; 0x803855 <NVM::flash_page_size>
     796:	90 91 56 38 	lds	r25, 0x3856	; 0x803856 <NVM::flash_page_size+0x1>
     79a:	01 97       	sbiw	r24, 0x01	; 1
     79c:	86 23       	and	r24, r22
     79e:	9d 21       	and	r25, r13
/Users/askn/Documents/Zinnia-tools/Products/hardware/UPDI4AVR/libraries/UPDI4AVR/examples/UPDI4AVR_FW753B/src/NVM.cpp:506
    NVM::nvm_wait_v3();
     7a0:	89 2b       	or	r24, r25
     7a2:	09 f0       	breq	.+2      	; 0x7a6 <NVM::write_flash_v3(unsigned long, unsigned int)+0xc6>
/Users/askn/Documents/Zinnia-tools/Products/hardware/UPDI4AVR/libraries/UPDI4AVR/examples/UPDI4AVR_FW753B/src/NVM.cpp:507
    if (!UPDI::st8(start_addr, 0xFF)) return false;
     7a4:	b4 cf       	rjmp	.-152    	; 0x70e <NVM::write_flash_v3(unsigned long, unsigned int)+0x2e>
     7a6:	88 df       	rcall	.-240    	; 0x6b8 <NVM::nvm_wait_v3()>
     7a8:	4f ef       	ldi	r20, 0xFF	; 255
     7aa:	c7 01       	movw	r24, r14
     7ac:	b6 01       	movw	r22, r12
     7ae:	41 dd       	rcall	.-1406   	; 0x232 <UPDI::st8(unsigned long, unsigned char)>
     7b0:	88 23       	and	r24, r24
/Users/askn/Documents/Zinnia-tools/Products/hardware/UPDI4AVR/libraries/UPDI4AVR/examples/UPDI4AVR_FW753B/src/NVM.cpp:508
    if (!NVM::nvm_ctrl_v3(NVM::NVM_V3_CMD_FLPER)) return false;
     7b2:	21 f0       	breq	.+8      	; 0x7bc <NVM::write_flash_v3(unsigned long, unsigned int)+0xdc>
     7b4:	88 e0       	ldi	r24, 0x08	; 8
     7b6:	8e df       	rcall	.-228    	; 0x6d4 <NVM::nvm_ctrl_v3(unsigned char)>
     7b8:	81 11       	cpse	r24, r1
/Users/askn/Documents/Zinnia-tools/Products/hardware/UPDI4AVR/libraries/UPDI4AVR/examples/UPDI4AVR_FW753B/src/NVM.cpp:531

  /* disable RSD mode */
  if (!UPDI::set_cs_ctra(UPDI::UPDI_SET_GTVAL_2)) return false;

  return NVM::nvm_ctrl_v3(NVM::NVM_V3_CMD_FLPW);
}
     7ba:	a9 cf       	rjmp	.-174    	; 0x70e <NVM::write_flash_v3(unsigned long, unsigned int)+0x2e>
     7bc:	80 e0       	ldi	r24, 0x00	; 0
     7be:	df 91       	pop	r29
     7c0:	cf 91       	pop	r28
     7c2:	1f 91       	pop	r17
     7c4:	0f 91       	pop	r16
     7c6:	ff 90       	pop	r15
     7c8:	ef 90       	pop	r14
     7ca:	df 90       	pop	r13
     7cc:	cf 90       	pop	r12
/Users/askn/Documents/Zinnia-tools/Products/hardware/UPDI4AVR/libraries/UPDI4AVR/examples/UPDI4AVR_FW753B/src/NVM.cpp:274
 */

/* NVMCTRL v0 */
/* NVMCTRL v2 */
uint8_t NVM::nvm_wait (void) {
  while (UPDI::ld8(NVM::NVMCTRL_REG_STATUS) & 3) delay_micros(50);
     7ce:	08 95       	ret

000007d0 <NVM::nvm_wait()>:
_ZN3NVM8nvm_waitEv():
     7d0:	62 e0       	ldi	r22, 0x02	; 2
     7d2:	70 e1       	ldi	r23, 0x10	; 16
     7d4:	80 e0       	ldi	r24, 0x00	; 0
     7d6:	90 e0       	ldi	r25, 0x00	; 0
     7d8:	93 dd       	rcall	.-1242   	; 0x300 <UPDI::ld8(unsigned long)>
     7da:	83 70       	andi	r24, 0x03	; 3
/Users/askn/Library/Arduino15/packages/MultiX-Zinnia/hardware/UPDI4AVR/0.2.0/cores/megaAVR/api/delay_busywait.h:31
     7dc:	29 f0       	breq	.+10     	; 0x7e8 <NVM::nvm_wait()+0x18>
delay_micros():
     7de:	86 ea       	ldi	r24, 0xA6	; 166
     7e0:	8a 95       	dec	r24
     7e2:	f1 f7       	brne	.-4      	; 0x7e0 <NVM::nvm_wait()+0x10>
/Users/askn/Documents/Zinnia-tools/Products/hardware/UPDI4AVR/libraries/UPDI4AVR/examples/UPDI4AVR_FW753B/src/NVM.cpp:275
  return UPDI_LASTL;
     7e4:	00 c0       	rjmp	.+0      	; 0x7e6 <NVM::nvm_wait()+0x16>
/Users/askn/Documents/Zinnia-tools/Products/hardware/UPDI4AVR/libraries/UPDI4AVR/examples/UPDI4AVR_FW753B/src/NVM.cpp:276
}
     7e6:	f4 cf       	rjmp	.-24     	; 0x7d0 <NVM::nvm_wait()>
_ZN3NVM8nvm_waitEv():
/Users/askn/Documents/Zinnia-tools/Products/hardware/UPDI4AVR/libraries/UPDI4AVR/examples/UPDI4AVR_FW753B/src/NVM.cpp:301
  if (NVM::NVM_V2_CMD_NOCMD != nvmcmd) return NVM::nvm_ctrl(nvmcmd);
  return true;
}

/* NVMCTRL v2 */
bool NVM::nvm_ctrl_v2 (uint8_t nvmcmd) {
     7e8:	8e b3       	in	r24, 0x1e	; 30
     7ea:	08 95       	ret

000007ec <NVM::nvm_ctrl_v2(unsigned char)>:
_ZN3NVM11nvm_ctrl_v2Eh():
/Users/askn/Documents/Zinnia-tools/Products/hardware/UPDI4AVR/libraries/UPDI4AVR/examples/UPDI4AVR_FW753B/src/NVM.cpp:302
  NVM::nvm_wait();
     7ec:	cf 93       	push	r28
/Users/askn/Documents/Zinnia-tools/Products/hardware/UPDI4AVR/libraries/UPDI4AVR/examples/UPDI4AVR_FW753B/src/NVM.cpp:303
  return nvm_ctrl_change(nvmcmd);
     7ee:	c8 2f       	mov	r28, r24
/Users/askn/Documents/Zinnia-tools/Products/hardware/UPDI4AVR/libraries/UPDI4AVR/examples/UPDI4AVR_FW753B/src/NVM.cpp:304
}
     7f0:	ef df       	rcall	.-34     	; 0x7d0 <NVM::nvm_wait()>
/Users/askn/Documents/Zinnia-tools/Products/hardware/UPDI4AVR/libraries/UPDI4AVR/examples/UPDI4AVR_FW753B/src/NVM.cpp:303
}

/* NVMCTRL v2 */
bool NVM::nvm_ctrl_v2 (uint8_t nvmcmd) {
  NVM::nvm_wait();
  return nvm_ctrl_change(nvmcmd);
     7f2:	8c 2f       	mov	r24, r28
     7f4:	cf 91       	pop	r28
/Users/askn/Documents/Zinnia-tools/Products/hardware/UPDI4AVR/libraries/UPDI4AVR/examples/UPDI4AVR_FW753B/src/NVM.cpp:463
  if (!NVM::nvm_ctrl(NVM::NVM_CMD_ERWP)) return false;
  return NVM::nvm_wait() == 0;
}

/* NVMCTRL v2 */
bool NVM::write_flash_v2 (uint32_t start_addr, size_t byte_count) {
     7f6:	e9 cd       	rjmp	.-1070   	; 0x3ca <nvm_ctrl_change(unsigned char)>

000007f8 <NVM::write_flash_v2(unsigned long, unsigned int)>:
_ZN3NVM14write_flash_v2Emj():
     7f8:	cf 92       	push	r12
     7fa:	df 92       	push	r13
     7fc:	ef 92       	push	r14
     7fe:	ff 92       	push	r15
     800:	0f 93       	push	r16
/Users/askn/Documents/Zinnia-tools/Products/hardware/UPDI4AVR/libraries/UPDI4AVR/examples/UPDI4AVR_FW753B/src/NVM.cpp:464
  byte_count >>= 1;
     802:	1f 93       	push	r17
     804:	cf 93       	push	r28
     806:	df 93       	push	r29
/Users/askn/Documents/Zinnia-tools/Products/hardware/UPDI4AVR/libraries/UPDI4AVR/examples/UPDI4AVR_FW753B/src/NVM.cpp:465
  if (byte_count == 0 || byte_count > 256) return false;
     808:	ea 01       	movw	r28, r20
     80a:	d6 95       	lsr	r29
     80c:	c7 95       	ror	r28
     80e:	9e 01       	movw	r18, r28
     810:	21 50       	subi	r18, 0x01	; 1
     812:	31 09       	sbc	r19, r1
     814:	2f 3f       	cpi	r18, 0xFF	; 255
     816:	31 05       	cpc	r19, r1
     818:	11 f0       	breq	.+4      	; 0x81e <__DATA_REGION_LENGTH__+0x1e>
/Users/askn/Documents/Zinnia-tools/Products/hardware/UPDI4AVR/libraries/UPDI4AVR/examples/UPDI4AVR_FW753B/src/NVM.cpp:470

  /* チップ消去していない場合はセクター消去 */
  /* ただしページ境界先頭がアドレスされた場合に限る */
  if (bit_is_clear(UPDI_CONTROL, UPDI::UPDI_ERFM_bp)
  && ((uint16_t)start_addr & (NVM::flash_page_size - 1)) == 0) {
     81a:	08 f0       	brcs	.+2      	; 0x81e <__DATA_REGION_LENGTH__+0x1e>
     81c:	5a c0       	rjmp	.+180    	; 0x8d2 <__DATA_REGION_LENGTH__+0xd2>
/Users/askn/Documents/Zinnia-tools/Products/hardware/UPDI4AVR/libraries/UPDI4AVR/examples/UPDI4AVR_FW753B/src/NVM.cpp:474
    if (!NVM::nvm_ctrl_v2(NVM::NVM_V2_CMD_FLPER)) return false;
    if (!UPDI::st8(start_addr, 0xFF)) return false;
  }
  if (!NVM::nvm_ctrl_v2(NVM::NVM_V2_CMD_FLWR)) return false;
     81e:	6b 01       	movw	r12, r22
     820:	7c 01       	movw	r14, r24
     822:	e2 9b       	sbis	0x1c, 2	; 28
     824:	42 c0       	rjmp	.+132    	; 0x8aa <__DATA_REGION_LENGTH__+0xaa>
     826:	82 e0       	ldi	r24, 0x02	; 2
/Users/askn/Documents/Zinnia-tools/Products/hardware/UPDI4AVR/libraries/UPDI4AVR/examples/UPDI4AVR_FW753B/src/NVM.cpp:477

  /* setting register pointer and enable RSD mode */
  _CAPS32(set_ptr[2])->dword = start_addr;
     828:	e1 df       	rcall	.-62     	; 0x7ec <NVM::nvm_ctrl_v2(unsigned char)>
     82a:	88 23       	and	r24, r24
     82c:	09 f4       	brne	.+2      	; 0x830 <__DATA_REGION_LENGTH__+0x30>
     82e:	51 c0       	rjmp	.+162    	; 0x8d2 <__DATA_REGION_LENGTH__+0xd2>
     830:	c0 92 2d 38 	sts	0x382D, r12	; 0x80382d <NVM::set_ptr+0x2>
     834:	d0 92 2e 38 	sts	0x382E, r13	; 0x80382e <NVM::set_ptr+0x3>
/Users/askn/Documents/Zinnia-tools/Products/hardware/UPDI4AVR/libraries/UPDI4AVR/examples/UPDI4AVR_FW753B/src/NVM.cpp:478
  set_repeat_rsd[5] = byte_count - 1;
     838:	e0 92 2f 38 	sts	0x382F, r14	; 0x80382f <NVM::set_ptr+0x4>
     83c:	f0 92 30 38 	sts	0x3830, r15	; 0x803830 <NVM::set_ptr+0x5>
/Users/askn/Documents/Zinnia-tools/Products/hardware/UPDI4AVR/libraries/UPDI4AVR/examples/UPDI4AVR_FW753B/src/NVM.cpp:479
  if (!UPDI::send_bytes(set_ptr, sizeof(set_ptr) - 1)) return false;
     840:	8c 2f       	mov	r24, r28
     842:	81 50       	subi	r24, 0x01	; 1
     844:	80 93 23 38 	sts	0x3823, r24	; 0x803823 <NVM::set_repeat_rsd+0x5>
     848:	65 e0       	ldi	r22, 0x05	; 5
     84a:	70 e0       	ldi	r23, 0x00	; 0
     84c:	8b e2       	ldi	r24, 0x2B	; 43
/Users/askn/Documents/Zinnia-tools/Products/hardware/UPDI4AVR/libraries/UPDI4AVR/examples/UPDI4AVR_FW753B/src/NVM.cpp:480
  if (UPDI::UPDI_ACK != UPDI::RECV()) return false;
     84e:	98 e3       	ldi	r25, 0x38	; 56
     850:	80 dc       	rcall	.-1792   	; 0x152 <UPDI::send_bytes(unsigned char const*, unsigned int)>
     852:	88 23       	and	r24, r24
     854:	09 f4       	brne	.+2      	; 0x858 <__DATA_REGION_LENGTH__+0x58>
     856:	3d c0       	rjmp	.+122    	; 0x8d2 <__DATA_REGION_LENGTH__+0xd2>
/Users/askn/Documents/Zinnia-tools/Products/hardware/UPDI4AVR/libraries/UPDI4AVR/examples/UPDI4AVR_FW753B/src/NVM.cpp:481
  if (!UPDI::send_bytes(set_repeat_rsd, sizeof(set_repeat_rsd))) return false;
     858:	58 dc       	rcall	.-1872   	; 0x10a <UPDI::RECV()>
     85a:	80 34       	cpi	r24, 0x40	; 64
     85c:	09 f0       	breq	.+2      	; 0x860 <__DATA_REGION_LENGTH__+0x60>
     85e:	39 c0       	rjmp	.+114    	; 0x8d2 <__DATA_REGION_LENGTH__+0xd2>
     860:	68 e0       	ldi	r22, 0x08	; 8
     862:	70 e0       	ldi	r23, 0x00	; 0
     864:	8e e1       	ldi	r24, 0x1E	; 30
     866:	98 e3       	ldi	r25, 0x38	; 56
     868:	74 dc       	rcall	.-1816   	; 0x152 <UPDI::send_bytes(unsigned char const*, unsigned int)>
     86a:	88 23       	and	r24, r24
/Users/askn/Documents/Zinnia-tools/Products/hardware/UPDI4AVR/libraries/UPDI4AVR/examples/UPDI4AVR_FW753B/src/NVM.cpp:486

  /* page buffer stored */
  uint8_t* p = &JTAG2::packet.body[10];
  do {
    UPDI::SEND(*p++);
     86c:	91 f1       	breq	.+100    	; 0x8d2 <__DATA_REGION_LENGTH__+0xd2>
     86e:	0f e5       	ldi	r16, 0x5F	; 95
     870:	18 e3       	ldi	r17, 0x38	; 56
     872:	f8 01       	movw	r30, r16
/Users/askn/Documents/Zinnia-tools/Products/hardware/UPDI4AVR/libraries/UPDI4AVR/examples/UPDI4AVR_FW753B/src/NVM.cpp:487
    UPDI::SEND(*p++);
     874:	82 89       	ldd	r24, Z+18	; 0x12
     876:	55 dc       	rcall	.-1878   	; 0x122 <UPDI::SEND(unsigned char)>
     878:	f8 01       	movw	r30, r16
     87a:	83 89       	ldd	r24, Z+19	; 0x13
/Users/askn/Documents/Zinnia-tools/Products/hardware/UPDI4AVR/libraries/UPDI4AVR/examples/UPDI4AVR_FW753B/src/NVM.cpp:488
  } while (--byte_count);
     87c:	52 dc       	rcall	.-1884   	; 0x122 <UPDI::SEND(unsigned char)>
     87e:	21 97       	sbiw	r28, 0x01	; 1
     880:	0e 5f       	subi	r16, 0xFE	; 254
     882:	1f 4f       	sbci	r17, 0xFF	; 255
/Users/askn/Library/Arduino15/packages/MultiX-Zinnia/hardware/UPDI4AVR/0.2.0/cores/megaAVR/api/delay_busywait.h:31
     884:	20 97       	sbiw	r28, 0x00	; 0
     886:	a9 f7       	brne	.-22     	; 0x872 <__DATA_REGION_LENGTH__+0x72>
delay_micros():
     888:	f2 e9       	ldi	r31, 0x92	; 146
     88a:	fa 95       	dec	r31
/Users/askn/Documents/Zinnia-tools/Products/hardware/UPDI4AVR/libraries/UPDI4AVR/examples/UPDI4AVR_FW753B/src/NVM.cpp:492
  UPDI::guardtime();

  /* disable RSD mode */
  if (!UPDI::set_cs_ctra(UPDI::UPDI_SET_GTVAL_2)) return false;
     88c:	f1 f7       	brne	.-4      	; 0x88a <__DATA_REGION_LENGTH__+0x8a>
     88e:	00 c0       	rjmp	.+0      	; 0x890 <__DATA_REGION_LENGTH__+0x90>
_ZN3NVM14write_flash_v2Emj():
     890:	83 dc       	rcall	.-1786   	; 0x198 <UPDI::set_cs_ctra(unsigned char) [clone .constprop.1]>
     892:	88 23       	and	r24, r24
/Users/askn/Documents/Zinnia-tools/Products/hardware/UPDI4AVR/libraries/UPDI4AVR/examples/UPDI4AVR_FW753B/src/NVM.cpp:494

  return NVM::nvm_ctrl_v2(NVM::NVM_V2_CMD_NOCMD);
     894:	f1 f0       	breq	.+60     	; 0x8d2 <__DATA_REGION_LENGTH__+0xd2>
/Users/askn/Documents/Zinnia-tools/Products/hardware/UPDI4AVR/libraries/UPDI4AVR/examples/UPDI4AVR_FW753B/src/NVM.cpp:495
}
     896:	80 e0       	ldi	r24, 0x00	; 0
     898:	df 91       	pop	r29
     89a:	cf 91       	pop	r28
     89c:	1f 91       	pop	r17
     89e:	0f 91       	pop	r16
     8a0:	ff 90       	pop	r15
     8a2:	ef 90       	pop	r14
     8a4:	df 90       	pop	r13
/Users/askn/Documents/Zinnia-tools/Products/hardware/UPDI4AVR/libraries/UPDI4AVR/examples/UPDI4AVR_FW753B/src/NVM.cpp:494
  UPDI::guardtime();

  /* disable RSD mode */
  if (!UPDI::set_cs_ctra(UPDI::UPDI_SET_GTVAL_2)) return false;

  return NVM::nvm_ctrl_v2(NVM::NVM_V2_CMD_NOCMD);
     8a6:	cf 90       	pop	r12
     8a8:	a1 cf       	rjmp	.-190    	; 0x7ec <NVM::nvm_ctrl_v2(unsigned char)>
/Users/askn/Documents/Zinnia-tools/Products/hardware/UPDI4AVR/libraries/UPDI4AVR/examples/UPDI4AVR_FW753B/src/NVM.cpp:470
  if (byte_count == 0 || byte_count > 256) return false;

  /* チップ消去していない場合はセクター消去 */
  /* ただしページ境界先頭がアドレスされた場合に限る */
  if (bit_is_clear(UPDI_CONTROL, UPDI::UPDI_ERFM_bp)
  && ((uint16_t)start_addr & (NVM::flash_page_size - 1)) == 0) {
     8aa:	80 91 55 38 	lds	r24, 0x3855	; 0x803855 <NVM::flash_page_size>
     8ae:	90 91 56 38 	lds	r25, 0x3856	; 0x803856 <NVM::flash_page_size+0x1>
     8b2:	01 97       	sbiw	r24, 0x01	; 1
     8b4:	86 23       	and	r24, r22
     8b6:	9d 21       	and	r25, r13
     8b8:	89 2b       	or	r24, r25
     8ba:	09 f0       	breq	.+2      	; 0x8be <__DATA_REGION_LENGTH__+0xbe>
     8bc:	b4 cf       	rjmp	.-152    	; 0x826 <__DATA_REGION_LENGTH__+0x26>
/Users/askn/Documents/Zinnia-tools/Products/hardware/UPDI4AVR/libraries/UPDI4AVR/examples/UPDI4AVR_FW753B/src/NVM.cpp:471
    if (!NVM::nvm_ctrl_v2(NVM::NVM_V2_CMD_FLPER)) return false;
     8be:	88 e0       	ldi	r24, 0x08	; 8
     8c0:	95 df       	rcall	.-214    	; 0x7ec <NVM::nvm_ctrl_v2(unsigned char)>
     8c2:	88 23       	and	r24, r24
     8c4:	31 f0       	breq	.+12     	; 0x8d2 <__DATA_REGION_LENGTH__+0xd2>
     8c6:	4f ef       	ldi	r20, 0xFF	; 255
/Users/askn/Documents/Zinnia-tools/Products/hardware/UPDI4AVR/libraries/UPDI4AVR/examples/UPDI4AVR_FW753B/src/NVM.cpp:472
    if (!UPDI::st8(start_addr, 0xFF)) return false;
     8c8:	c7 01       	movw	r24, r14
     8ca:	b6 01       	movw	r22, r12
     8cc:	b2 dc       	rcall	.-1692   	; 0x232 <UPDI::st8(unsigned long, unsigned char)>
     8ce:	81 11       	cpse	r24, r1
     8d0:	aa cf       	rjmp	.-172    	; 0x826 <__DATA_REGION_LENGTH__+0x26>
     8d2:	80 e0       	ldi	r24, 0x00	; 0
     8d4:	df 91       	pop	r29
/Users/askn/Documents/Zinnia-tools/Products/hardware/UPDI4AVR/libraries/UPDI4AVR/examples/UPDI4AVR_FW753B/src/NVM.cpp:495

  /* disable RSD mode */
  if (!UPDI::set_cs_ctra(UPDI::UPDI_SET_GTVAL_2)) return false;

  return NVM::nvm_ctrl_v2(NVM::NVM_V2_CMD_NOCMD);
}
     8d6:	cf 91       	pop	r28
     8d8:	1f 91       	pop	r17
     8da:	0f 91       	pop	r16
     8dc:	ff 90       	pop	r15
     8de:	ef 90       	pop	r14
     8e0:	df 90       	pop	r13
     8e2:	cf 90       	pop	r12
     8e4:	08 95       	ret

000008e6 <UPDI::runtime(unsigned char)>:
_ZN4UPDI7runtimeEh():
     8e6:	bf 92       	push	r11
     8e8:	cf 92       	push	r12
/Users/askn/Documents/Zinnia-tools/Products/hardware/UPDI4AVR/libraries/UPDI4AVR/examples/UPDI4AVR_FW753B/src/UPDI.cpp:431

/*
 * UPDI制御プロセス
 */

bool UPDI::runtime (uint8_t updi_cmd) {
     8ea:	df 92       	push	r13
     8ec:	ef 92       	push	r14
     8ee:	ff 92       	push	r15
     8f0:	0f 93       	push	r16
     8f2:	1f 93       	push	r17
     8f4:	cf 93       	push	r28
     8f6:	df 93       	push	r29
     8f8:	cd b7       	in	r28, 0x3d	; 61
     8fa:	de b7       	in	r29, 0x3e	; 62
     8fc:	26 97       	sbiw	r28, 0x06	; 6
     8fe:	cd bf       	out	0x3d, r28	; 61
     900:	de bf       	out	0x3e, r29	; 62
     902:	8e 83       	std	Y+6, r24	; 0x06
     904:	1d 82       	std	Y+5, r1	; 0x05
     906:	88 e3       	ldi	r24, 0x38	; 56
/Users/askn/Documents/Zinnia-tools/Products/hardware/UPDI4AVR/libraries/UPDI4AVR/examples/UPDI4AVR_FW753B/src/UPDI.cpp:432
  volatile bool _result = false;
     908:	98 e3       	ldi	r25, 0x38	; 56
/Users/askn/Documents/Zinnia-tools/Products/hardware/UPDI4AVR/libraries/UPDI4AVR/examples/UPDI4AVR_FW753B/src/UPDI.cpp:434
  uint16_t limit = 4000;
  if (setjmp(TIM::CONTEXT) == 0) {
     90a:	02 d7       	rcall	.+3588   	; 0x1710 <setjmp>
     90c:	89 2b       	or	r24, r25
     90e:	09 f0       	breq	.+2      	; 0x912 <UPDI::runtime(unsigned char)+0x2c>
     910:	26 c1       	rjmp	.+588    	; 0xb5e <UPDI::runtime(unsigned char)+0x278>
Timeout_Start():
     912:	9f b7       	in	r25, 0x3f	; 63
__iCliRetVal():
     914:	f8 94       	cli
Timeout_Start():
     916:	10 92 8a 0a 	sts	0x0A8A, r1	; 0x800a8a <UPDI::nvmprog_key+0x7f72ec>
/Users/askn/Library/Arduino15/packages/MultiX-Zinnia/tools/avr-gcc/7.3.0-avr8-gnu-toolchain/avr/include/util/atomic.h:50
     91a:	10 92 8b 0a 	sts	0x0A8B, r1	; 0x800a8b <UPDI::nvmprog_key+0x7f72ed>
/Users/askn/Documents/Zinnia-tools/Products/hardware/UPDI4AVR/libraries/UPDI4AVR/examples/UPDI4AVR_FW753B/src/TIM.cpp:123
 * タイムアウト制御
 */

void TIM::Timeout_Start (uint16_t _ms) {
  ATOMIC_BLOCK(ATOMIC_RESTORESTATE) {
    TCB0_CNT = 0;
     91e:	28 ee       	ldi	r18, 0xE8	; 232
     920:	33 e0       	ldi	r19, 0x03	; 3
     922:	20 93 8c 0a 	sts	0x0A8C, r18	; 0x800a8c <UPDI::nvmprog_key+0x7f72ee>
/Users/askn/Documents/Zinnia-tools/Products/hardware/UPDI4AVR/libraries/UPDI4AVR/examples/UPDI4AVR_FW753B/src/TIM.cpp:124
    TCB0_CCMP = _ms >> 2;
     926:	30 93 8d 0a 	sts	0x0A8D, r19	; 0x800a8d <UPDI::nvmprog_key+0x7f72ef>
     92a:	81 e0       	ldi	r24, 0x01	; 1
     92c:	80 93 85 0a 	sts	0x0A85, r24	; 0x800a85 <UPDI::nvmprog_key+0x7f72e7>
/Users/askn/Documents/Zinnia-tools/Products/hardware/UPDI4AVR/libraries/UPDI4AVR/examples/UPDI4AVR_FW753B/src/TIM.cpp:125
    TCB0_INTCTRL = TCB_CAPT_bm;
     930:	80 93 86 0a 	sts	0x0A86, r24	; 0x800a86 <UPDI::nvmprog_key+0x7f72e8>
     934:	8f e0       	ldi	r24, 0x0F	; 15
/Users/askn/Documents/Zinnia-tools/Products/hardware/UPDI4AVR/libraries/UPDI4AVR/examples/UPDI4AVR_FW753B/src/TIM.cpp:126
    TCB0_INTFLAGS = TCB_CAPT_bm;
     936:	80 93 80 0a 	sts	0x0A80, r24	; 0x800a80 <UPDI::nvmprog_key+0x7f72e2>
__iRestore():
/Users/askn/Documents/Zinnia-tools/Products/hardware/UPDI4AVR/libraries/UPDI4AVR/examples/UPDI4AVR_FW753B/src/TIM.cpp:127
    TCB0_CTRLA = TCB_ENABLE_bm | TCB_CLKSEL_EVENT_gc;
     93a:	9f bf       	out	0x3f, r25	; 63
_ZN4UPDI7runtimeEh():
     93c:	8e 81       	ldd	r24, Y+6	; 0x06
     93e:	83 30       	cpi	r24, 0x03	; 3
/Users/askn/Library/Arduino15/packages/MultiX-Zinnia/tools/avr-gcc/7.3.0-avr8-gnu-toolchain/avr/include/util/atomic.h:70
    (void)__s;
}

static __inline__ void __iRestore(const  uint8_t *__s)
{
    SREG = *__s;
     940:	09 f4       	brne	.+2      	; 0x944 <UPDI::runtime(unsigned char)+0x5e>
/Users/askn/Documents/Zinnia-tools/Products/hardware/UPDI4AVR/libraries/UPDI4AVR/examples/UPDI4AVR_FW753B/src/UPDI.cpp:436
    TIM::Timeout_Start(limit);
    switch (updi_cmd) {
     942:	00 c3       	rjmp	.+1536   	; 0xf44 <UPDI::runtime(unsigned char)+0x65e>
     944:	84 30       	cpi	r24, 0x04	; 4
     946:	09 f4       	brne	.+2      	; 0x94a <UPDI::runtime(unsigned char)+0x64>
     948:	4a c3       	rjmp	.+1684   	; 0xfde <UPDI::runtime(unsigned char)+0x6f8>
     94a:	82 30       	cpi	r24, 0x02	; 2
     94c:	09 f4       	brne	.+2      	; 0x950 <UPDI::runtime(unsigned char)+0x6a>
     94e:	96 c0       	rjmp	.+300    	; 0xa7c <UPDI::runtime(unsigned char)+0x196>
read_memory():
     950:	ef e5       	ldi	r30, 0x5F	; 95
/Users/askn/Documents/Zinnia-tools/Products/hardware/UPDI4AVR/libraries/UPDI4AVR/examples/UPDI4AVR_FW753B/src/NVM.cpp:49
/*
 * メモリ読込中核
 */

bool NVM::read_memory (void) {
  uint8_t  mem_type   =         JTAG2::packet.body[1];
     952:	f8 e3       	ldi	r31, 0x38	; 56
     954:	81 85       	ldd	r24, Z+9	; 0x09
/Users/askn/Documents/Zinnia-tools/Products/hardware/UPDI4AVR/libraries/UPDI4AVR/examples/UPDI4AVR_FW753B/src/NVM.cpp:50
  size_t   byte_count = _CAPS16(JTAG2::packet.body[2])->word;
     956:	02 85       	ldd	r16, Z+10	; 0x0a
     958:	13 85       	ldd	r17, Z+11	; 0x0b
/Users/askn/Documents/Zinnia-tools/Products/hardware/UPDI4AVR/libraries/UPDI4AVR/examples/UPDI4AVR_FW753B/src/NVM.cpp:51
  uint32_t start_addr = _CAPS32(JTAG2::packet.body[6])->dword;
     95a:	46 85       	ldd	r20, Z+14	; 0x0e
     95c:	57 85       	ldd	r21, Z+15	; 0x0f
     95e:	60 89       	ldd	r22, Z+16	; 0x10
     960:	71 89       	ldd	r23, Z+17	; 0x11
/Users/askn/Documents/Zinnia-tools/Products/hardware/UPDI4AVR/libraries/UPDI4AVR/examples/UPDI4AVR_FW753B/src/NVM.cpp:52
  JTAG2::packet.body[0] = JTAG2::RSP_MEMORY;
     962:	92 e8       	ldi	r25, 0x82	; 130
     964:	90 87       	std	Z+8, r25	; 0x08
/Users/askn/Documents/Zinnia-tools/Products/hardware/UPDI4AVR/libraries/UPDI4AVR/examples/UPDI4AVR_FW753B/src/NVM.cpp:53
  JTAG2::packet.size_word[0] = byte_count + 1;
     966:	98 01       	movw	r18, r16
     968:	2f 5f       	subi	r18, 0xFF	; 255
     96a:	3f 4f       	sbci	r19, 0xFF	; 255
     96c:	23 83       	std	Z+3, r18	; 0x03
     96e:	34 83       	std	Z+4, r19	; 0x04
/Users/askn/Documents/Zinnia-tools/Products/hardware/UPDI4AVR/libraries/UPDI4AVR/examples/UPDI4AVR_FW753B/src/NVM.cpp:57
  /* 奇数量なら絶対アドレス（データ長は常に1） */
  /* 偶数量なら間接アドレス指定 */
  /* Flash領域は常に偶数量 */
  if (byte_count >= 2) {
     970:	02 30       	cpi	r16, 0x02	; 2
     972:	11 05       	cpc	r17, r1
     974:	08 f4       	brcc	.+2      	; 0x978 <UPDI::runtime(unsigned char)+0x92>
     976:	46 c0       	rjmp	.+140    	; 0xa04 <UPDI::runtime(unsigned char)+0x11e>
/Users/askn/Documents/Zinnia-tools/Products/hardware/UPDI4AVR/libraries/UPDI4AVR/examples/UPDI4AVR_FW753B/src/NVM.cpp:58
    switch (mem_type) {
     978:	80 3c       	cpi	r24, 0xC0	; 192
     97a:	09 f4       	brne	.+2      	; 0x97e <UPDI::runtime(unsigned char)+0x98>
     97c:	5c c0       	rjmp	.+184    	; 0xa36 <UPDI::runtime(unsigned char)+0x150>
     97e:	48 f4       	brcc	.+18     	; 0x992 <UPDI::runtime(unsigned char)+0xac>
     980:	82 32       	cpi	r24, 0x22	; 34
     982:	09 f4       	brne	.+2      	; 0x986 <UPDI::runtime(unsigned char)+0xa0>
     984:	65 c0       	rjmp	.+202    	; 0xa50 <UPDI::runtime(unsigned char)+0x16a>
     986:	18 f0       	brcs	.+6      	; 0x98e <UPDI::runtime(unsigned char)+0xa8>
     988:	82 5b       	subi	r24, 0xB2	; 178
     98a:	84 30       	cpi	r24, 0x04	; 4
/Users/askn/Documents/Zinnia-tools/Products/hardware/UPDI4AVR/libraries/UPDI4AVR/examples/UPDI4AVR_FW753B/src/UPDI.cpp:304
bool UPDI::chip_erase (void) {
  /* Send HV Pulse */
  if (bit_is_clear(UPDI_CONTROL, UPDI_PROG_bp)) HV_Pulse();

  /* send nvmprog_key */
  if (!UPDI::send_bytes(UPDI::nvmprog_key, sizeof(UPDI::nvmprog_key))) return false;
     98c:	d8 f1       	brcs	.+118    	; 0xa04 <UPDI::runtime(unsigned char)+0x11e>
_ZN4UPDI7runtimeEh():
     98e:	80 e0       	ldi	r24, 0x00	; 0
/Users/askn/Documents/Zinnia-tools/Products/hardware/UPDI4AVR/libraries/UPDI4AVR/examples/UPDI4AVR_FW753B/src/NVM.cpp:58
     990:	33 c0       	rjmp	.+102    	; 0x9f8 <UPDI::runtime(unsigned char)+0x112>
read_memory():
     992:	84 3c       	cpi	r24, 0xC4	; 196
     994:	09 f4       	brne	.+2      	; 0x998 <UPDI::runtime(unsigned char)+0xb2>
     996:	5c c0       	rjmp	.+184    	; 0xa50 <UPDI::runtime(unsigned char)+0x16a>
     998:	88 f5       	brcc	.+98     	; 0x9fc <UPDI::runtime(unsigned char)+0x116>
/Users/askn/Documents/Zinnia-tools/Products/hardware/UPDI4AVR/libraries/UPDI4AVR/examples/UPDI4AVR_FW753B/src/NVM.cpp:66
      case JTAG2::MTYPE_XMEGA_FLASH : {   // 0xC0
        start_addr -= NVM::nvm_flash_offset;
      }
      /* Flash 領域 */
      case JTAG2::MTYPE_BOOT_FLASH : {    // 0xC1
        start_addr += NVM::nvm_flash_offset;
     99a:	81 3c       	cpi	r24, 0xC1	; 193
     99c:	c1 f7       	brne	.-16     	; 0x98e <UPDI::runtime(unsigned char)+0xa8>
     99e:	80 91 51 38 	lds	r24, 0x3851	; 0x803851 <NVM::nvm_flash_offset>
     9a2:	90 91 52 38 	lds	r25, 0x3852	; 0x803852 <NVM::nvm_flash_offset+0x1>
     9a6:	a0 91 53 38 	lds	r26, 0x3853	; 0x803853 <NVM::nvm_flash_offset+0x2>
/Users/askn/Documents/Zinnia-tools/Products/hardware/UPDI4AVR/libraries/UPDI4AVR/examples/UPDI4AVR_FW753B/src/NVM.cpp:239
 * Flash領域ワード読込
 */

bool NVM::read_flash (uint32_t start_addr, size_t byte_count) {
  uint8_t* p = &JTAG2::packet.body[1];
  byte_count >>= 1;
     9aa:	b0 91 54 38 	lds	r27, 0x3854	; 0x803854 <NVM::nvm_flash_offset+0x3>
read_flash():
/Users/askn/Documents/Zinnia-tools/Products/hardware/UPDI4AVR/libraries/UPDI4AVR/examples/UPDI4AVR_FW753B/src/NVM.cpp:240
  if (byte_count == 0 || byte_count > 256) return false;
     9ae:	16 95       	lsr	r17
     9b0:	07 95       	ror	r16
     9b2:	98 01       	movw	r18, r16
     9b4:	21 50       	subi	r18, 0x01	; 1
     9b6:	31 09       	sbc	r19, r1
     9b8:	2f 3f       	cpi	r18, 0xFF	; 255
     9ba:	31 05       	cpc	r19, r1
/Users/askn/Documents/Zinnia-tools/Products/hardware/UPDI4AVR/libraries/UPDI4AVR/examples/UPDI4AVR_FW753B/src/NVM.cpp:66
      case JTAG2::MTYPE_XMEGA_FLASH : {   // 0xC0
        start_addr -= NVM::nvm_flash_offset;
      }
      /* Flash 領域 */
      case JTAG2::MTYPE_BOOT_FLASH : {    // 0xC1
        start_addr += NVM::nvm_flash_offset;
     9bc:	09 f0       	breq	.+2      	; 0x9c0 <UPDI::runtime(unsigned char)+0xda>
     9be:	38 f7       	brcc	.-50     	; 0x98e <UPDI::runtime(unsigned char)+0xa8>
read_memory():
     9c0:	48 0f       	add	r20, r24
     9c2:	59 1f       	adc	r21, r25
/Users/askn/Documents/Zinnia-tools/Products/hardware/UPDI4AVR/libraries/UPDI4AVR/examples/UPDI4AVR_FW753B/src/NVM.cpp:241

bool NVM::read_flash (uint32_t start_addr, size_t byte_count) {
  uint8_t* p = &JTAG2::packet.body[1];
  byte_count >>= 1;
  if (byte_count == 0 || byte_count > 256) return false;
  if (!UPDI::send_repeat_header(
     9c4:	6a 1f       	adc	r22, r26
     9c6:	7b 1f       	adc	r23, r27
read_flash():
     9c8:	98 01       	movw	r18, r16
     9ca:	81 e2       	ldi	r24, 0x21	; 33
     9cc:	53 dc       	rcall	.-1882   	; 0x274 <UPDI::send_repeat_header(unsigned char, unsigned long, unsigned int)>
     9ce:	88 23       	and	r24, r24
     9d0:	f1 f2       	breq	.-68     	; 0x98e <UPDI::runtime(unsigned char)+0xa8>
     9d2:	6f e5       	ldi	r22, 0x5F	; 95
     9d4:	e6 2e       	mov	r14, r22
     9d6:	68 e3       	ldi	r22, 0x38	; 56
/Users/askn/Documents/Zinnia-tools/Products/hardware/UPDI4AVR/libraries/UPDI4AVR/examples/UPDI4AVR_FW753B/src/NVM.cpp:247
    (UPDI::UPDI_LD | UPDI::UPDI_DATA2),
    start_addr,
    byte_count
  )) return false;
  do {
    *p++ = UPDI::RECV();
     9d8:	f6 2e       	mov	r15, r22
     9da:	97 db       	rcall	.-2258   	; 0x10a <UPDI::RECV()>
     9dc:	f7 01       	movw	r30, r14
     9de:	81 87       	std	Z+9, r24	; 0x09
/Users/askn/Documents/Zinnia-tools/Products/hardware/UPDI4AVR/libraries/UPDI4AVR/examples/UPDI4AVR_FW753B/src/NVM.cpp:248
    *p++ = UPDI::RECV();
     9e0:	94 db       	rcall	.-2264   	; 0x10a <UPDI::RECV()>
     9e2:	f7 01       	movw	r30, r14
     9e4:	82 87       	std	Z+10, r24	; 0x0a
     9e6:	01 50       	subi	r16, 0x01	; 1
/Users/askn/Documents/Zinnia-tools/Products/hardware/UPDI4AVR/libraries/UPDI4AVR/examples/UPDI4AVR_FW753B/src/NVM.cpp:249
  } while (--byte_count);
     9e8:	11 09       	sbc	r17, r1
     9ea:	f2 e0       	ldi	r31, 0x02	; 2
     9ec:	ef 0e       	add	r14, r31
     9ee:	f1 1c       	adc	r15, r1
     9f0:	01 15       	cp	r16, r1
     9f2:	11 05       	cpc	r17, r1
     9f4:	91 f7       	brne	.-28     	; 0x9da <UPDI::runtime(unsigned char)+0xf4>
_ZN4UPDI7runtimeEh():
/Users/askn/Documents/Zinnia-tools/Products/hardware/UPDI4AVR/libraries/UPDI4AVR/examples/UPDI4AVR_FW753B/src/NVM.cpp:250
  return true;
     9f6:	81 e0       	ldi	r24, 0x01	; 1
/Users/askn/Documents/Zinnia-tools/Products/hardware/UPDI4AVR/libraries/UPDI4AVR/examples/UPDI4AVR_FW753B/src/UPDI.cpp:456
          _result = UPDI::chip_erase();
        }
        break;
      }
      case UPDI::UPDI_CMD_GO : {
        _result = UPDI::Target_Reset(true) && UPDI::Target_Reset(false);
     9f8:	8d 83       	std	Y+5, r24	; 0x05
     9fa:	b1 c0       	rjmp	.+354    	; 0xb5e <UPDI::runtime(unsigned char)+0x278>
read_memory():
/Users/askn/Documents/Zinnia-tools/Products/hardware/UPDI4AVR/libraries/UPDI4AVR/examples/UPDI4AVR_FW753B/src/NVM.cpp:58
  JTAG2::packet.size_word[0] = byte_count + 1;
  /* 奇数量なら絶対アドレス（データ長は常に1） */
  /* 偶数量なら間接アドレス指定 */
  /* Flash領域は常に偶数量 */
  if (byte_count >= 2) {
    switch (mem_type) {
     9fc:	85 3c       	cpi	r24, 0xC5	; 197
     9fe:	a9 f1       	breq	.+106    	; 0xa6a <UPDI::runtime(unsigned char)+0x184>
     a00:	86 3c       	cpi	r24, 0xC6	; 198
     a02:	29 f6       	brne	.-118    	; 0x98e <UPDI::runtime(unsigned char)+0xa8>
read_data():
/Users/askn/Documents/Zinnia-tools/Products/hardware/UPDI4AVR/libraries/UPDI4AVR/examples/UPDI4AVR_FW753B/src/NVM.cpp:259
 * データ領域バイト読込
 */

bool NVM::read_data (uint32_t start_addr, size_t byte_count) {
  uint8_t* p = &JTAG2::packet.body[1];
  if (byte_count == 0 || byte_count > 256) return false;
     a04:	c8 01       	movw	r24, r16
     a06:	01 97       	sbiw	r24, 0x01	; 1
     a08:	8f 3f       	cpi	r24, 0xFF	; 255
     a0a:	91 05       	cpc	r25, r1
     a0c:	11 f0       	breq	.+4      	; 0xa12 <UPDI::runtime(unsigned char)+0x12c>
     a0e:	08 f0       	brcs	.+2      	; 0xa12 <UPDI::runtime(unsigned char)+0x12c>
     a10:	be cf       	rjmp	.-132    	; 0x98e <UPDI::runtime(unsigned char)+0xa8>
/Users/askn/Documents/Zinnia-tools/Products/hardware/UPDI4AVR/libraries/UPDI4AVR/examples/UPDI4AVR_FW753B/src/NVM.cpp:260
  if (!UPDI::send_repeat_header(
     a12:	98 01       	movw	r18, r16
     a14:	80 e2       	ldi	r24, 0x20	; 32
     a16:	2e dc       	rcall	.-1956   	; 0x274 <UPDI::send_repeat_header(unsigned char, unsigned long, unsigned int)>
     a18:	88 23       	and	r24, r24
     a1a:	09 f4       	brne	.+2      	; 0xa1e <UPDI::runtime(unsigned char)+0x138>
     a1c:	b8 cf       	rjmp	.-144    	; 0x98e <UPDI::runtime(unsigned char)+0xa8>
     a1e:	58 e6       	ldi	r21, 0x68	; 104
     a20:	e5 2e       	mov	r14, r21
     a22:	58 e3       	ldi	r21, 0x38	; 56
     a24:	f5 2e       	mov	r15, r21
     a26:	71 db       	rcall	.-2334   	; 0x10a <UPDI::RECV()>
/Users/askn/Documents/Zinnia-tools/Products/hardware/UPDI4AVR/libraries/UPDI4AVR/examples/UPDI4AVR_FW753B/src/NVM.cpp:263
    (UPDI::UPDI_LD | UPDI::UPDI_DATA1),
    start_addr, byte_count)) return false;
  do { *p++ = UPDI::RECV(); } while (--byte_count);
     a28:	f7 01       	movw	r30, r14
     a2a:	81 93       	st	Z+, r24
     a2c:	7f 01       	movw	r14, r30
     a2e:	01 50       	subi	r16, 0x01	; 1
     a30:	11 09       	sbc	r17, r1
     a32:	c9 f7       	brne	.-14     	; 0xa26 <UPDI::runtime(unsigned char)+0x140>
     a34:	e0 cf       	rjmp	.-64     	; 0x9f6 <UPDI::runtime(unsigned char)+0x110>
read_memory():
     a36:	80 91 51 38 	lds	r24, 0x3851	; 0x803851 <NVM::nvm_flash_offset>
/Users/askn/Documents/Zinnia-tools/Products/hardware/UPDI4AVR/libraries/UPDI4AVR/examples/UPDI4AVR_FW753B/src/NVM.cpp:62
  if (byte_count >= 2) {
    switch (mem_type) {
      /* Data 領域 */
      /* これは常に絶対アドレス */
      case JTAG2::MTYPE_XMEGA_FLASH : {   // 0xC0
        start_addr -= NVM::nvm_flash_offset;
     a3a:	90 91 52 38 	lds	r25, 0x3852	; 0x803852 <NVM::nvm_flash_offset+0x1>
     a3e:	a0 91 53 38 	lds	r26, 0x3853	; 0x803853 <NVM::nvm_flash_offset+0x2>
     a42:	b0 91 54 38 	lds	r27, 0x3854	; 0x803854 <NVM::nvm_flash_offset+0x3>
     a46:	48 1b       	sub	r20, r24
     a48:	59 0b       	sbc	r21, r25
     a4a:	6a 0b       	sbc	r22, r26
     a4c:	7b 0b       	sbc	r23, r27
     a4e:	a7 cf       	rjmp	.-178    	; 0x99e <UPDI::runtime(unsigned char)+0xb8>
     a50:	80 91 5b 38 	lds	r24, 0x385B	; 0x80385b <NVM::nvm_eeprom_offset>
/Users/askn/Documents/Zinnia-tools/Products/hardware/UPDI4AVR/libraries/UPDI4AVR/examples/UPDI4AVR_FW753B/src/NVM.cpp:72
        return NVM::read_flash(start_addr, byte_count);
      }
      /* EEPROM 領域 */
      case JTAG2::MTYPE_EEPROM :          // 0x22
      case JTAG2::MTYPE_EEPROM_XMEGA : {  // 0xC4
        start_addr += NVM::nvm_eeprom_offset;
     a54:	90 91 5c 38 	lds	r25, 0x385C	; 0x80385c <NVM::nvm_eeprom_offset+0x1>
     a58:	a0 91 5d 38 	lds	r26, 0x385D	; 0x80385d <NVM::nvm_eeprom_offset+0x2>
     a5c:	b0 91 5e 38 	lds	r27, 0x385E	; 0x80385e <NVM::nvm_eeprom_offset+0x3>
     a60:	48 0f       	add	r20, r24
/Users/askn/Documents/Zinnia-tools/Products/hardware/UPDI4AVR/libraries/UPDI4AVR/examples/UPDI4AVR_FW753B/src/NVM.cpp:77
        break;
      }
      /* USERROW/USERSIG */
      case JTAG2::MTYPE_USERSIG : {       // 0xC5
        start_addr += NVM::nvm_user_sig_offset;
     a62:	59 1f       	adc	r21, r25
     a64:	6a 1f       	adc	r22, r26
     a66:	7b 1f       	adc	r23, r27
     a68:	cd cf       	rjmp	.-102    	; 0xa04 <UPDI::runtime(unsigned char)+0x11e>
     a6a:	80 91 57 38 	lds	r24, 0x3857	; 0x803857 <NVM::nvm_user_sig_offset>
     a6e:	90 91 58 38 	lds	r25, 0x3858	; 0x803858 <NVM::nvm_user_sig_offset+0x1>
     a72:	a0 91 59 38 	lds	r26, 0x3859	; 0x803859 <NVM::nvm_user_sig_offset+0x2>
     a76:	b0 91 5a 38 	lds	r27, 0x385A	; 0x80385a <NVM::nvm_user_sig_offset+0x3>
     a7a:	f2 cf       	rjmp	.-28     	; 0xa60 <UPDI::runtime(unsigned char)+0x17a>
_ZN4UPDI7runtimeEh():
/Users/askn/Documents/Zinnia-tools/Products/hardware/UPDI4AVR/libraries/UPDI4AVR/examples/UPDI4AVR_FW753B/src/UPDI.cpp:442
      case UPDI::UPDI_CMD_READ_MEMORY : {
        _result = NVM::read_memory();
        break;
      }
      case UPDI::UPDI_CMD_WRITE_MEMORY : {
        if (bit_is_clear(UPDI_CONTROL, UPDI_PROG_bp)) break;
     a7c:	e1 9b       	sbis	0x1c, 1	; 28
/Users/askn/Documents/Zinnia-tools/Products/hardware/UPDI4AVR/libraries/UPDI4AVR/examples/UPDI4AVR_FW753B/src/UPDI.cpp:200
  set_ptr[1] = UPDI::UPDI_LDCS | code;
  while (!UPDI::send_bytes(set_ptr, sizeof(set_ptr))) UPDI::BREAK();
  return check == (UPDI::RECV() & check);
}
inline bool UPDI::is_sys_stat (const uint8_t check) {
  return UPDI::is_cs_stat(UPDI::UPDI_CS_ASI_SYS_STATUS, check);
     a7e:	6f c0       	rjmp	.+222    	; 0xb5e <UPDI::runtime(unsigned char)+0x278>
is_sys_stat():
     a80:	61 e0       	ldi	r22, 0x01	; 1
     a82:	8b e0       	ldi	r24, 0x0B	; 11
     a84:	27 dc       	rcall	.-1970   	; 0x2d4 <UPDI::is_cs_stat(unsigned char, unsigned char)>
     a86:	b8 2e       	mov	r11, r24
_ZN4UPDI7runtimeEh():
/Users/askn/Documents/Zinnia-tools/Products/hardware/UPDI4AVR/libraries/UPDI4AVR/examples/UPDI4AVR_FW753B/src/UPDI.cpp:443
        _result = NVM::read_memory();
        break;
      }
      case UPDI::UPDI_CMD_WRITE_MEMORY : {
        if (bit_is_clear(UPDI_CONTROL, UPDI_PROG_bp)) break;
        if (UPDI::is_sys_stat(UPDI::UPDI_SYS_LOCKSTATUS)) break;
     a88:	81 11       	cpse	r24, r1
/Users/askn/Documents/Zinnia-tools/Products/hardware/UPDI4AVR/libraries/UPDI4AVR/examples/UPDI4AVR_FW753B/src/UPDI.cpp:444
        if (!(UPDI_LASTL & UPDI::UPDI_SYS_NVMPROG)) break;
     a8a:	69 c0       	rjmp	.+210    	; 0xb5e <UPDI::runtime(unsigned char)+0x278>
     a8c:	f3 9b       	sbis	0x1e, 3	; 30
/Users/askn/Documents/Zinnia-tools/Products/hardware/UPDI4AVR/libraries/UPDI4AVR/examples/UPDI4AVR_FW753B/src/NVM.cpp:100
/*
 * メモリ書込中核
 */

bool NVM::write_memory (void) {
  uint8_t  mem_type   =         JTAG2::packet.body[1];
     a8e:	67 c0       	rjmp	.+206    	; 0xb5e <UPDI::runtime(unsigned char)+0x278>
write_memory():
     a90:	ef e5       	ldi	r30, 0x5F	; 95
     a92:	f8 e3       	ldi	r31, 0x38	; 56
/Users/askn/Documents/Zinnia-tools/Products/hardware/UPDI4AVR/libraries/UPDI4AVR/examples/UPDI4AVR_FW753B/src/NVM.cpp:101
  size_t   byte_count = _CAPS16(JTAG2::packet.body[2])->word;
     a94:	81 85       	ldd	r24, Z+9	; 0x09
     a96:	02 85       	ldd	r16, Z+10	; 0x0a
/Users/askn/Documents/Zinnia-tools/Products/hardware/UPDI4AVR/libraries/UPDI4AVR/examples/UPDI4AVR_FW753B/src/NVM.cpp:102
  uint32_t start_addr = _CAPS32(JTAG2::packet.body[6])->dword;
     a98:	13 85       	ldd	r17, Z+11	; 0x0b
     a9a:	c6 84       	ldd	r12, Z+14	; 0x0e
     a9c:	d7 84       	ldd	r13, Z+15	; 0x0f
/Users/askn/Documents/Zinnia-tools/Products/hardware/UPDI4AVR/libraries/UPDI4AVR/examples/UPDI4AVR_FW753B/src/NVM.cpp:106
  /* 奇数量なら絶対アドレス（データ長は常に1） */
  /* 偶数量なら間接アドレス指定 */
  /* Flash領域は常に偶数量 */
  if (byte_count >= 2) {
     a9e:	e0 88       	ldd	r14, Z+16	; 0x10
     aa0:	f1 88       	ldd	r15, Z+17	; 0x11
     aa2:	02 30       	cpi	r16, 0x02	; 2
/Users/askn/Documents/Zinnia-tools/Products/hardware/UPDI4AVR/libraries/UPDI4AVR/examples/UPDI4AVR_FW753B/src/NVM.cpp:107
    switch (mem_type) {
     aa4:	11 05       	cpc	r17, r1
     aa6:	08 f4       	brcc	.+2      	; 0xaaa <UPDI::runtime(unsigned char)+0x1c4>
     aa8:	05 c1       	rjmp	.+522    	; 0xcb4 <UPDI::runtime(unsigned char)+0x3ce>
     aaa:	82 3c       	cpi	r24, 0xC2	; 194
     aac:	08 f0       	brcs	.+2      	; 0xab0 <UPDI::runtime(unsigned char)+0x1ca>
     aae:	50 c0       	rjmp	.+160    	; 0xb50 <UPDI::runtime(unsigned char)+0x26a>
     ab0:	80 3c       	cpi	r24, 0xC0	; 192
     ab2:	08 f0       	brcs	.+2      	; 0xab6 <UPDI::runtime(unsigned char)+0x1d0>
     ab4:	67 c0       	rjmp	.+206    	; 0xb84 <UPDI::runtime(unsigned char)+0x29e>
     ab6:	82 32       	cpi	r24, 0x22	; 34
     ab8:	19 f0       	breq	.+6      	; 0xac0 <UPDI::runtime(unsigned char)+0x1da>
/Users/askn/Documents/Zinnia-tools/Products/hardware/UPDI4AVR/libraries/UPDI4AVR/examples/UPDI4AVR_FW753B/src/NVM.cpp:123
      }
      /* EEPROM 領域 */
      case JTAG2::MTYPE_EEPROM :        // 0x22
      case JTAG2::MTYPE_EEPROM_XMEGA :  // 0xC4
      case JTAG2::MTYPE_LOCK_BITS : {   // 0xB3
        start_addr += NVM::nvm_eeprom_offset;
     aba:	83 3b       	cpi	r24, 0xB3	; 179
     abc:	09 f0       	breq	.+2      	; 0xac0 <UPDI::runtime(unsigned char)+0x1da>
     abe:	4e c0       	rjmp	.+156    	; 0xb5c <UPDI::runtime(unsigned char)+0x276>
     ac0:	80 91 5b 38 	lds	r24, 0x385B	; 0x80385b <NVM::nvm_eeprom_offset>
     ac4:	90 91 5c 38 	lds	r25, 0x385C	; 0x80385c <NVM::nvm_eeprom_offset+0x1>
     ac8:	a0 91 5d 38 	lds	r26, 0x385D	; 0x80385d <NVM::nvm_eeprom_offset+0x2>
     acc:	b0 91 5e 38 	lds	r27, 0x385E	; 0x80385e <NVM::nvm_eeprom_offset+0x3>
     ad0:	c8 0e       	add	r12, r24
     ad2:	d9 1e       	adc	r13, r25
/Users/askn/Documents/Zinnia-tools/Products/hardware/UPDI4AVR/libraries/UPDI4AVR/examples/UPDI4AVR_FW753B/src/NVM.cpp:226
        /* megaAVR/tinyAVR is EEPROM */
        /* この系統は EEPROM として実装されている */
      }
    }
  }
  if (bit_is_set(UPDI_NVMCTRL, UPDI::UPDI_GEN3_bp))
     ad4:	ea 1e       	adc	r14, r26
     ad6:	fb 1e       	adc	r15, r27
/Users/askn/Documents/Zinnia-tools/Products/hardware/UPDI4AVR/libraries/UPDI4AVR/examples/UPDI4AVR_FW753B/src/NVM.cpp:403
  return NVM::nvm_ctrl_v2(NVM::NVM_V2_CMD_NOCMD);
}

/* NVMCTRL v3 */
bool NVM::write_eeprom_v3 (uint32_t start_addr, size_t byte_count) {
  if (byte_count == 0 || byte_count > 256) return false;
     ad8:	c8 01       	movw	r24, r16
     ada:	01 97       	sbiw	r24, 0x01	; 1
     adc:	ea 9b       	sbis	0x1d, 2	; 29
     ade:	b2 c1       	rjmp	.+868    	; 0xe44 <UPDI::runtime(unsigned char)+0x55e>
write_eeprom_v3():
     ae0:	8f 3f       	cpi	r24, 0xFF	; 255
/Users/askn/Documents/Zinnia-tools/Products/hardware/UPDI4AVR/libraries/UPDI4AVR/examples/UPDI4AVR_FW753B/src/NVM.cpp:405

  if (!NVM::nvm_ctrl_v3(NVM::NVM_V3_CMD_NOCMD)) return false;
     ae2:	91 05       	cpc	r25, r1
     ae4:	11 f0       	breq	.+4      	; 0xaea <UPDI::runtime(unsigned char)+0x204>
     ae6:	08 f0       	brcs	.+2      	; 0xaea <UPDI::runtime(unsigned char)+0x204>
     ae8:	39 c0       	rjmp	.+114    	; 0xb5c <UPDI::runtime(unsigned char)+0x276>
     aea:	80 e0       	ldi	r24, 0x00	; 0
/Users/askn/Documents/Zinnia-tools/Products/hardware/UPDI4AVR/libraries/UPDI4AVR/examples/UPDI4AVR_FW753B/src/NVM.cpp:408

  /* setting register pointer */
  _CAPS32(set_ptr[2])->dword = start_addr;
     aec:	f3 dd       	rcall	.-1050   	; 0x6d4 <NVM::nvm_ctrl_v3(unsigned char)>
     aee:	88 23       	and	r24, r24
     af0:	a9 f1       	breq	.+106    	; 0xb5c <UPDI::runtime(unsigned char)+0x276>
     af2:	c0 92 2d 38 	sts	0x382D, r12	; 0x80382d <NVM::set_ptr+0x2>
     af6:	d0 92 2e 38 	sts	0x382E, r13	; 0x80382e <NVM::set_ptr+0x3>
     afa:	e0 92 2f 38 	sts	0x382F, r14	; 0x80382f <NVM::set_ptr+0x4>
/Users/askn/Documents/Zinnia-tools/Products/hardware/UPDI4AVR/libraries/UPDI4AVR/examples/UPDI4AVR_FW753B/src/NVM.cpp:409
  set_repeat[2] = (uint8_t)byte_count - 1;
     afe:	f0 92 30 38 	sts	0x3830, r15	; 0x803830 <NVM::set_ptr+0x5>
/Users/askn/Documents/Zinnia-tools/Products/hardware/UPDI4AVR/libraries/UPDI4AVR/examples/UPDI4AVR_FW753B/src/NVM.cpp:410
  if (!UPDI::send_bytes(set_ptr, sizeof(set_ptr) - 1)) return false;
     b02:	8f ef       	ldi	r24, 0xFF	; 255
     b04:	80 0f       	add	r24, r16
     b06:	80 93 28 38 	sts	0x3828, r24	; 0x803828 <NVM::set_repeat+0x2>
     b0a:	65 e0       	ldi	r22, 0x05	; 5
     b0c:	70 e0       	ldi	r23, 0x00	; 0
     b0e:	8b e2       	ldi	r24, 0x2B	; 43
/Users/askn/Documents/Zinnia-tools/Products/hardware/UPDI4AVR/libraries/UPDI4AVR/examples/UPDI4AVR_FW753B/src/NVM.cpp:411
  if (UPDI::UPDI_ACK != UPDI::RECV()) return false;
     b10:	98 e3       	ldi	r25, 0x38	; 56
     b12:	1f db       	rcall	.-2498   	; 0x152 <UPDI::send_bytes(unsigned char const*, unsigned int)>
     b14:	88 23       	and	r24, r24
     b16:	11 f1       	breq	.+68     	; 0xb5c <UPDI::runtime(unsigned char)+0x276>
/Users/askn/Documents/Zinnia-tools/Products/hardware/UPDI4AVR/libraries/UPDI4AVR/examples/UPDI4AVR_FW753B/src/NVM.cpp:412
  if (!UPDI::send_bytes(set_repeat, sizeof(set_repeat))) return false;
     b18:	f8 da       	rcall	.-2576   	; 0x10a <UPDI::RECV()>
     b1a:	80 34       	cpi	r24, 0x40	; 64
     b1c:	f9 f4       	brne	.+62     	; 0xb5c <UPDI::runtime(unsigned char)+0x276>
     b1e:	65 e0       	ldi	r22, 0x05	; 5
     b20:	70 e0       	ldi	r23, 0x00	; 0
     b22:	86 e2       	ldi	r24, 0x26	; 38
     b24:	98 e3       	ldi	r25, 0x38	; 56
     b26:	15 db       	rcall	.-2518   	; 0x152 <UPDI::send_bytes(unsigned char const*, unsigned int)>
     b28:	88 23       	and	r24, r24
     b2a:	c1 f0       	breq	.+48     	; 0xb5c <UPDI::runtime(unsigned char)+0x276>
/Users/askn/Documents/Zinnia-tools/Products/hardware/UPDI4AVR/libraries/UPDI4AVR/examples/UPDI4AVR_FW753B/src/NVM.cpp:417

  /* page buffer stored */
  uint8_t* p = &JTAG2::packet.body[10];
  do {
    if (!UPDI::SEND(*p++)) return false;
     b2c:	21 e7       	ldi	r18, 0x71	; 113
     b2e:	e2 2e       	mov	r14, r18
     b30:	28 e3       	ldi	r18, 0x38	; 56
     b32:	f2 2e       	mov	r15, r18
     b34:	f7 01       	movw	r30, r14
     b36:	81 91       	ld	r24, Z+
     b38:	7f 01       	movw	r14, r30
/Users/askn/Documents/Zinnia-tools/Products/hardware/UPDI4AVR/libraries/UPDI4AVR/examples/UPDI4AVR_FW753B/src/NVM.cpp:418
    if (UPDI::UPDI_ACK != UPDI::RECV()) return false;
     b3a:	f3 da       	rcall	.-2586   	; 0x122 <UPDI::SEND(unsigned char)>
     b3c:	88 23       	and	r24, r24
     b3e:	71 f0       	breq	.+28     	; 0xb5c <UPDI::runtime(unsigned char)+0x276>
     b40:	e4 da       	rcall	.-2616   	; 0x10a <UPDI::RECV()>
/Users/askn/Documents/Zinnia-tools/Products/hardware/UPDI4AVR/libraries/UPDI4AVR/examples/UPDI4AVR_FW753B/src/NVM.cpp:419
  } while (--byte_count);
     b42:	80 34       	cpi	r24, 0x40	; 64
     b44:	59 f4       	brne	.+22     	; 0xb5c <UPDI::runtime(unsigned char)+0x276>
     b46:	01 50       	subi	r16, 0x01	; 1
/Users/askn/Documents/Zinnia-tools/Products/hardware/UPDI4AVR/libraries/UPDI4AVR/examples/UPDI4AVR_FW753B/src/NVM.cpp:421

  return NVM::nvm_ctrl_v3(NVM::NVM_V3_CMD_EEPERW);
     b48:	11 09       	sbc	r17, r1
     b4a:	a1 f7       	brne	.-24     	; 0xb34 <UPDI::runtime(unsigned char)+0x24e>
/Users/askn/Documents/Zinnia-tools/Products/hardware/UPDI4AVR/libraries/UPDI4AVR/examples/UPDI4AVR_FW753B/src/NVM.cpp:107
  uint32_t start_addr = _CAPS32(JTAG2::packet.body[6])->dword;
  /* 奇数量なら絶対アドレス（データ長は常に1） */
  /* 偶数量なら間接アドレス指定 */
  /* Flash領域は常に偶数量 */
  if (byte_count >= 2) {
    switch (mem_type) {
     b4c:	85 e1       	ldi	r24, 0x15	; 21
     b4e:	cf c0       	rjmp	.+414    	; 0xcee <UPDI::runtime(unsigned char)+0x408>
write_memory():
     b50:	84 3c       	cpi	r24, 0xC4	; 196
     b52:	09 f4       	brne	.+2      	; 0xb56 <UPDI::runtime(unsigned char)+0x270>
/Users/askn/Documents/Zinnia-tools/Products/hardware/UPDI4AVR/libraries/UPDI4AVR/examples/UPDI4AVR_FW753B/src/UPDI.cpp:445
        _result = NVM::write_memory();
     b54:	b5 cf       	rjmp	.-150    	; 0xac0 <UPDI::runtime(unsigned char)+0x1da>
/Users/askn/Documents/Zinnia-tools/Products/hardware/UPDI4AVR/libraries/UPDI4AVR/examples/UPDI4AVR_FW753B/src/UPDI.cpp:461
        _result = UPDI::Target_Reset(true) && UPDI::Target_Reset(false);
        break;
      }
    }
  }
  TIM::Timeout_Stop();
     b56:	85 3c       	cpi	r24, 0xC5	; 197
     b58:	09 f4       	brne	.+2      	; 0xb5c <UPDI::runtime(unsigned char)+0x276>
/Users/askn/Documents/Zinnia-tools/Products/hardware/UPDI4AVR/libraries/UPDI4AVR/examples/UPDI4AVR_FW753B/src/UPDI.cpp:462
  UPDI_USART.CTRLB = UPDI_USART_ON;
     b5a:	7f c0       	rjmp	.+254    	; 0xc5a <UPDI::runtime(unsigned char)+0x374>
_ZN4UPDI7runtimeEh():
     b5c:	bd 82       	std	Y+5, r11	; 0x05
     b5e:	1c dc       	rcall	.-1992   	; 0x398 <TIM::Timeout_Stop()>
/Users/askn/Documents/Zinnia-tools/Products/hardware/UPDI4AVR/libraries/UPDI4AVR/examples/UPDI4AVR_FW753B/src/UPDI.cpp:464
  wdt_reset();
  return _result;
     b60:	88 ec       	ldi	r24, 0xC8	; 200
/Users/askn/Documents/Zinnia-tools/Products/hardware/UPDI4AVR/libraries/UPDI4AVR/examples/UPDI4AVR_FW753B/src/UPDI.cpp:465
}
     b62:	80 93 06 08 	sts	0x0806, r24	; 0x800806 <UPDI::nvmprog_key+0x7f7068>
     b66:	a8 95       	wdr
     b68:	8d 81       	ldd	r24, Y+5	; 0x05
     b6a:	26 96       	adiw	r28, 0x06	; 6
     b6c:	cd bf       	out	0x3d, r28	; 61
     b6e:	de bf       	out	0x3e, r29	; 62
     b70:	df 91       	pop	r29
     b72:	cf 91       	pop	r28
     b74:	1f 91       	pop	r17
     b76:	0f 91       	pop	r16
/Users/askn/Documents/Zinnia-tools/Products/hardware/UPDI4AVR/libraries/UPDI4AVR/examples/UPDI4AVR_FW753B/src/NVM.cpp:112
      /* Flash 領域 */
      /* 奇数量指定は Data領域絶対アドレス指定になる */
      case JTAG2::MTYPE_XMEGA_FLASH :   // 0xC0
      case JTAG2::MTYPE_BOOT_FLASH : {  // 0xC1
        start_addr += NVM::nvm_flash_offset;
     b78:	ff 90       	pop	r15
     b7a:	ef 90       	pop	r14
     b7c:	df 90       	pop	r13
     b7e:	cf 90       	pop	r12
     b80:	bf 90       	pop	r11
     b82:	08 95       	ret
write_memory():
     b84:	80 91 51 38 	lds	r24, 0x3851	; 0x803851 <NVM::nvm_flash_offset>
     b88:	90 91 52 38 	lds	r25, 0x3852	; 0x803852 <NVM::nvm_flash_offset+0x1>
     b8c:	a0 91 53 38 	lds	r26, 0x3853	; 0x803853 <NVM::nvm_flash_offset+0x2>
/Users/askn/Documents/Zinnia-tools/Products/hardware/UPDI4AVR/libraries/UPDI4AVR/examples/UPDI4AVR_FW753B/src/NVM.cpp:113
        if (bit_is_set(UPDI_NVMCTRL, UPDI::UPDI_GEN3_bp))
     b90:	b0 91 54 38 	lds	r27, 0x3854	; 0x803854 <NVM::nvm_flash_offset+0x3>
/Users/askn/Documents/Zinnia-tools/Products/hardware/UPDI4AVR/libraries/UPDI4AVR/examples/UPDI4AVR_FW753B/src/NVM.cpp:139
          /* 書く前にページ消去 */
            NVM::nvm_wait_v3();
          if (!UPDI::st8(start_addr, 0xFF)) return false;
          if (!NVM::nvm_ctrl_v3(NVM::NVM_V2_CMD_FLPER)) return false;
          UPDI_CONTROL |= _BV(UPDI::UPDI_ERFM_bp);
          return NVM::write_flash_v3(start_addr, byte_count);
     b94:	c8 0e       	add	r12, r24
     b96:	d9 1e       	adc	r13, r25
     b98:	ea 1e       	adc	r14, r26
     b9a:	fb 1e       	adc	r15, r27
/Users/askn/Documents/Zinnia-tools/Products/hardware/UPDI4AVR/libraries/UPDI4AVR/examples/UPDI4AVR_FW753B/src/NVM.cpp:115
      case JTAG2::MTYPE_XMEGA_FLASH :   // 0xC0
      case JTAG2::MTYPE_BOOT_FLASH : {  // 0xC1
        start_addr += NVM::nvm_flash_offset;
        if (bit_is_set(UPDI_NVMCTRL, UPDI::UPDI_GEN3_bp))
          return NVM::write_flash_v3(start_addr, byte_count);
        if (bit_is_set(UPDI_NVMCTRL, UPDI::UPDI_GEN2_bp))
     b9c:	ea 9b       	sbis	0x1d, 2	; 29
/Users/askn/Documents/Zinnia-tools/Products/hardware/UPDI4AVR/libraries/UPDI4AVR/examples/UPDI4AVR_FW753B/src/NVM.cpp:116
          return NVM::write_flash_v2(start_addr, byte_count);
     b9e:	05 c0       	rjmp	.+10     	; 0xbaa <UPDI::runtime(unsigned char)+0x2c4>
     ba0:	a8 01       	movw	r20, r16
     ba2:	c7 01       	movw	r24, r14
     ba4:	b6 01       	movw	r22, r12
     ba6:	9c dd       	rcall	.-1224   	; 0x6e0 <NVM::write_flash_v3(unsigned long, unsigned int)>
     ba8:	06 c0       	rjmp	.+12     	; 0xbb6 <UPDI::runtime(unsigned char)+0x2d0>
     baa:	e9 9b       	sbis	0x1d, 1	; 29
/Users/askn/Documents/Zinnia-tools/Products/hardware/UPDI4AVR/libraries/UPDI4AVR/examples/UPDI4AVR_FW753B/src/NVM.cpp:430
 * Flash領域ワード書込
 */

/* NVMCTRL v0 */
bool NVM::write_flash (uint32_t start_addr, size_t byte_count) {
  byte_count >>= 1;
     bac:	06 c0       	rjmp	.+12     	; 0xbba <UPDI::runtime(unsigned char)+0x2d4>
     bae:	a8 01       	movw	r20, r16
/Users/askn/Documents/Zinnia-tools/Products/hardware/UPDI4AVR/libraries/UPDI4AVR/examples/UPDI4AVR_FW753B/src/NVM.cpp:431
  if (byte_count == 0 || byte_count > 256) return false;
     bb0:	c7 01       	movw	r24, r14
     bb2:	b6 01       	movw	r22, r12
     bb4:	21 de       	rcall	.-958    	; 0x7f8 <NVM::write_flash_v2(unsigned long, unsigned int)>
     bb6:	b8 2e       	mov	r11, r24
     bb8:	d1 cf       	rjmp	.-94     	; 0xb5c <UPDI::runtime(unsigned char)+0x276>
write_flash():
/Users/askn/Documents/Zinnia-tools/Products/hardware/UPDI4AVR/libraries/UPDI4AVR/examples/UPDI4AVR_FW753B/src/NVM.cpp:435

  /* この系統ではページ消去を書込と同時に行える */
  /* NVMCTRL page buffer clear */
  NVM::nvm_wait();
     bba:	16 95       	lsr	r17
     bbc:	07 95       	ror	r16
/Users/askn/Documents/Zinnia-tools/Products/hardware/UPDI4AVR/libraries/UPDI4AVR/examples/UPDI4AVR_FW753B/src/NVM.cpp:436
  if (!NVM::nvm_ctrl(NVM::NVM_CMD_PBC)) return false;
     bbe:	c8 01       	movw	r24, r16
     bc0:	01 97       	sbiw	r24, 0x01	; 1
     bc2:	8f 3f       	cpi	r24, 0xFF	; 255
     bc4:	91 05       	cpc	r25, r1
     bc6:	09 f0       	breq	.+2      	; 0xbca <UPDI::runtime(unsigned char)+0x2e4>
/Users/askn/Documents/Zinnia-tools/Products/hardware/UPDI4AVR/libraries/UPDI4AVR/examples/UPDI4AVR_FW753B/src/NVM.cpp:437
  NVM::nvm_wait();
     bc8:	48 f6       	brcc	.-110    	; 0xb5c <UPDI::runtime(unsigned char)+0x276>
/Users/askn/Documents/Zinnia-tools/Products/hardware/UPDI4AVR/libraries/UPDI4AVR/examples/UPDI4AVR_FW753B/src/NVM.cpp:440

  /* setting register pointer and enable RSD mode */
  _CAPS32(set_ptr[2])->dword = start_addr;
     bca:	02 de       	rcall	.-1020   	; 0x7d0 <NVM::nvm_wait()>
     bcc:	84 e0       	ldi	r24, 0x04	; 4
     bce:	f7 db       	rcall	.-2066   	; 0x3be <NVM::nvm_ctrl(unsigned char)>
     bd0:	88 23       	and	r24, r24
     bd2:	09 f4       	brne	.+2      	; 0xbd6 <UPDI::runtime(unsigned char)+0x2f0>
     bd4:	c3 cf       	rjmp	.-122    	; 0xb5c <UPDI::runtime(unsigned char)+0x276>
     bd6:	fc dd       	rcall	.-1032   	; 0x7d0 <NVM::nvm_wait()>
/Users/askn/Documents/Zinnia-tools/Products/hardware/UPDI4AVR/libraries/UPDI4AVR/examples/UPDI4AVR_FW753B/src/NVM.cpp:441
  set_repeat_rsd[5] = byte_count - 1;
     bd8:	c0 92 2d 38 	sts	0x382D, r12	; 0x80382d <NVM::set_ptr+0x2>
     bdc:	d0 92 2e 38 	sts	0x382E, r13	; 0x80382e <NVM::set_ptr+0x3>
/Users/askn/Documents/Zinnia-tools/Products/hardware/UPDI4AVR/libraries/UPDI4AVR/examples/UPDI4AVR_FW753B/src/NVM.cpp:442
  if (!UPDI::send_bytes(set_ptr, sizeof(set_ptr) - 1)) return false;
     be0:	e0 92 2f 38 	sts	0x382F, r14	; 0x80382f <NVM::set_ptr+0x4>
     be4:	f0 92 30 38 	sts	0x3830, r15	; 0x803830 <NVM::set_ptr+0x5>
     be8:	8f ef       	ldi	r24, 0xFF	; 255
     bea:	80 0f       	add	r24, r16
     bec:	80 93 23 38 	sts	0x3823, r24	; 0x803823 <NVM::set_repeat_rsd+0x5>
/Users/askn/Documents/Zinnia-tools/Products/hardware/UPDI4AVR/libraries/UPDI4AVR/examples/UPDI4AVR_FW753B/src/NVM.cpp:443
  if (UPDI::UPDI_ACK != UPDI::RECV()) return false;
     bf0:	65 e0       	ldi	r22, 0x05	; 5
     bf2:	70 e0       	ldi	r23, 0x00	; 0
     bf4:	8b e2       	ldi	r24, 0x2B	; 43
     bf6:	98 e3       	ldi	r25, 0x38	; 56
     bf8:	ac da       	rcall	.-2728   	; 0x152 <UPDI::send_bytes(unsigned char const*, unsigned int)>
/Users/askn/Documents/Zinnia-tools/Products/hardware/UPDI4AVR/libraries/UPDI4AVR/examples/UPDI4AVR_FW753B/src/NVM.cpp:444
  if (!UPDI::send_bytes(set_repeat_rsd, sizeof(set_repeat_rsd))) return false;
     bfa:	88 23       	and	r24, r24
     bfc:	09 f4       	brne	.+2      	; 0xc00 <UPDI::runtime(unsigned char)+0x31a>
     bfe:	ae cf       	rjmp	.-164    	; 0xb5c <UPDI::runtime(unsigned char)+0x276>
     c00:	84 da       	rcall	.-2808   	; 0x10a <UPDI::RECV()>
     c02:	80 34       	cpi	r24, 0x40	; 64
     c04:	09 f0       	breq	.+2      	; 0xc08 <UPDI::runtime(unsigned char)+0x322>
     c06:	aa cf       	rjmp	.-172    	; 0xb5c <UPDI::runtime(unsigned char)+0x276>
     c08:	68 e0       	ldi	r22, 0x08	; 8
     c0a:	70 e0       	ldi	r23, 0x00	; 0
     c0c:	8e e1       	ldi	r24, 0x1E	; 30
     c0e:	98 e3       	ldi	r25, 0x38	; 56
     c10:	a0 da       	rcall	.-2752   	; 0x152 <UPDI::send_bytes(unsigned char const*, unsigned int)>
     c12:	88 23       	and	r24, r24
/Users/askn/Documents/Zinnia-tools/Products/hardware/UPDI4AVR/libraries/UPDI4AVR/examples/UPDI4AVR_FW753B/src/NVM.cpp:449

  /* page buffer stored */
  uint8_t* p = &JTAG2::packet.body[10];
  do {
    UPDI::SEND(*p++);
     c14:	09 f4       	brne	.+2      	; 0xc18 <UPDI::runtime(unsigned char)+0x332>
     c16:	a2 cf       	rjmp	.-188    	; 0xb5c <UPDI::runtime(unsigned char)+0x276>
     c18:	3f e5       	ldi	r19, 0x5F	; 95
/Users/askn/Documents/Zinnia-tools/Products/hardware/UPDI4AVR/libraries/UPDI4AVR/examples/UPDI4AVR_FW753B/src/NVM.cpp:450
    UPDI::SEND(*p++);
     c1a:	e3 2e       	mov	r14, r19
     c1c:	38 e3       	ldi	r19, 0x38	; 56
     c1e:	f3 2e       	mov	r15, r19
/Users/askn/Documents/Zinnia-tools/Products/hardware/UPDI4AVR/libraries/UPDI4AVR/examples/UPDI4AVR_FW753B/src/NVM.cpp:451
  } while (--byte_count);
     c20:	f7 01       	movw	r30, r14
     c22:	82 89       	ldd	r24, Z+18	; 0x12
     c24:	7e da       	rcall	.-2820   	; 0x122 <UPDI::SEND(unsigned char)>
     c26:	f7 01       	movw	r30, r14
     c28:	83 89       	ldd	r24, Z+19	; 0x13
     c2a:	7b da       	rcall	.-2826   	; 0x122 <UPDI::SEND(unsigned char)>
     c2c:	01 50       	subi	r16, 0x01	; 1
/Users/askn/Library/Arduino15/packages/MultiX-Zinnia/hardware/UPDI4AVR/0.2.0/cores/megaAVR/api/delay_busywait.h:31
     c2e:	11 09       	sbc	r17, r1
     c30:	f2 e0       	ldi	r31, 0x02	; 2
     c32:	ef 0e       	add	r14, r31
/Users/askn/Documents/Zinnia-tools/Products/hardware/UPDI4AVR/libraries/UPDI4AVR/examples/UPDI4AVR_FW753B/src/NVM.cpp:455
  UPDI::guardtime();

  /* disable RSD mode */
  if (!UPDI::set_cs_ctra(UPDI::UPDI_SET_GTVAL_2)) return false;
     c34:	f1 1c       	adc	r15, r1
     c36:	01 15       	cp	r16, r1
     c38:	11 05       	cpc	r17, r1
     c3a:	91 f7       	brne	.-28     	; 0xc20 <UPDI::runtime(unsigned char)+0x33a>
delay_micros():
     c3c:	82 e9       	ldi	r24, 0x92	; 146
/Users/askn/Documents/Zinnia-tools/Products/hardware/UPDI4AVR/libraries/UPDI4AVR/examples/UPDI4AVR_FW753B/src/NVM.cpp:374
    if (!UPDI::SEND(*p++)) return false;
    if (UPDI::UPDI_ACK != UPDI::RECV()) return false;
  } while (--byte_count);

  /* NVMCTRL write page and complete */
  if (!NVM::nvm_ctrl(NVM::NVM_CMD_ERWP)) return false;
     c3e:	8a 95       	dec	r24
     c40:	f1 f7       	brne	.-4      	; 0xc3e <UPDI::runtime(unsigned char)+0x358>
     c42:	00 c0       	rjmp	.+0      	; 0xc44 <UPDI::runtime(unsigned char)+0x35e>
write_flash():
     c44:	a9 da       	rcall	.-2734   	; 0x198 <UPDI::set_cs_ctra(unsigned char) [clone .constprop.1]>
     c46:	88 23       	and	r24, r24
/Users/askn/Documents/Zinnia-tools/Products/hardware/UPDI4AVR/libraries/UPDI4AVR/examples/UPDI4AVR_FW753B/src/NVM.cpp:375
  return NVM::nvm_wait() == 0;
     c48:	09 f4       	brne	.+2      	; 0xc4c <UPDI::runtime(unsigned char)+0x366>
     c4a:	88 cf       	rjmp	.-240    	; 0xb5c <UPDI::runtime(unsigned char)+0x276>
write_eeprom():
     c4c:	83 e0       	ldi	r24, 0x03	; 3
/Users/askn/Documents/Zinnia-tools/Products/hardware/UPDI4AVR/libraries/UPDI4AVR/examples/UPDI4AVR_FW753B/src/NVM.cpp:128
        start_addr += NVM::nvm_eeprom_offset;
        break;
      }
      /* USERROW/USERSIG 領域 */
      case JTAG2::MTYPE_USERSIG : {     // 0xC5
        start_addr += NVM::nvm_user_sig_offset;
     c4e:	b7 db       	rcall	.-2194   	; 0x3be <NVM::nvm_ctrl(unsigned char)>
     c50:	88 23       	and	r24, r24
     c52:	09 f4       	brne	.+2      	; 0xc56 <UPDI::runtime(unsigned char)+0x370>
     c54:	83 cf       	rjmp	.-250    	; 0xb5c <UPDI::runtime(unsigned char)+0x276>
     c56:	bc dd       	rcall	.-1160   	; 0x7d0 <NVM::nvm_wait()>
     c58:	b0 c0       	rjmp	.+352    	; 0xdba <UPDI::runtime(unsigned char)+0x4d4>
write_memory():
     c5a:	80 91 57 38 	lds	r24, 0x3857	; 0x803857 <NVM::nvm_user_sig_offset>
     c5e:	90 91 58 38 	lds	r25, 0x3858	; 0x803858 <NVM::nvm_user_sig_offset+0x1>
     c62:	a0 91 59 38 	lds	r26, 0x3859	; 0x803859 <NVM::nvm_user_sig_offset+0x2>
/Users/askn/Documents/Zinnia-tools/Products/hardware/UPDI4AVR/libraries/UPDI4AVR/examples/UPDI4AVR_FW753B/src/NVM.cpp:133
        /* AVR_DA/DB/DD/EA is Flash */
        /* この系統は Flash として実装されている */

        /* NVMCTRL v3 */
        if (bit_is_set(UPDI_NVMCTRL, UPDI::UPDI_GEN3_bp)) {
     c66:	b0 91 5a 38 	lds	r27, 0x385A	; 0x80385a <NVM::nvm_user_sig_offset+0x3>
/Users/askn/Documents/Zinnia-tools/Products/hardware/UPDI4AVR/libraries/UPDI4AVR/examples/UPDI4AVR_FW753B/src/NVM.cpp:135
          /* 書く前にページ消去 */
            NVM::nvm_wait_v3();
     c6a:	c8 0e       	add	r12, r24
/Users/askn/Documents/Zinnia-tools/Products/hardware/UPDI4AVR/libraries/UPDI4AVR/examples/UPDI4AVR_FW753B/src/NVM.cpp:136
          if (!UPDI::st8(start_addr, 0xFF)) return false;
     c6c:	d9 1e       	adc	r13, r25
     c6e:	ea 1e       	adc	r14, r26
     c70:	fb 1e       	adc	r15, r27
     c72:	ea 9b       	sbis	0x1d, 2	; 29
     c74:	0f c0       	rjmp	.+30     	; 0xc94 <UPDI::runtime(unsigned char)+0x3ae>
     c76:	20 dd       	rcall	.-1472   	; 0x6b8 <NVM::nvm_wait_v3()>
     c78:	4f ef       	ldi	r20, 0xFF	; 255
/Users/askn/Documents/Zinnia-tools/Products/hardware/UPDI4AVR/libraries/UPDI4AVR/examples/UPDI4AVR_FW753B/src/NVM.cpp:137
          if (!NVM::nvm_ctrl_v3(NVM::NVM_V2_CMD_FLPER)) return false;
     c7a:	c7 01       	movw	r24, r14
     c7c:	b6 01       	movw	r22, r12
     c7e:	d9 da       	rcall	.-2638   	; 0x232 <UPDI::st8(unsigned long, unsigned char)>
     c80:	88 23       	and	r24, r24
     c82:	09 f4       	brne	.+2      	; 0xc86 <UPDI::runtime(unsigned char)+0x3a0>
/Users/askn/Documents/Zinnia-tools/Products/hardware/UPDI4AVR/libraries/UPDI4AVR/examples/UPDI4AVR_FW753B/src/NVM.cpp:138
          UPDI_CONTROL |= _BV(UPDI::UPDI_ERFM_bp);
     c84:	6b cf       	rjmp	.-298    	; 0xb5c <UPDI::runtime(unsigned char)+0x276>
/Users/askn/Documents/Zinnia-tools/Products/hardware/UPDI4AVR/libraries/UPDI4AVR/examples/UPDI4AVR_FW753B/src/NVM.cpp:143
          return NVM::write_flash_v3(start_addr, byte_count);
        }

        /* NVMCTRL v2 */
        if (bit_is_set(UPDI_NVMCTRL, UPDI::UPDI_GEN2_bp)) {
     c86:	88 e0       	ldi	r24, 0x08	; 8
     c88:	25 dd       	rcall	.-1462   	; 0x6d4 <NVM::nvm_ctrl_v3(unsigned char)>
/Users/askn/Documents/Zinnia-tools/Products/hardware/UPDI4AVR/libraries/UPDI4AVR/examples/UPDI4AVR_FW753B/src/NVM.cpp:145
          /* 書く前にページ消去 */
          if (!NVM::nvm_ctrl_v2(NVM::NVM_V2_CMD_FLPER)) return false;
     c8a:	88 23       	and	r24, r24
     c8c:	09 f4       	brne	.+2      	; 0xc90 <UPDI::runtime(unsigned char)+0x3aa>
     c8e:	66 cf       	rjmp	.-308    	; 0xb5c <UPDI::runtime(unsigned char)+0x276>
     c90:	e2 9a       	sbi	0x1c, 2	; 28
     c92:	86 cf       	rjmp	.-244    	; 0xba0 <UPDI::runtime(unsigned char)+0x2ba>
/Users/askn/Documents/Zinnia-tools/Products/hardware/UPDI4AVR/libraries/UPDI4AVR/examples/UPDI4AVR_FW753B/src/NVM.cpp:146
          if (!UPDI::st8(start_addr, 0xFF)) return false;
     c94:	e9 9b       	sbis	0x1d, 1	; 29
     c96:	20 cf       	rjmp	.-448    	; 0xad8 <UPDI::runtime(unsigned char)+0x1f2>
     c98:	88 e0       	ldi	r24, 0x08	; 8
     c9a:	a8 dd       	rcall	.-1200   	; 0x7ec <NVM::nvm_ctrl_v2(unsigned char)>
     c9c:	88 23       	and	r24, r24
     c9e:	09 f4       	brne	.+2      	; 0xca2 <UPDI::runtime(unsigned char)+0x3bc>
     ca0:	5d cf       	rjmp	.-326    	; 0xb5c <UPDI::runtime(unsigned char)+0x276>
/Users/askn/Documents/Zinnia-tools/Products/hardware/UPDI4AVR/libraries/UPDI4AVR/examples/UPDI4AVR_FW753B/src/NVM.cpp:147
          UPDI_CONTROL |= _BV(UPDI::UPDI_ERFM_bp);
     ca2:	4f ef       	ldi	r20, 0xFF	; 255
     ca4:	c7 01       	movw	r24, r14
/Users/askn/Documents/Zinnia-tools/Products/hardware/UPDI4AVR/libraries/UPDI4AVR/examples/UPDI4AVR_FW753B/src/NVM.cpp:158
      }
      default : return false;
    }
  }
  else {
    switch (mem_type) {
     ca6:	b6 01       	movw	r22, r12
     ca8:	c4 da       	rcall	.-2680   	; 0x232 <UPDI::st8(unsigned long, unsigned char)>
     caa:	88 23       	and	r24, r24
     cac:	09 f4       	brne	.+2      	; 0xcb0 <UPDI::runtime(unsigned char)+0x3ca>
     cae:	56 cf       	rjmp	.-340    	; 0xb5c <UPDI::runtime(unsigned char)+0x276>
     cb0:	e2 9a       	sbi	0x1c, 2	; 28
     cb2:	7d cf       	rjmp	.-262    	; 0xbae <UPDI::runtime(unsigned char)+0x2c8>
     cb4:	82 3b       	cpi	r24, 0xB2	; 178
/Users/askn/Documents/Zinnia-tools/Products/hardware/UPDI4AVR/libraries/UPDI4AVR/examples/UPDI4AVR_FW753B/src/NVM.cpp:176
        /* ここは terminal mode の場合のみ通過するはず */
        /* AVR_DA/DB/DD/EA is Flash */
        /* この系統は Flash として実装されている */

        /* NVMCTRL v3 */
        if (bit_is_set(UPDI_NVMCTRL, UPDI::UPDI_GEN3_bp)) {
     cb6:	08 f4       	brcc	.+2      	; 0xcba <UPDI::runtime(unsigned char)+0x3d4>
     cb8:	0f cf       	rjmp	.-482    	; 0xad8 <UPDI::runtime(unsigned char)+0x1f2>
/Users/askn/Documents/Zinnia-tools/Products/hardware/UPDI4AVR/libraries/UPDI4AVR/examples/UPDI4AVR_FW753B/src/NVM.cpp:178
          /* アドレス先頭かつ0xFF書込ならページ消去 */
          if (((uint8_t)start_addr & 63) == 0 && JTAG2::packet.body[10] == 0xFF) {
     cba:	84 3b       	cpi	r24, 0xB4	; 180
     cbc:	d0 f0       	brcs	.+52     	; 0xcf2 <UPDI::runtime(unsigned char)+0x40c>
     cbe:	85 3c       	cpi	r24, 0xC5	; 197
     cc0:	09 f0       	breq	.+2      	; 0xcc4 <UPDI::runtime(unsigned char)+0x3de>
     cc2:	0a cf       	rjmp	.-492    	; 0xad8 <UPDI::runtime(unsigned char)+0x1f2>
     cc4:	ea 9b       	sbis	0x1d, 2	; 29
     cc6:	95 c0       	rjmp	.+298    	; 0xdf2 <UPDI::runtime(unsigned char)+0x50c>
     cc8:	8c 2d       	mov	r24, r12
/Users/askn/Documents/Zinnia-tools/Products/hardware/UPDI4AVR/libraries/UPDI4AVR/examples/UPDI4AVR_FW753B/src/NVM.cpp:179
            NVM::nvm_wait_v3();
     cca:	9c 2d       	mov	r25, r12
     ccc:	9f 73       	andi	r25, 0x3F	; 63
/Users/askn/Documents/Zinnia-tools/Products/hardware/UPDI4AVR/libraries/UPDI4AVR/examples/UPDI4AVR_FW753B/src/NVM.cpp:180
            if (!UPDI::st8(start_addr, 0xFF)) return false;
     cce:	09 f0       	breq	.+2      	; 0xcd2 <UPDI::runtime(unsigned char)+0x3ec>
     cd0:	7b c0       	rjmp	.+246    	; 0xdc8 <UPDI::runtime(unsigned char)+0x4e2>
     cd2:	90 91 71 38 	lds	r25, 0x3871	; 0x803871 <JTAG2::packet+0x12>
     cd6:	9f 3f       	cpi	r25, 0xFF	; 255
     cd8:	09 f0       	breq	.+2      	; 0xcdc <UPDI::runtime(unsigned char)+0x3f6>
/Users/askn/Documents/Zinnia-tools/Products/hardware/UPDI4AVR/libraries/UPDI4AVR/examples/UPDI4AVR_FW753B/src/NVM.cpp:181
            if (!NVM::nvm_ctrl_v3(NVM::NVM_V3_CMD_FLPER)) return false;
     cda:	76 c0       	rjmp	.+236    	; 0xdc8 <UPDI::runtime(unsigned char)+0x4e2>
/Users/askn/Documents/Zinnia-tools/Products/hardware/UPDI4AVR/libraries/UPDI4AVR/examples/UPDI4AVR_FW753B/src/NVM.cpp:421
  do {
    if (!UPDI::SEND(*p++)) return false;
    if (UPDI::UPDI_ACK != UPDI::RECV()) return false;
  } while (--byte_count);

  return NVM::nvm_ctrl_v3(NVM::NVM_V3_CMD_EEPERW);
     cdc:	ed dc       	rcall	.-1574   	; 0x6b8 <NVM::nvm_wait_v3()>
     cde:	4f ef       	ldi	r20, 0xFF	; 255
     ce0:	c7 01       	movw	r24, r14
     ce2:	b6 01       	movw	r22, r12
     ce4:	a6 da       	rcall	.-2740   	; 0x232 <UPDI::st8(unsigned long, unsigned char)>
/Users/askn/Documents/Zinnia-tools/Products/hardware/UPDI4AVR/libraries/UPDI4AVR/examples/UPDI4AVR_FW753B/src/NVM.cpp:163
    switch (mem_type) {
      /* FUSES/LOCKBITS 領域 */
      /* 常に奇数量絶対アドレス指定の特殊書込 */
      case JTAG2::MTYPE_LOCK_BITS :     // 0xB3
      case JTAG2::MTYPE_FUSE_BITS : {   // 0xB2
        if (bit_is_set(UPDI_NVMCTRL, UPDI::UPDI_GEN3_bp))
     ce6:	88 23       	and	r24, r24
     ce8:	09 f4       	brne	.+2      	; 0xcec <UPDI::runtime(unsigned char)+0x406>
/Users/askn/Documents/Zinnia-tools/Products/hardware/UPDI4AVR/libraries/UPDI4AVR/examples/UPDI4AVR_FW753B/src/NVM.cpp:339
  return _r;
}

/* NVMCTRL v3 */
bool NVM::write_fuse_v3 (uint16_t addr, uint8_t data) {
  if (!NVM::nvm_ctrl_v2(NVM::NVM_V2_CMD_NOCMD)) return false;
     cea:	38 cf       	rjmp	.-400    	; 0xb5c <UPDI::runtime(unsigned char)+0x276>
     cec:	88 e0       	ldi	r24, 0x08	; 8
write_eeprom_v3():
     cee:	f2 dc       	rcall	.-1564   	; 0x6d4 <NVM::nvm_ctrl_v3(unsigned char)>
     cf0:	62 cf       	rjmp	.-316    	; 0xbb6 <UPDI::runtime(unsigned char)+0x2d0>
     cf2:	10 91 71 38 	lds	r17, 0x3871	; 0x803871 <JTAG2::packet+0x12>
write_memory():
/Users/askn/Documents/Zinnia-tools/Products/hardware/UPDI4AVR/libraries/UPDI4AVR/examples/UPDI4AVR_FW753B/src/NVM.cpp:340
  if (!UPDI::st8(addr, data)) return false;
     cf6:	ea 9b       	sbis	0x1d, 2	; 29
     cf8:	1a c0       	rjmp	.+52     	; 0xd2e <UPDI::runtime(unsigned char)+0x448>
write_fuse_v3():
     cfa:	80 e0       	ldi	r24, 0x00	; 0
     cfc:	77 dd       	rcall	.-1298   	; 0x7ec <NVM::nvm_ctrl_v2(unsigned char)>
     cfe:	88 23       	and	r24, r24
     d00:	09 f4       	brne	.+2      	; 0xd04 <UPDI::runtime(unsigned char)+0x41e>
     d02:	2c cf       	rjmp	.-424    	; 0xb5c <UPDI::runtime(unsigned char)+0x276>
     d04:	c7 01       	movw	r24, r14
     d06:	b6 01       	movw	r22, r12
     d08:	88 27       	eor	r24, r24
/Users/askn/Documents/Zinnia-tools/Products/hardware/UPDI4AVR/libraries/UPDI4AVR/examples/UPDI4AVR_FW753B/src/NVM.cpp:341
  bool _r = (NVM::nvm_wait_v3() & 0x70) == 0;
     d0a:	99 27       	eor	r25, r25
     d0c:	41 2f       	mov	r20, r17
     d0e:	91 da       	rcall	.-2782   	; 0x232 <UPDI::st8(unsigned long, unsigned char)>
     d10:	88 23       	and	r24, r24
     d12:	09 f4       	brne	.+2      	; 0xd16 <UPDI::runtime(unsigned char)+0x430>
     d14:	23 cf       	rjmp	.-442    	; 0xb5c <UPDI::runtime(unsigned char)+0x276>
/Users/askn/Documents/Zinnia-tools/Products/hardware/UPDI4AVR/libraries/UPDI4AVR/examples/UPDI4AVR_FW753B/src/NVM.cpp:342
  if (!NVM::nvm_ctrl_v3(NVM::NVM_V3_CMD_EEPERW)) return false;
     d16:	d0 dc       	rcall	.-1632   	; 0x6b8 <NVM::nvm_wait_v3()>
     d18:	80 77       	andi	r24, 0x70	; 112
     d1a:	11 e0       	ldi	r17, 0x01	; 1
/Users/askn/Documents/Zinnia-tools/Products/hardware/UPDI4AVR/libraries/UPDI4AVR/examples/UPDI4AVR_FW753B/src/NVM.cpp:333
/* NVMCTRL v2 */
bool NVM::write_fuse_v2 (uint16_t addr, uint8_t data) {
  if (!NVM::nvm_ctrl_v2(NVM::NVM_V2_CMD_EEERWR)) return false;
  if (!UPDI::st8(addr, data)) return false;
  bool _r = (NVM::nvm_wait() & 0x70) == 0;
  if (!NVM::nvm_ctrl_v2(NVM::NVM_V2_CMD_NOCMD)) return false;
     d1c:	09 f0       	breq	.+2      	; 0xd20 <UPDI::runtime(unsigned char)+0x43a>
     d1e:	10 e0       	ldi	r17, 0x00	; 0
     d20:	85 e1       	ldi	r24, 0x15	; 21
/Users/askn/Documents/Zinnia-tools/Products/hardware/UPDI4AVR/libraries/UPDI4AVR/examples/UPDI4AVR_FW753B/src/NVM.cpp:334
  return _r;
     d22:	d8 dc       	rcall	.-1616   	; 0x6d4 <NVM::nvm_ctrl_v3(unsigned char)>
write_fuse_v2():
/Users/askn/Documents/Zinnia-tools/Products/hardware/UPDI4AVR/libraries/UPDI4AVR/examples/UPDI4AVR_FW753B/src/NVM.cpp:165
      /* 常に奇数量絶対アドレス指定の特殊書込 */
      case JTAG2::MTYPE_LOCK_BITS :     // 0xB3
      case JTAG2::MTYPE_FUSE_BITS : {   // 0xB2
        if (bit_is_set(UPDI_NVMCTRL, UPDI::UPDI_GEN3_bp))
          return NVM::write_fuse_v3(start_addr, JTAG2::packet.body[10]);
        if (bit_is_set(UPDI_NVMCTRL, UPDI::UPDI_GEN2_bp))
     d24:	88 23       	and	r24, r24
     d26:	09 f4       	brne	.+2      	; 0xd2a <UPDI::runtime(unsigned char)+0x444>
/Users/askn/Documents/Zinnia-tools/Products/hardware/UPDI4AVR/libraries/UPDI4AVR/examples/UPDI4AVR_FW753B/src/NVM.cpp:330
  return ((NVM::nvm_wait() & 7) == 0);
}

/* NVMCTRL v2 */
bool NVM::write_fuse_v2 (uint16_t addr, uint8_t data) {
  if (!NVM::nvm_ctrl_v2(NVM::NVM_V2_CMD_EEERWR)) return false;
     d28:	19 cf       	rjmp	.-462    	; 0xb5c <UPDI::runtime(unsigned char)+0x276>
_ZN4UPDI7runtimeEh():
     d2a:	b1 2e       	mov	r11, r17
     d2c:	17 cf       	rjmp	.-466    	; 0xb5c <UPDI::runtime(unsigned char)+0x276>
write_memory():
     d2e:	e9 9b       	sbis	0x1d, 1	; 29
     d30:	16 c0       	rjmp	.+44     	; 0xd5e <UPDI::runtime(unsigned char)+0x478>
write_fuse_v2():
/Users/askn/Documents/Zinnia-tools/Products/hardware/UPDI4AVR/libraries/UPDI4AVR/examples/UPDI4AVR_FW753B/src/NVM.cpp:331
  if (!UPDI::st8(addr, data)) return false;
     d32:	83 e1       	ldi	r24, 0x13	; 19
     d34:	5b dd       	rcall	.-1354   	; 0x7ec <NVM::nvm_ctrl_v2(unsigned char)>
     d36:	88 23       	and	r24, r24
     d38:	09 f4       	brne	.+2      	; 0xd3c <UPDI::runtime(unsigned char)+0x456>
     d3a:	10 cf       	rjmp	.-480    	; 0xb5c <UPDI::runtime(unsigned char)+0x276>
     d3c:	c7 01       	movw	r24, r14
     d3e:	b6 01       	movw	r22, r12
     d40:	88 27       	eor	r24, r24
     d42:	99 27       	eor	r25, r25
     d44:	41 2f       	mov	r20, r17
/Users/askn/Documents/Zinnia-tools/Products/hardware/UPDI4AVR/libraries/UPDI4AVR/examples/UPDI4AVR_FW753B/src/NVM.cpp:332
  bool _r = (NVM::nvm_wait() & 0x70) == 0;
     d46:	75 da       	rcall	.-2838   	; 0x232 <UPDI::st8(unsigned long, unsigned char)>
     d48:	88 23       	and	r24, r24
     d4a:	09 f4       	brne	.+2      	; 0xd4e <UPDI::runtime(unsigned char)+0x468>
     d4c:	07 cf       	rjmp	.-498    	; 0xb5c <UPDI::runtime(unsigned char)+0x276>
     d4e:	40 dd       	rcall	.-1408   	; 0x7d0 <NVM::nvm_wait()>
     d50:	80 77       	andi	r24, 0x70	; 112
/Users/askn/Documents/Zinnia-tools/Products/hardware/UPDI4AVR/libraries/UPDI4AVR/examples/UPDI4AVR_FW753B/src/NVM.cpp:333
  if (!NVM::nvm_ctrl_v2(NVM::NVM_V2_CMD_NOCMD)) return false;
     d52:	11 e0       	ldi	r17, 0x01	; 1
     d54:	09 f0       	breq	.+2      	; 0xd58 <UPDI::runtime(unsigned char)+0x472>
     d56:	10 e0       	ldi	r17, 0x00	; 0
     d58:	80 e0       	ldi	r24, 0x00	; 0
/Users/askn/Documents/Zinnia-tools/Products/hardware/UPDI4AVR/libraries/UPDI4AVR/examples/UPDI4AVR_FW753B/src/NVM.cpp:319
 */

/* NVMCTRL v0 */
bool NVM::write_fuse (uint16_t addr, uint8_t data) {
  fuse_packet_t fuse_packet;
  fuse_packet.data = data;
     d5a:	48 dd       	rcall	.-1392   	; 0x7ec <NVM::nvm_ctrl_v2(unsigned char)>
     d5c:	e3 cf       	rjmp	.-58     	; 0xd24 <UPDI::runtime(unsigned char)+0x43e>
write_fuse():
     d5e:	41 2f       	mov	r20, r17
     d60:	50 e0       	ldi	r21, 0x00	; 0
/Users/askn/Documents/Zinnia-tools/Products/hardware/UPDI4AVR/libraries/UPDI4AVR/examples/UPDI4AVR_FW753B/src/NVM.cpp:167
      case JTAG2::MTYPE_FUSE_BITS : {   // 0xB2
        if (bit_is_set(UPDI_NVMCTRL, UPDI::UPDI_GEN3_bp))
          return NVM::write_fuse_v3(start_addr, JTAG2::packet.body[10]);
        if (bit_is_set(UPDI_NVMCTRL, UPDI::UPDI_GEN2_bp))
          return NVM::write_fuse_v2(start_addr, JTAG2::packet.body[10]);
        return NVM::write_fuse(start_addr, JTAG2::packet.body[10]);
     d62:	49 83       	std	Y+1, r20	; 0x01
     d64:	5a 83       	std	Y+2, r21	; 0x02
write_memory():
/Users/askn/Documents/Zinnia-tools/Products/hardware/UPDI4AVR/libraries/UPDI4AVR/examples/UPDI4AVR_FW753B/src/NVM.cpp:321
/* NVMCTRL v0 */
bool NVM::write_fuse (uint16_t addr, uint8_t data) {
  fuse_packet_t fuse_packet;
  fuse_packet.data = data;
  fuse_packet.addr = addr;
  NVM::nvm_wait();
     d66:	cb 82       	std	Y+3, r12	; 0x03
     d68:	dc 82       	std	Y+4, r13	; 0x04
write_fuse():
/Users/askn/Documents/Zinnia-tools/Products/hardware/UPDI4AVR/libraries/UPDI4AVR/examples/UPDI4AVR_FW753B/src/UPDI.cpp:165
/*
 * 複バイト送信
 */

bool UPDI::sts8 (uint32_t addr, uint8_t *data, size_t len) {
  if (UPDI::send_repeat_header((UPDI::UPDI_ST | UPDI::UPDI_DATA1), addr, len)) {
     d6a:	32 dd       	rcall	.-1436   	; 0x7d0 <NVM::nvm_wait()>
sts8():
     d6c:	24 e0       	ldi	r18, 0x04	; 4
     d6e:	30 e0       	ldi	r19, 0x00	; 0
     d70:	46 e0       	ldi	r20, 0x06	; 6
     d72:	50 e1       	ldi	r21, 0x10	; 16
     d74:	60 e0       	ldi	r22, 0x00	; 0
     d76:	70 e0       	ldi	r23, 0x00	; 0
     d78:	80 e6       	ldi	r24, 0x60	; 96
     d7a:	7c da       	rcall	.-2824   	; 0x274 <UPDI::send_repeat_header(unsigned char, unsigned long, unsigned int)>
     d7c:	88 23       	and	r24, r24
     d7e:	09 f4       	brne	.+2      	; 0xd82 <UPDI::runtime(unsigned char)+0x49c>
     d80:	ed ce       	rjmp	.-550    	; 0xb5c <UPDI::runtime(unsigned char)+0x276>
     d82:	8e 01       	movw	r16, r28
     d84:	0f 5f       	subi	r16, 0xFF	; 255
     d86:	1f 4f       	sbci	r17, 0xFF	; 255
     d88:	7e 01       	movw	r14, r28
     d8a:	95 e0       	ldi	r25, 0x05	; 5
     d8c:	e9 0e       	add	r14, r25
/Users/askn/Documents/Zinnia-tools/Products/hardware/UPDI4AVR/libraries/UPDI4AVR/examples/UPDI4AVR_FW753B/src/UPDI.cpp:167
    do {
      if (!UPDI::SEND(*data++)) break;
     d8e:	f1 1c       	adc	r15, r1
     d90:	f8 01       	movw	r30, r16
     d92:	81 91       	ld	r24, Z+
     d94:	8f 01       	movw	r16, r30
     d96:	c5 d9       	rcall	.-3190   	; 0x122 <UPDI::SEND(unsigned char)>
     d98:	88 23       	and	r24, r24
/Users/askn/Documents/Zinnia-tools/Products/hardware/UPDI4AVR/libraries/UPDI4AVR/examples/UPDI4AVR_FW753B/src/UPDI.cpp:168
      if (UPDI::UPDI_ACK != RECV()) break;
     d9a:	09 f4       	brne	.+2      	; 0xd9e <UPDI::runtime(unsigned char)+0x4b8>
     d9c:	df ce       	rjmp	.-578    	; 0xb5c <UPDI::runtime(unsigned char)+0x276>
     d9e:	b5 d9       	rcall	.-3222   	; 0x10a <UPDI::RECV()>
     da0:	80 34       	cpi	r24, 0x40	; 64
     da2:	09 f0       	breq	.+2      	; 0xda6 <UPDI::runtime(unsigned char)+0x4c0>
/Users/askn/Documents/Zinnia-tools/Products/hardware/UPDI4AVR/libraries/UPDI4AVR/examples/UPDI4AVR_FW753B/src/UPDI.cpp:169
    } while (--len);
     da4:	db ce       	rjmp	.-586    	; 0xb5c <UPDI::runtime(unsigned char)+0x276>
     da6:	e0 16       	cp	r14, r16
/Users/askn/Documents/Zinnia-tools/Products/hardware/UPDI4AVR/libraries/UPDI4AVR/examples/UPDI4AVR_FW753B/src/NVM.cpp:324
  if (!UPDI::sts8(NVM::NVMCTRL_REG_DATA,
    (uint8_t*)&fuse_packet, sizeof(fuse_packet))) return false;
  if (!NVM::nvm_ctrl(NVM::NVM_CMD_WFU)) return false;
     da8:	f1 06       	cpc	r15, r17
     daa:	91 f7       	brne	.-28     	; 0xd90 <UPDI::runtime(unsigned char)+0x4aa>
write_fuse():
     dac:	87 e0       	ldi	r24, 0x07	; 7
     dae:	07 db       	rcall	.-2546   	; 0x3be <NVM::nvm_ctrl(unsigned char)>
     db0:	88 23       	and	r24, r24
     db2:	09 f4       	brne	.+2      	; 0xdb6 <UPDI::runtime(unsigned char)+0x4d0>
/Users/askn/Documents/Zinnia-tools/Products/hardware/UPDI4AVR/libraries/UPDI4AVR/examples/UPDI4AVR_FW753B/src/NVM.cpp:325
  return ((NVM::nvm_wait() & 7) == 0);
     db4:	d3 ce       	rjmp	.-602    	; 0xb5c <UPDI::runtime(unsigned char)+0x276>
     db6:	0c dd       	rcall	.-1512   	; 0x7d0 <NVM::nvm_wait()>
     db8:	87 70       	andi	r24, 0x07	; 7
write_eeprom():
/Users/askn/Documents/Zinnia-tools/Products/hardware/UPDI4AVR/libraries/UPDI4AVR/examples/UPDI4AVR_FW753B/src/NVM.cpp:375
    if (UPDI::UPDI_ACK != UPDI::RECV()) return false;
  } while (--byte_count);

  /* NVMCTRL write page and complete */
  if (!NVM::nvm_ctrl(NVM::NVM_CMD_ERWP)) return false;
  return NVM::nvm_wait() == 0;
     dba:	bb 24       	eor	r11, r11
     dbc:	b3 94       	inc	r11
     dbe:	88 23       	and	r24, r24
     dc0:	09 f4       	brne	.+2      	; 0xdc4 <UPDI::runtime(unsigned char)+0x4de>
     dc2:	cc ce       	rjmp	.-616    	; 0xb5c <UPDI::runtime(unsigned char)+0x276>
/Users/askn/Documents/Zinnia-tools/Products/hardware/UPDI4AVR/libraries/UPDI4AVR/examples/UPDI4AVR_FW753B/src/NVM.cpp:186
            if (!NVM::nvm_ctrl_v3(NVM::NVM_V3_CMD_FLPER)) return false;
            return true;
          }
          /* Flash は偶数単位でしか書けないため偶数化する */
          /* 他方のバイトには0xFFを補完 */
          if ((uint8_t)start_addr & 1) {
     dc4:	b1 2c       	mov	r11, r1
     dc6:	ca ce       	rjmp	.-620    	; 0xb5c <UPDI::runtime(unsigned char)+0x276>
write_memory():
/Users/askn/Documents/Zinnia-tools/Products/hardware/UPDI4AVR/libraries/UPDI4AVR/examples/UPDI4AVR_FW753B/src/NVM.cpp:187
            JTAG2::packet.body[11] = JTAG2::packet.body[10];
     dc8:	80 ff       	sbrs	r24, 0
     dca:	0f c0       	rjmp	.+30     	; 0xdea <UPDI::runtime(unsigned char)+0x504>
     dcc:	ef e5       	ldi	r30, 0x5F	; 95
/Users/askn/Documents/Zinnia-tools/Products/hardware/UPDI4AVR/libraries/UPDI4AVR/examples/UPDI4AVR_FW753B/src/NVM.cpp:188
            JTAG2::packet.body[10] = 0xFF;
     dce:	f8 e3       	ldi	r31, 0x38	; 56
     dd0:	82 89       	ldd	r24, Z+18	; 0x12
/Users/askn/Documents/Zinnia-tools/Products/hardware/UPDI4AVR/libraries/UPDI4AVR/examples/UPDI4AVR_FW753B/src/NVM.cpp:189
            (uint8_t)start_addr--;
     dd2:	83 8b       	std	Z+19, r24	; 0x13
     dd4:	8f ef       	ldi	r24, 0xFF	; 255
     dd6:	82 8b       	std	Z+18, r24	; 0x12
     dd8:	f1 e0       	ldi	r31, 0x01	; 1
/Users/askn/Documents/Zinnia-tools/Products/hardware/UPDI4AVR/libraries/UPDI4AVR/examples/UPDI4AVR_FW753B/src/NVM.cpp:195
          }
          else {
            JTAG2::packet.body[11] = 0xFF;
          }
          byte_count = 2;
          UPDI_CONTROL |= _BV(UPDI::UPDI_ERFM_bp);
     dda:	cf 1a       	sub	r12, r31
/Users/askn/Documents/Zinnia-tools/Products/hardware/UPDI4AVR/libraries/UPDI4AVR/examples/UPDI4AVR_FW753B/src/NVM.cpp:196
          return NVM::write_flash_v3(start_addr, byte_count);
     ddc:	d1 08       	sbc	r13, r1
     dde:	e1 08       	sbc	r14, r1
/Users/askn/Documents/Zinnia-tools/Products/hardware/UPDI4AVR/libraries/UPDI4AVR/examples/UPDI4AVR_FW753B/src/NVM.cpp:192
            JTAG2::packet.body[11] = JTAG2::packet.body[10];
            JTAG2::packet.body[10] = 0xFF;
            (uint8_t)start_addr--;
          }
          else {
            JTAG2::packet.body[11] = 0xFF;
     de0:	f1 08       	sbc	r15, r1
     de2:	e2 9a       	sbi	0x1c, 2	; 28
     de4:	42 e0       	ldi	r20, 0x02	; 2
/Users/askn/Documents/Zinnia-tools/Products/hardware/UPDI4AVR/libraries/UPDI4AVR/examples/UPDI4AVR_FW753B/src/NVM.cpp:200
          UPDI_CONTROL |= _BV(UPDI::UPDI_ERFM_bp);
          return NVM::write_flash_v3(start_addr, byte_count);
        }

        /* NVMCTRL v2 */
        if (bit_is_set(UPDI_NVMCTRL, UPDI::UPDI_GEN2_bp)) {
     de6:	50 e0       	ldi	r21, 0x00	; 0
     de8:	dc ce       	rjmp	.-584    	; 0xba2 <UPDI::runtime(unsigned char)+0x2bc>
/Users/askn/Documents/Zinnia-tools/Products/hardware/UPDI4AVR/libraries/UPDI4AVR/examples/UPDI4AVR_FW753B/src/NVM.cpp:202
          /* アドレス先頭かつ0xFF書込ならページ消去 */
          if (((uint8_t)start_addr & 63) == 0 && JTAG2::packet.body[10] == 0xFF) {
     dea:	8f ef       	ldi	r24, 0xFF	; 255
     dec:	80 93 72 38 	sts	0x3872, r24	; 0x803872 <JTAG2::packet+0x13>
     df0:	f8 cf       	rjmp	.-16     	; 0xde2 <UPDI::runtime(unsigned char)+0x4fc>
     df2:	e9 9b       	sbis	0x1d, 1	; 29
     df4:	71 ce       	rjmp	.-798    	; 0xad8 <UPDI::runtime(unsigned char)+0x1f2>
     df6:	8c 2d       	mov	r24, r12
     df8:	9c 2d       	mov	r25, r12
/Users/askn/Documents/Zinnia-tools/Products/hardware/UPDI4AVR/libraries/UPDI4AVR/examples/UPDI4AVR_FW753B/src/NVM.cpp:203
            if (!NVM::nvm_ctrl_v2(NVM::NVM_V2_CMD_FLPER)) return false;
     dfa:	9f 73       	andi	r25, 0x3F	; 63
     dfc:	71 f4       	brne	.+28     	; 0xe1a <UPDI::runtime(unsigned char)+0x534>
     dfe:	90 91 71 38 	lds	r25, 0x3871	; 0x803871 <JTAG2::packet+0x12>
     e02:	9f 3f       	cpi	r25, 0xFF	; 255
/Users/askn/Documents/Zinnia-tools/Products/hardware/UPDI4AVR/libraries/UPDI4AVR/examples/UPDI4AVR_FW753B/src/NVM.cpp:204
            if (!UPDI::st8(start_addr, 0xFF)) return false;
     e04:	51 f4       	brne	.+20     	; 0xe1a <UPDI::runtime(unsigned char)+0x534>
     e06:	88 e0       	ldi	r24, 0x08	; 8
     e08:	f1 dc       	rcall	.-1566   	; 0x7ec <NVM::nvm_ctrl_v2(unsigned char)>
     e0a:	88 23       	and	r24, r24
     e0c:	09 f4       	brne	.+2      	; 0xe10 <UPDI::runtime(unsigned char)+0x52a>
/Users/askn/Documents/Zinnia-tools/Products/hardware/UPDI4AVR/libraries/UPDI4AVR/examples/UPDI4AVR_FW753B/src/NVM.cpp:209
            return true;
          }
          /* Flash は偶数単位でしか書けないため偶数化する */
          /* 他方のバイトには0xFFを補完 */
          if ((uint8_t)start_addr & 1) {
     e0e:	a6 ce       	rjmp	.-692    	; 0xb5c <UPDI::runtime(unsigned char)+0x276>
     e10:	4f ef       	ldi	r20, 0xFF	; 255
/Users/askn/Documents/Zinnia-tools/Products/hardware/UPDI4AVR/libraries/UPDI4AVR/examples/UPDI4AVR_FW753B/src/NVM.cpp:210
            JTAG2::packet.body[11] = JTAG2::packet.body[10];
     e12:	c7 01       	movw	r24, r14
     e14:	b6 01       	movw	r22, r12
     e16:	0d da       	rcall	.-3046   	; 0x232 <UPDI::st8(unsigned long, unsigned char)>
/Users/askn/Documents/Zinnia-tools/Products/hardware/UPDI4AVR/libraries/UPDI4AVR/examples/UPDI4AVR_FW753B/src/NVM.cpp:211
            JTAG2::packet.body[10] = 0xFF;
     e18:	ce ce       	rjmp	.-612    	; 0xbb6 <UPDI::runtime(unsigned char)+0x2d0>
     e1a:	80 ff       	sbrs	r24, 0
/Users/askn/Documents/Zinnia-tools/Products/hardware/UPDI4AVR/libraries/UPDI4AVR/examples/UPDI4AVR_FW753B/src/NVM.cpp:212
            (uint8_t)start_addr--;
     e1c:	0f c0       	rjmp	.+30     	; 0xe3c <UPDI::runtime(unsigned char)+0x556>
     e1e:	ef e5       	ldi	r30, 0x5F	; 95
     e20:	f8 e3       	ldi	r31, 0x38	; 56
     e22:	82 89       	ldd	r24, Z+18	; 0x12
     e24:	83 8b       	std	Z+19, r24	; 0x13
/Users/askn/Documents/Zinnia-tools/Products/hardware/UPDI4AVR/libraries/UPDI4AVR/examples/UPDI4AVR_FW753B/src/NVM.cpp:218
          }
          else {
            JTAG2::packet.body[11] = 0xFF;
          }
          byte_count = 2;
          UPDI_CONTROL |= _BV(UPDI::UPDI_ERFM_bp);
     e26:	8f ef       	ldi	r24, 0xFF	; 255
/Users/askn/Documents/Zinnia-tools/Products/hardware/UPDI4AVR/libraries/UPDI4AVR/examples/UPDI4AVR_FW753B/src/NVM.cpp:219
          return NVM::write_flash_v2(start_addr, byte_count);
     e28:	82 8b       	std	Z+18, r24	; 0x12
     e2a:	81 e0       	ldi	r24, 0x01	; 1
/Users/askn/Documents/Zinnia-tools/Products/hardware/UPDI4AVR/libraries/UPDI4AVR/examples/UPDI4AVR_FW753B/src/NVM.cpp:215
            JTAG2::packet.body[11] = JTAG2::packet.body[10];
            JTAG2::packet.body[10] = 0xFF;
            (uint8_t)start_addr--;
          }
          else {
            JTAG2::packet.body[11] = 0xFF;
     e2c:	c8 1a       	sub	r12, r24
     e2e:	d1 08       	sbc	r13, r1
     e30:	e1 08       	sbc	r14, r1
/Users/askn/Documents/Zinnia-tools/Products/hardware/UPDI4AVR/libraries/UPDI4AVR/examples/UPDI4AVR_FW753B/src/NVM.cpp:228
      }
    }
  }
  if (bit_is_set(UPDI_NVMCTRL, UPDI::UPDI_GEN3_bp))
    return NVM::write_eeprom_v3(start_addr, byte_count);
  if (bit_is_set(UPDI_NVMCTRL, UPDI::UPDI_GEN2_bp))
     e32:	f1 08       	sbc	r15, r1
     e34:	e2 9a       	sbi	0x1c, 2	; 28
/Users/askn/Documents/Zinnia-tools/Products/hardware/UPDI4AVR/libraries/UPDI4AVR/examples/UPDI4AVR_FW753B/src/NVM.cpp:380
  return NVM::nvm_wait() == 0;
}

/* NVMCTRL v2 */
bool NVM::write_eeprom_v2 (uint32_t start_addr, size_t byte_count) {
  if (byte_count == 0 || byte_count > 256) return false;
     e36:	42 e0       	ldi	r20, 0x02	; 2
     e38:	50 e0       	ldi	r21, 0x00	; 0
     e3a:	ba ce       	rjmp	.-652    	; 0xbb0 <UPDI::runtime(unsigned char)+0x2ca>
     e3c:	8f ef       	ldi	r24, 0xFF	; 255
     e3e:	80 93 72 38 	sts	0x3872, r24	; 0x803872 <JTAG2::packet+0x13>
/Users/askn/Documents/Zinnia-tools/Products/hardware/UPDI4AVR/libraries/UPDI4AVR/examples/UPDI4AVR_FW753B/src/NVM.cpp:382

  if (!NVM::nvm_ctrl_v2(NVM::NVM_V2_CMD_EEERWR)) return false;
     e42:	f8 cf       	rjmp	.-16     	; 0xe34 <UPDI::runtime(unsigned char)+0x54e>
     e44:	e9 9b       	sbis	0x1d, 1	; 29
     e46:	3f c0       	rjmp	.+126    	; 0xec6 <UPDI::runtime(unsigned char)+0x5e0>
write_eeprom_v2():
     e48:	8f 3f       	cpi	r24, 0xFF	; 255
     e4a:	91 05       	cpc	r25, r1
/Users/askn/Documents/Zinnia-tools/Products/hardware/UPDI4AVR/libraries/UPDI4AVR/examples/UPDI4AVR_FW753B/src/NVM.cpp:385

  /* setting register pointer */
  _CAPS32(set_ptr[2])->dword = start_addr;
     e4c:	11 f0       	breq	.+4      	; 0xe52 <UPDI::runtime(unsigned char)+0x56c>
     e4e:	08 f0       	brcs	.+2      	; 0xe52 <UPDI::runtime(unsigned char)+0x56c>
     e50:	85 ce       	rjmp	.-758    	; 0xb5c <UPDI::runtime(unsigned char)+0x276>
     e52:	83 e1       	ldi	r24, 0x13	; 19
     e54:	cb dc       	rcall	.-1642   	; 0x7ec <NVM::nvm_ctrl_v2(unsigned char)>
     e56:	88 23       	and	r24, r24
     e58:	09 f4       	brne	.+2      	; 0xe5c <UPDI::runtime(unsigned char)+0x576>
     e5a:	80 ce       	rjmp	.-768    	; 0xb5c <UPDI::runtime(unsigned char)+0x276>
/Users/askn/Documents/Zinnia-tools/Products/hardware/UPDI4AVR/libraries/UPDI4AVR/examples/UPDI4AVR_FW753B/src/NVM.cpp:386
  set_repeat[2] = (uint8_t)byte_count - 1;
     e5c:	c0 92 2d 38 	sts	0x382D, r12	; 0x80382d <NVM::set_ptr+0x2>
     e60:	d0 92 2e 38 	sts	0x382E, r13	; 0x80382e <NVM::set_ptr+0x3>
/Users/askn/Documents/Zinnia-tools/Products/hardware/UPDI4AVR/libraries/UPDI4AVR/examples/UPDI4AVR_FW753B/src/NVM.cpp:387
  if (!UPDI::send_bytes(set_ptr, sizeof(set_ptr) - 1)) return false;
     e64:	e0 92 2f 38 	sts	0x382F, r14	; 0x80382f <NVM::set_ptr+0x4>
     e68:	f0 92 30 38 	sts	0x3830, r15	; 0x803830 <NVM::set_ptr+0x5>
     e6c:	8f ef       	ldi	r24, 0xFF	; 255
     e6e:	80 0f       	add	r24, r16
     e70:	80 93 28 38 	sts	0x3828, r24	; 0x803828 <NVM::set_repeat+0x2>
/Users/askn/Documents/Zinnia-tools/Products/hardware/UPDI4AVR/libraries/UPDI4AVR/examples/UPDI4AVR_FW753B/src/NVM.cpp:388
  if (UPDI::UPDI_ACK != UPDI::RECV()) return false;
     e74:	65 e0       	ldi	r22, 0x05	; 5
     e76:	70 e0       	ldi	r23, 0x00	; 0
     e78:	8b e2       	ldi	r24, 0x2B	; 43
     e7a:	98 e3       	ldi	r25, 0x38	; 56
/Users/askn/Documents/Zinnia-tools/Products/hardware/UPDI4AVR/libraries/UPDI4AVR/examples/UPDI4AVR_FW753B/src/NVM.cpp:389
  if (!UPDI::send_bytes(set_repeat, sizeof(set_repeat))) return false;
     e7c:	6a d9       	rcall	.-3372   	; 0x152 <UPDI::send_bytes(unsigned char const*, unsigned int)>
     e7e:	88 23       	and	r24, r24
     e80:	09 f4       	brne	.+2      	; 0xe84 <UPDI::runtime(unsigned char)+0x59e>
     e82:	6c ce       	rjmp	.-808    	; 0xb5c <UPDI::runtime(unsigned char)+0x276>
     e84:	42 d9       	rcall	.-3452   	; 0x10a <UPDI::RECV()>
     e86:	80 34       	cpi	r24, 0x40	; 64
     e88:	09 f0       	breq	.+2      	; 0xe8c <UPDI::runtime(unsigned char)+0x5a6>
     e8a:	68 ce       	rjmp	.-816    	; 0xb5c <UPDI::runtime(unsigned char)+0x276>
     e8c:	65 e0       	ldi	r22, 0x05	; 5
     e8e:	70 e0       	ldi	r23, 0x00	; 0
     e90:	86 e2       	ldi	r24, 0x26	; 38
/Users/askn/Documents/Zinnia-tools/Products/hardware/UPDI4AVR/libraries/UPDI4AVR/examples/UPDI4AVR_FW753B/src/NVM.cpp:394

  /* page buffer stored */
  uint8_t* p = &JTAG2::packet.body[10];
  do {
    if (!UPDI::SEND(*p++)) return false;
     e92:	98 e3       	ldi	r25, 0x38	; 56
     e94:	5e d9       	rcall	.-3396   	; 0x152 <UPDI::send_bytes(unsigned char const*, unsigned int)>
     e96:	88 23       	and	r24, r24
     e98:	09 f4       	brne	.+2      	; 0xe9c <UPDI::runtime(unsigned char)+0x5b6>
     e9a:	60 ce       	rjmp	.-832    	; 0xb5c <UPDI::runtime(unsigned char)+0x276>
     e9c:	91 e7       	ldi	r25, 0x71	; 113
     e9e:	e9 2e       	mov	r14, r25
     ea0:	98 e3       	ldi	r25, 0x38	; 56
/Users/askn/Documents/Zinnia-tools/Products/hardware/UPDI4AVR/libraries/UPDI4AVR/examples/UPDI4AVR_FW753B/src/NVM.cpp:395
    if (UPDI::UPDI_ACK != UPDI::RECV()) return false;
     ea2:	f9 2e       	mov	r15, r25
     ea4:	f7 01       	movw	r30, r14
     ea6:	81 91       	ld	r24, Z+
     ea8:	7f 01       	movw	r14, r30
/Users/askn/Documents/Zinnia-tools/Products/hardware/UPDI4AVR/libraries/UPDI4AVR/examples/UPDI4AVR_FW753B/src/NVM.cpp:396
  } while (--byte_count);
     eaa:	3b d9       	rcall	.-3466   	; 0x122 <UPDI::SEND(unsigned char)>
     eac:	88 23       	and	r24, r24
     eae:	09 f4       	brne	.+2      	; 0xeb2 <UPDI::runtime(unsigned char)+0x5cc>
/Users/askn/Documents/Zinnia-tools/Products/hardware/UPDI4AVR/libraries/UPDI4AVR/examples/UPDI4AVR_FW753B/src/NVM.cpp:398

  return NVM::nvm_ctrl_v2(NVM::NVM_V2_CMD_NOCMD);
     eb0:	55 ce       	rjmp	.-854    	; 0xb5c <UPDI::runtime(unsigned char)+0x276>
     eb2:	2b d9       	rcall	.-3498   	; 0x10a <UPDI::RECV()>
     eb4:	80 34       	cpi	r24, 0x40	; 64
/Users/askn/Documents/Zinnia-tools/Products/hardware/UPDI4AVR/libraries/UPDI4AVR/examples/UPDI4AVR_FW753B/src/NVM.cpp:352
 * EEPROM領域バイト書込
 */

/* NVMCTRL v0 */
bool NVM::write_eeprom (uint32_t start_addr, size_t byte_count) {
  if (byte_count == 0 || byte_count > 256) return false;
     eb6:	09 f0       	breq	.+2      	; 0xeba <UPDI::runtime(unsigned char)+0x5d4>
     eb8:	51 ce       	rjmp	.-862    	; 0xb5c <UPDI::runtime(unsigned char)+0x276>
     eba:	01 50       	subi	r16, 0x01	; 1
     ebc:	11 09       	sbc	r17, r1
/Users/askn/Documents/Zinnia-tools/Products/hardware/UPDI4AVR/libraries/UPDI4AVR/examples/UPDI4AVR_FW753B/src/NVM.cpp:355

  /* NVMCTRL page buffer clear */
  NVM::nvm_wait();
     ebe:	91 f7       	brne	.-28     	; 0xea4 <UPDI::runtime(unsigned char)+0x5be>
     ec0:	80 e0       	ldi	r24, 0x00	; 0
/Users/askn/Documents/Zinnia-tools/Products/hardware/UPDI4AVR/libraries/UPDI4AVR/examples/UPDI4AVR_FW753B/src/NVM.cpp:356
  if (!NVM::nvm_ctrl(NVM::NVM_CMD_PBC)) return false;
     ec2:	94 dc       	rcall	.-1752   	; 0x7ec <NVM::nvm_ctrl_v2(unsigned char)>
     ec4:	78 ce       	rjmp	.-784    	; 0xbb6 <UPDI::runtime(unsigned char)+0x2d0>
write_eeprom():
     ec6:	8f 3f       	cpi	r24, 0xFF	; 255
     ec8:	91 05       	cpc	r25, r1
     eca:	11 f0       	breq	.+4      	; 0xed0 <UPDI::runtime(unsigned char)+0x5ea>
/Users/askn/Documents/Zinnia-tools/Products/hardware/UPDI4AVR/libraries/UPDI4AVR/examples/UPDI4AVR_FW753B/src/NVM.cpp:357
  NVM::nvm_wait();
     ecc:	08 f0       	brcs	.+2      	; 0xed0 <UPDI::runtime(unsigned char)+0x5ea>
     ece:	46 ce       	rjmp	.-884    	; 0xb5c <UPDI::runtime(unsigned char)+0x276>
/Users/askn/Documents/Zinnia-tools/Products/hardware/UPDI4AVR/libraries/UPDI4AVR/examples/UPDI4AVR_FW753B/src/NVM.cpp:360

  /* setting register pointer */
  _CAPS32(set_ptr[2])->dword = start_addr;
     ed0:	7f dc       	rcall	.-1794   	; 0x7d0 <NVM::nvm_wait()>
     ed2:	84 e0       	ldi	r24, 0x04	; 4
     ed4:	74 da       	rcall	.-2840   	; 0x3be <NVM::nvm_ctrl(unsigned char)>
     ed6:	88 23       	and	r24, r24
     ed8:	09 f4       	brne	.+2      	; 0xedc <UPDI::runtime(unsigned char)+0x5f6>
     eda:	40 ce       	rjmp	.-896    	; 0xb5c <UPDI::runtime(unsigned char)+0x276>
     edc:	79 dc       	rcall	.-1806   	; 0x7d0 <NVM::nvm_wait()>
/Users/askn/Documents/Zinnia-tools/Products/hardware/UPDI4AVR/libraries/UPDI4AVR/examples/UPDI4AVR_FW753B/src/NVM.cpp:361
  set_repeat[2] = (uint8_t)byte_count - 1;
     ede:	c0 92 2d 38 	sts	0x382D, r12	; 0x80382d <NVM::set_ptr+0x2>
     ee2:	d0 92 2e 38 	sts	0x382E, r13	; 0x80382e <NVM::set_ptr+0x3>
/Users/askn/Documents/Zinnia-tools/Products/hardware/UPDI4AVR/libraries/UPDI4AVR/examples/UPDI4AVR_FW753B/src/NVM.cpp:362
  if (!UPDI::send_bytes(set_ptr, sizeof(set_ptr) - 1)) return false;
     ee6:	e0 92 2f 38 	sts	0x382F, r14	; 0x80382f <NVM::set_ptr+0x4>
     eea:	f0 92 30 38 	sts	0x3830, r15	; 0x803830 <NVM::set_ptr+0x5>
     eee:	8f ef       	ldi	r24, 0xFF	; 255
     ef0:	80 0f       	add	r24, r16
     ef2:	80 93 28 38 	sts	0x3828, r24	; 0x803828 <NVM::set_repeat+0x2>
/Users/askn/Documents/Zinnia-tools/Products/hardware/UPDI4AVR/libraries/UPDI4AVR/examples/UPDI4AVR_FW753B/src/NVM.cpp:363
  if (UPDI::UPDI_ACK != UPDI::RECV()) return false;
     ef6:	65 e0       	ldi	r22, 0x05	; 5
     ef8:	70 e0       	ldi	r23, 0x00	; 0
     efa:	8b e2       	ldi	r24, 0x2B	; 43
     efc:	98 e3       	ldi	r25, 0x38	; 56
     efe:	29 d9       	rcall	.-3502   	; 0x152 <UPDI::send_bytes(unsigned char const*, unsigned int)>
/Users/askn/Documents/Zinnia-tools/Products/hardware/UPDI4AVR/libraries/UPDI4AVR/examples/UPDI4AVR_FW753B/src/NVM.cpp:364
  if (!UPDI::send_bytes(set_repeat, sizeof(set_repeat))) return false;
     f00:	88 23       	and	r24, r24
     f02:	09 f4       	brne	.+2      	; 0xf06 <UPDI::runtime(unsigned char)+0x620>
     f04:	2b ce       	rjmp	.-938    	; 0xb5c <UPDI::runtime(unsigned char)+0x276>
     f06:	01 d9       	rcall	.-3582   	; 0x10a <UPDI::RECV()>
     f08:	80 34       	cpi	r24, 0x40	; 64
     f0a:	09 f0       	breq	.+2      	; 0xf0e <UPDI::runtime(unsigned char)+0x628>
     f0c:	27 ce       	rjmp	.-946    	; 0xb5c <UPDI::runtime(unsigned char)+0x276>
     f0e:	65 e0       	ldi	r22, 0x05	; 5
     f10:	70 e0       	ldi	r23, 0x00	; 0
     f12:	86 e2       	ldi	r24, 0x26	; 38
     f14:	98 e3       	ldi	r25, 0x38	; 56
     f16:	1d d9       	rcall	.-3526   	; 0x152 <UPDI::send_bytes(unsigned char const*, unsigned int)>
     f18:	88 23       	and	r24, r24
/Users/askn/Documents/Zinnia-tools/Products/hardware/UPDI4AVR/libraries/UPDI4AVR/examples/UPDI4AVR_FW753B/src/NVM.cpp:369

  /* page buffer stored */
  uint8_t* p = &JTAG2::packet.body[10];
  do {
    if (!UPDI::SEND(*p++)) return false;
     f1a:	09 f4       	brne	.+2      	; 0xf1e <UPDI::runtime(unsigned char)+0x638>
     f1c:	1f ce       	rjmp	.-962    	; 0xb5c <UPDI::runtime(unsigned char)+0x276>
     f1e:	81 e7       	ldi	r24, 0x71	; 113
     f20:	e8 2e       	mov	r14, r24
     f22:	88 e3       	ldi	r24, 0x38	; 56
     f24:	f8 2e       	mov	r15, r24
     f26:	f7 01       	movw	r30, r14
     f28:	81 91       	ld	r24, Z+
/Users/askn/Documents/Zinnia-tools/Products/hardware/UPDI4AVR/libraries/UPDI4AVR/examples/UPDI4AVR_FW753B/src/NVM.cpp:370
    if (UPDI::UPDI_ACK != UPDI::RECV()) return false;
     f2a:	7f 01       	movw	r14, r30
     f2c:	fa d8       	rcall	.-3596   	; 0x122 <UPDI::SEND(unsigned char)>
     f2e:	88 23       	and	r24, r24
     f30:	09 f4       	brne	.+2      	; 0xf34 <UPDI::runtime(unsigned char)+0x64e>
     f32:	14 ce       	rjmp	.-984    	; 0xb5c <UPDI::runtime(unsigned char)+0x276>
/Users/askn/Documents/Zinnia-tools/Products/hardware/UPDI4AVR/libraries/UPDI4AVR/examples/UPDI4AVR_FW753B/src/NVM.cpp:371
  } while (--byte_count);
     f34:	ea d8       	rcall	.-3628   	; 0x10a <UPDI::RECV()>
     f36:	80 34       	cpi	r24, 0x40	; 64
     f38:	09 f0       	breq	.+2      	; 0xf3c <UPDI::runtime(unsigned char)+0x656>
     f3a:	10 ce       	rjmp	.-992    	; 0xb5c <UPDI::runtime(unsigned char)+0x276>
/Users/askn/Documents/Zinnia-tools/Products/hardware/UPDI4AVR/libraries/UPDI4AVR/examples/UPDI4AVR_FW753B/src/UPDI.cpp:449
        if (!(UPDI_LASTL & UPDI::UPDI_SYS_NVMPROG)) break;
        _result = NVM::write_memory();
        break;
      }
      case UPDI::UPDI_CMD_ERASE : {
        if (JTAG2::packet.body[1] == JTAG2::XMEGA_ERASE_CHIP
     f3c:	01 50       	subi	r16, 0x01	; 1
     f3e:	11 09       	sbc	r17, r1
     f40:	91 f7       	brne	.-28     	; 0xf26 <UPDI::runtime(unsigned char)+0x640>
     f42:	84 ce       	rjmp	.-760    	; 0xc4c <UPDI::runtime(unsigned char)+0x366>
_ZN4UPDI7runtimeEh():
/Users/askn/Documents/Zinnia-tools/Products/hardware/UPDI4AVR/libraries/UPDI4AVR/examples/UPDI4AVR_FW753B/src/UPDI.cpp:450
          && _CAPS32(JTAG2::packet.body[2])->dword == 0) {
     f44:	ef e5       	ldi	r30, 0x5F	; 95
     f46:	f8 e3       	ldi	r31, 0x38	; 56
     f48:	81 85       	ldd	r24, Z+9	; 0x09
     f4a:	81 11       	cpse	r24, r1
     f4c:	08 ce       	rjmp	.-1008   	; 0xb5e <UPDI::runtime(unsigned char)+0x278>
     f4e:	82 85       	ldd	r24, Z+10	; 0x0a
     f50:	93 85       	ldd	r25, Z+11	; 0x0b
/Users/askn/Documents/Zinnia-tools/Products/hardware/UPDI4AVR/libraries/UPDI4AVR/examples/UPDI4AVR_FW753B/src/UPDI.cpp:301
 * HV制御はここを通る時のみ行われる
 */

bool UPDI::chip_erase (void) {
  /* Send HV Pulse */
  if (bit_is_clear(UPDI_CONTROL, UPDI_PROG_bp)) HV_Pulse();
     f52:	a4 85       	ldd	r26, Z+12	; 0x0c
/Users/askn/Documents/Zinnia-tools/Products/hardware/UPDI4AVR/libraries/UPDI4AVR/examples/UPDI4AVR_FW753B/src/UPDI.cpp:304

  /* send nvmprog_key */
  if (!UPDI::send_bytes(UPDI::nvmprog_key, sizeof(UPDI::nvmprog_key))) return false;
     f54:	b5 85       	ldd	r27, Z+13	; 0x0d
     f56:	89 2b       	or	r24, r25
     f58:	8a 2b       	or	r24, r26
     f5a:	8b 2b       	or	r24, r27
     f5c:	09 f0       	breq	.+2      	; 0xf60 <UPDI::runtime(unsigned char)+0x67a>
     f5e:	ff cd       	rjmp	.-1026   	; 0xb5e <UPDI::runtime(unsigned char)+0x278>
chip_erase():
     f60:	e1 9b       	sbis	0x1c, 1	; 28
     f62:	31 c0       	rjmp	.+98     	; 0xfc6 <UPDI::runtime(unsigned char)+0x6e0>
     f64:	6a e0       	ldi	r22, 0x0A	; 10
/Users/askn/Documents/Zinnia-tools/Products/hardware/UPDI4AVR/libraries/UPDI4AVR/examples/UPDI4AVR_FW753B/src/UPDI.cpp:307

  /* send erase_key */
  if (!UPDI::send_bytes(UPDI::erase_key, sizeof(UPDI::erase_key))) return false;
     f66:	70 e0       	ldi	r23, 0x00	; 0
     f68:	8e e9       	ldi	r24, 0x9E	; 158
     f6a:	97 e9       	ldi	r25, 0x97	; 151
     f6c:	f2 d8       	rcall	.-3612   	; 0x152 <UPDI::send_bytes(unsigned char const*, unsigned int)>
     f6e:	88 23       	and	r24, r24
     f70:	09 f4       	brne	.+2      	; 0xf74 <UPDI::runtime(unsigned char)+0x68e>
     f72:	0d cd       	rjmp	.-1510   	; 0x98e <UPDI::runtime(unsigned char)+0xa8>
     f74:	6a e0       	ldi	r22, 0x0A	; 10
/Users/askn/Documents/Zinnia-tools/Products/hardware/UPDI4AVR/libraries/UPDI4AVR/examples/UPDI4AVR_FW753B/src/UPDI.cpp:310

  /* restart target : change mode */
  if (!UPDI::updi_reset(true) || !UPDI::updi_reset(false)) return false;
     f76:	70 e0       	ldi	r23, 0x00	; 0
     f78:	84 e9       	ldi	r24, 0x94	; 148
     f7a:	97 e9       	ldi	r25, 0x97	; 151
     f7c:	ea d8       	rcall	.-3628   	; 0x152 <UPDI::send_bytes(unsigned char const*, unsigned int)>
     f7e:	88 23       	and	r24, r24
     f80:	09 f4       	brne	.+2      	; 0xf84 <UPDI::runtime(unsigned char)+0x69e>
     f82:	05 cd       	rjmp	.-1526   	; 0x98e <UPDI::runtime(unsigned char)+0xa8>
     f84:	81 e0       	ldi	r24, 0x01	; 1
     f86:	fc d8       	rcall	.-3592   	; 0x180 <UPDI::updi_reset(bool)>
     f88:	88 23       	and	r24, r24
     f8a:	09 f4       	brne	.+2      	; 0xf8e <UPDI::runtime(unsigned char)+0x6a8>
     f8c:	00 cd       	rjmp	.-1536   	; 0x98e <UPDI::runtime(unsigned char)+0xa8>
/Users/askn/Library/Arduino15/packages/MultiX-Zinnia/hardware/UPDI4AVR/0.2.0/cores/megaAVR/api/delay_busywait.h:40
  }
}

void delay_millis (uint32_t _ms) {
  if (F_CPU >= 1000000L) {
    __builtin_avr_delay_cycles((F_CPU / 1000L) * _ms);
     f8e:	80 e0       	ldi	r24, 0x00	; 0
     f90:	f7 d8       	rcall	.-3602   	; 0x180 <UPDI::updi_reset(bool)>
     f92:	88 23       	and	r24, r24
     f94:	09 f4       	brne	.+2      	; 0xf98 <UPDI::runtime(unsigned char)+0x6b2>
     f96:	fb cc       	rjmp	.-1546   	; 0x98e <UPDI::runtime(unsigned char)+0xa8>
delay_millis():
     f98:	87 ea       	ldi	r24, 0xA7	; 167
/Users/askn/Library/Arduino15/packages/MultiX-Zinnia/hardware/UPDI4AVR/0.2.0/cores/megaAVR/api/delay_busywait.h:31
static __inline__ __attribute__((__always_inline__)) void delay_micros (uint32_t _us);
static __inline__ __attribute__((__always_inline__)) void delay_millis (uint32_t _ms);

void delay_micros (uint32_t _us) {
  if (F_CPU >= 1000000L) {
    __builtin_avr_delay_cycles((F_CPU / 1000000L) * _us);
     f9a:	91 e6       	ldi	r25, 0x61	; 97
     f9c:	01 97       	sbiw	r24, 0x01	; 1
     f9e:	f1 f7       	brne	.-4      	; 0xf9c <UPDI::runtime(unsigned char)+0x6b6>
     fa0:	00 c0       	rjmp	.+0      	; 0xfa2 <UPDI::runtime(unsigned char)+0x6bc>
     fa2:	00 00       	nop
delay_micros():
     fa4:	e9 ef       	ldi	r30, 0xF9	; 249
/Users/askn/Documents/Zinnia-tools/Products/hardware/UPDI4AVR/libraries/UPDI4AVR/examples/UPDI4AVR_FW753B/src/UPDI.cpp:200
  set_ptr[1] = UPDI::UPDI_LDCS | code;
  while (!UPDI::send_bytes(set_ptr, sizeof(set_ptr))) UPDI::BREAK();
  return check == (UPDI::RECV() & check);
}
inline bool UPDI::is_sys_stat (const uint8_t check) {
  return UPDI::is_cs_stat(UPDI::UPDI_CS_ASI_SYS_STATUS, check);
     fa6:	f0 e0       	ldi	r31, 0x00	; 0
     fa8:	31 97       	sbiw	r30, 0x01	; 1
     faa:	f1 f7       	brne	.-4      	; 0xfa8 <UPDI::runtime(unsigned char)+0x6c2>
     fac:	00 c0       	rjmp	.+0      	; 0xfae <UPDI::runtime(unsigned char)+0x6c8>
/Users/askn/Documents/Zinnia-tools/Products/hardware/UPDI4AVR/libraries/UPDI4AVR/examples/UPDI4AVR_FW753B/src/UPDI.cpp:315
  if (!UPDI::updi_reset(true) || !UPDI::updi_reset(false)) return false;

  /* wait enable : chip erase mode success */
  delay_millis(10);

  do{ delay_micros(100); } while (UPDI::is_sys_stat(UPDI::UPDI_SYS_LOCKSTATUS));
     fae:	00 00       	nop
is_sys_stat():
     fb0:	61 e0       	ldi	r22, 0x01	; 1
/Users/askn/Documents/Zinnia-tools/Products/hardware/UPDI4AVR/libraries/UPDI4AVR/examples/UPDI4AVR_FW753B/src/UPDI.cpp:316
  UPDI_CONTROL |= _BV(UPDI::UPDI_ERFM_bp);
     fb2:	8b e0       	ldi	r24, 0x0B	; 11
/Users/askn/Documents/Zinnia-tools/Products/hardware/UPDI4AVR/libraries/UPDI4AVR/examples/UPDI4AVR_FW753B/src/UPDI.cpp:318

  if (bit_is_set(UPDI_CONTROL, UPDI::UPDI_INFO_bp)) {
     fb4:	8f d9       	rcall	.-3298   	; 0x2d4 <UPDI::is_cs_stat(unsigned char, unsigned char)>
chip_erase():
     fb6:	81 11       	cpse	r24, r1
/Users/askn/Documents/Zinnia-tools/Products/hardware/UPDI4AVR/libraries/UPDI4AVR/examples/UPDI4AVR_FW753B/src/UPDI.cpp:319
    UPDI_CONTROL &= ~_BV(UPDI::UPDI_PROG_bp);
     fb8:	f5 cf       	rjmp	.-22     	; 0xfa4 <UPDI::runtime(unsigned char)+0x6be>
/Users/askn/Documents/Zinnia-tools/Products/hardware/UPDI4AVR/libraries/UPDI4AVR/examples/UPDI4AVR_FW753B/src/UPDI.cpp:322
    return UPDI::enter_prog();
  }
  return UPDI::enter_updi(true) && UPDI::enter_prog();
     fba:	e2 9a       	sbi	0x1c, 2	; 28
     fbc:	e0 9b       	sbis	0x1c, 0	; 28
     fbe:	05 c0       	rjmp	.+10     	; 0xfca <UPDI::runtime(unsigned char)+0x6e4>
/Users/askn/Documents/Zinnia-tools/Products/hardware/UPDI4AVR/libraries/UPDI4AVR/examples/UPDI4AVR_FW753B/src/UPDI.cpp:301
 * HV制御はここを通る時のみ行われる
 */

bool UPDI::chip_erase (void) {
  /* Send HV Pulse */
  if (bit_is_clear(UPDI_CONTROL, UPDI_PROG_bp)) HV_Pulse();
     fc0:	e1 98       	cbi	0x1c, 1	; 28
     fc2:	9d da       	rcall	.-2758   	; 0x4fe <UPDI::enter_prog()>
     fc4:	19 cd       	rjmp	.-1486   	; 0x9f8 <UPDI::runtime(unsigned char)+0x112>
/Users/askn/Documents/Zinnia-tools/Products/hardware/UPDI4AVR/libraries/UPDI4AVR/examples/UPDI4AVR_FW753B/src/UPDI.cpp:350
      delay_millis(50);
    }
    else
      UPDI::BREAK();
  }
  if (bit_is_clear(UPDI_CONTROL, UPDI::UPDI_INFO_bp)) {
     fc6:	d8 da       	rcall	.-2640   	; 0x578 <HV_Pulse()>
     fc8:	cd cf       	rjmp	.-102    	; 0xf64 <UPDI::runtime(unsigned char)+0x67e>
enter_updi():
/Users/askn/Documents/Zinnia-tools/Products/hardware/UPDI4AVR/libraries/UPDI4AVR/examples/UPDI4AVR_FW753B/src/UPDI.cpp:351
    if (!UPDI::set_cs_ctra(UPDI::UPDI_SET_GTVAL_2)) return false;
     fca:	e0 99       	sbic	0x1c, 0	; 28
     fcc:	fa cf       	rjmp	.-12     	; 0xfc2 <UPDI::runtime(unsigned char)+0x6dc>
     fce:	e4 d8       	rcall	.-3640   	; 0x198 <UPDI::set_cs_ctra(unsigned char) [clone .constprop.1]>
     fd0:	88 23       	and	r24, r24
     fd2:	09 f4       	brne	.+2      	; 0xfd6 <UPDI::runtime(unsigned char)+0x6f0>
     fd4:	dc cc       	rjmp	.-1608   	; 0x98e <UPDI::runtime(unsigned char)+0xa8>
     fd6:	ea d8       	rcall	.-3628   	; 0x1ac <UPDI::enter_updi(bool) [clone .part.4]>
chip_erase():
/Users/askn/Documents/Zinnia-tools/Products/hardware/UPDI4AVR/libraries/UPDI4AVR/examples/UPDI4AVR_FW753B/src/UPDI.cpp:322

  if (bit_is_set(UPDI_CONTROL, UPDI::UPDI_INFO_bp)) {
    UPDI_CONTROL &= ~_BV(UPDI::UPDI_PROG_bp);
    return UPDI::enter_prog();
  }
  return UPDI::enter_updi(true) && UPDI::enter_prog();
     fd8:	81 11       	cpse	r24, r1
     fda:	f3 cf       	rjmp	.-26     	; 0xfc2 <UPDI::runtime(unsigned char)+0x6dc>
     fdc:	d8 cc       	rjmp	.-1616   	; 0x98e <UPDI::runtime(unsigned char)+0xa8>
_ZN4UPDI7runtimeEh():
/Users/askn/Documents/Zinnia-tools/Products/hardware/UPDI4AVR/libraries/UPDI4AVR/examples/UPDI4AVR_FW753B/src/UPDI.cpp:456
          _result = UPDI::chip_erase();
        }
        break;
      }
      case UPDI::UPDI_CMD_GO : {
        _result = UPDI::Target_Reset(true) && UPDI::Target_Reset(false);
     fde:	81 e0       	ldi	r24, 0x01	; 1
     fe0:	9d d9       	rcall	.-3270   	; 0x31c <UPDI::Target_Reset(bool)>
     fe2:	88 23       	and	r24, r24
     fe4:	09 f4       	brne	.+2      	; 0xfe8 <UPDI::runtime(unsigned char)+0x702>
     fe6:	08 cd       	rjmp	.-1520   	; 0x9f8 <UPDI::runtime(unsigned char)+0x112>
     fe8:	80 e0       	ldi	r24, 0x00	; 0
     fea:	98 d9       	rcall	.-3280   	; 0x31c <UPDI::Target_Reset(bool)>
     fec:	05 cd       	rjmp	.-1526   	; 0x9f8 <UPDI::runtime(unsigned char)+0x112>

00000fee <__vector_13>:
__vector_13():
     fee:	11 24       	eor	r1, r1
     ff0:	10 92 80 0a 	sts	0x0A80, r1	; 0x800a80 <UPDI::nvmprog_key+0x7f72e2>
/Users/askn/Documents/Zinnia-tools/Products/hardware/UPDI4AVR/libraries/UPDI4AVR/examples/UPDI4AVR_FW753B/src/TIM.cpp:276
 * ここから割込元に戻ることはない
 */

ISR(TCB0_INT_vect, ISR_NAKED) {
  __asm__ __volatile__ ("EOR R1,R1");
  TCB0_CTRLA = 0;
     ff4:	81 e0       	ldi	r24, 0x01	; 1
     ff6:	80 93 86 0a 	sts	0x0A86, r24	; 0x800a86 <UPDI::nvmprog_key+0x7f72e8>
/Users/askn/Documents/Zinnia-tools/Products/hardware/UPDI4AVR/libraries/UPDI4AVR/examples/UPDI4AVR_FW753B/src/TIM.cpp:277
  TCB0_INTFLAGS = TCB_CAPT_bm;
     ffa:	62 e0       	ldi	r22, 0x02	; 2
     ffc:	70 e0       	ldi	r23, 0x00	; 0
/Users/askn/Documents/Zinnia-tools/Products/hardware/UPDI4AVR/libraries/UPDI4AVR/examples/UPDI4AVR_FW753B/src/TIM.cpp:278
  longjmp(TIM::CONTEXT, 2);
     ffe:	88 e3       	ldi	r24, 0x38	; 56
    1000:	98 e3       	ldi	r25, 0x38	; 56
    1002:	a6 d3       	rcall	.+1868   	; 0x1750 <longjmp>

00001004 <__vector_6>:
__vector_6():
    1004:	1f 92       	push	r1
    1006:	0f 92       	push	r0
    1008:	0f b6       	in	r0, 0x3f	; 63
/Users/askn/Documents/Zinnia-tools/Products/hardware/UPDI4AVR/libraries/UPDI4AVR/examples/UPDI4AVR_FW753B/src/TIM.cpp:243
 *
 * LOW Active で UPDIターゲットをリセットON/OFF
 * Deactive で 本体リセット
 */

ISR(portIntrruptVector(RTS_SENSE_PIN)) {
    100a:	0f 92       	push	r0
    100c:	11 24       	eor	r1, r1
    100e:	2f 93       	push	r18
    1010:	3f 93       	push	r19
    1012:	4f 93       	push	r20
    1014:	5f 93       	push	r21
    1016:	6f 93       	push	r22
    1018:	7f 93       	push	r23
    101a:	8f 93       	push	r24
    101c:	9f 93       	push	r25
    101e:	af 93       	push	r26
    1020:	bf 93       	push	r27
    1022:	ef 93       	push	r30
    1024:	ff 93       	push	r31
    1026:	80 91 09 04 	lds	r24, 0x0409	; 0x800409 <UPDI::nvmprog_key+0x7f6c6b>
    102a:	80 93 09 04 	sts	0x0409, r24	; 0x800409 <UPDI::nvmprog_key+0x7f6c6b>
/Users/askn/Documents/Zinnia-tools/Products/hardware/UPDI4AVR/libraries/UPDI4AVR/examples/UPDI4AVR_FW753B/src/TIM.cpp:245
  portRegister(RTS_SENSE_PIN).INTFLAGS =
  portRegister(RTS_SENSE_PIN).INTFLAGS;
    102e:	12 9b       	sbis	0x02, 2	; 2
/Users/askn/Documents/Zinnia-tools/Products/hardware/UPDI4AVR/libraries/UPDI4AVR/examples/UPDI4AVR_FW753B/src/TIM.cpp:244
 * LOW Active で UPDIターゲットをリセットON/OFF
 * Deactive で 本体リセット
 */

ISR(portIntrruptVector(RTS_SENSE_PIN)) {
  portRegister(RTS_SENSE_PIN).INTFLAGS =
    1030:	16 c0       	rjmp	.+44     	; 0x105e <__vector_6+0x5a>
System_Reset():
    1032:	88 ed       	ldi	r24, 0xD8	; 216
/Users/askn/Documents/Zinnia-tools/Products/hardware/UPDI4AVR/libraries/UPDI4AVR/examples/UPDI4AVR_FW753B/src/TIM.cpp:247
  portRegister(RTS_SENSE_PIN).INTFLAGS;

  if ( digitalRead(RTS_SENSE_PIN) ) {
    1034:	91 e0       	ldi	r25, 0x01	; 1
    1036:	84 bf       	out	0x34, r24	; 52
/Users/askn/Documents/Zinnia-tools/Products/hardware/UPDI4AVR/libraries/UPDI4AVR/examples/UPDI4AVR_FW753B/src/SYS.cpp:87
/*
 * 本体リセット
 */

void SYS::System_Reset (void) {
  _PROTECTED_WRITE(RSTCTRL_SWRR, RSTCTRL_SWRE_bm);
    1038:	90 93 41 00 	sts	0x0041, r25	; 0x800041 <UPDI::nvmprog_key+0x7f68a3>
__vector_6():
    103c:	ff 91       	pop	r31
    103e:	ef 91       	pop	r30
    1040:	bf 91       	pop	r27
/Users/askn/Documents/Zinnia-tools/Products/hardware/UPDI4AVR/libraries/UPDI4AVR/examples/UPDI4AVR_FW753B/src/TIM.cpp:266
    openDrainWrite(TRST_PIN, HIGH);

    /* ターゲット再起動解除 */
    UPDI::Target_Reset(false);
  }
}
    1042:	af 91       	pop	r26
    1044:	9f 91       	pop	r25
    1046:	8f 91       	pop	r24
    1048:	7f 91       	pop	r23
    104a:	6f 91       	pop	r22
    104c:	5f 91       	pop	r21
    104e:	4f 91       	pop	r20
    1050:	3f 91       	pop	r19
    1052:	2f 91       	pop	r18
    1054:	0f 90       	pop	r0
    1056:	0f be       	out	0x3f, r0	; 63
    1058:	0f 90       	pop	r0
    105a:	1f 90       	pop	r1
    105c:	18 95       	reti
    105e:	84 d9       	rcall	.-3320   	; 0x368 <TIM::LED_Flash()>
    1060:	81 e0       	ldi	r24, 0x01	; 1
    1062:	5c d9       	rcall	.-3400   	; 0x31c <UPDI::Target_Reset(bool)>
/Users/askn/Documents/Zinnia-tools/Products/hardware/UPDI4AVR/libraries/UPDI4AVR/examples/UPDI4AVR_FW753B/src/TIM.cpp:253
    /* RTS 開放で本体リセット */
    SYS::System_Reset();
  }
  else {
    /* LED は点滅 */
    TIM::LED_Flash();
    1064:	21 9a       	sbi	0x04, 1	; 4
    1066:	00 00       	nop
/Users/askn/Documents/Zinnia-tools/Products/hardware/UPDI4AVR/libraries/UPDI4AVR/examples/UPDI4AVR_FW753B/src/TIM.cpp:256

    /* ターゲット再起動 */
    UPDI::Target_Reset(true);
    1068:	21 98       	cbi	0x04, 1	; 4
    106a:	80 e0       	ldi	r24, 0x00	; 0
    106c:	57 d9       	rcall	.-3410   	; 0x31c <UPDI::Target_Reset(bool)>
/Users/askn/Documents/Zinnia-tools/Products/hardware/UPDI4AVR/libraries/UPDI4AVR/examples/UPDI4AVR_FW753B/src/TIM.cpp:259

    /* ターゲットリセットパルス */
    openDrainWrite(TRST_PIN, LOW);
    106e:	e6 cf       	rjmp	.-52     	; 0x103c <__vector_6+0x38>

00001070 <__vector_7>:
__vector_7():
/Users/askn/Documents/Zinnia-tools/Products/hardware/UPDI4AVR/libraries/UPDI4AVR/examples/UPDI4AVR_FW753B/src/TIM.cpp:260
    nop();
    1070:	7b d9       	rcall	.-3338   	; 0x368 <TIM::LED_Flash()>
/Users/askn/Documents/Zinnia-tools/Products/hardware/UPDI4AVR/libraries/UPDI4AVR/examples/UPDI4AVR_FW753B/src/TIM.cpp:261
    openDrainWrite(TRST_PIN, HIGH);
    1072:	81 e0       	ldi	r24, 0x01	; 1
/Users/askn/Documents/Zinnia-tools/Products/hardware/UPDI4AVR/libraries/UPDI4AVR/examples/UPDI4AVR_FW753B/src/TIM.cpp:264

    /* ターゲット再起動解除 */
    UPDI::Target_Reset(false);
    1074:	53 d9       	rcall	.-3418   	; 0x31c <UPDI::Target_Reset(bool)>
    1076:	88 e0       	ldi	r24, 0x08	; 8
    1078:	80 93 06 08 	sts	0x0806, r24	; 0x800806 <UPDI::nvmprog_key+0x7f7068>
delay_micros():
/Users/askn/Documents/Zinnia-tools/Products/hardware/UPDI4AVR/libraries/UPDI4AVR/examples/UPDI4AVR_FW753B/src/TIM.cpp:212
 * このハンドラから主処理に戻ることはない
 */

ISR(portIntrruptVector(SW_SENSE_PIN), ISR_NAKED) {
  /* LED は点滅 */
  TIM::LED_Flash();
    107c:	83 ec       	ldi	r24, 0xC3	; 195
    107e:	99 e0       	ldi	r25, 0x09	; 9
/Users/askn/Documents/Zinnia-tools/Products/hardware/UPDI4AVR/libraries/UPDI4AVR/examples/UPDI4AVR_FW753B/src/TIM.cpp:215

  /* ターゲットリセットON */
  UPDI::Target_Reset(true);
    1080:	01 97       	sbiw	r24, 0x01	; 1
    1082:	f1 f7       	brne	.-4      	; 0x1080 <__vector_7+0x10>
    1084:	00 c0       	rjmp	.+0      	; 0x1086 <__vector_7+0x16>
/Users/askn/Documents/Zinnia-tools/Products/hardware/UPDI4AVR/libraries/UPDI4AVR/examples/UPDI4AVR_FW753B/src/TIM.cpp:216
  UPDI_USART.CTRLB = UPDI_USART_OFF;
    1086:	00 00       	nop
__vector_7():
    1088:	01 9a       	sbi	0x00, 1	; 0
    108a:	10 92 11 04 	sts	0x0411, r1	; 0x800411 <UPDI::nvmprog_key+0x7f6c73>
/Users/askn/Library/Arduino15/packages/MultiX-Zinnia/hardware/UPDI4AVR/0.2.0/cores/megaAVR/api/delay_busywait.h:31
    108e:	09 98       	cbi	0x01, 1	; 1
    1090:	21 9a       	sbi	0x04, 1	; 4
    1092:	52 d9       	rcall	.-3420   	; 0x338 <TIM::LED_Blink()>
    1094:	30 9b       	sbis	0x06, 0	; 6
    1096:	fe cf       	rjmp	.-4      	; 0x1094 <__vector_7+0x24>
System_Reset():
/Users/askn/Documents/Zinnia-tools/Products/hardware/UPDI4AVR/libraries/UPDI4AVR/examples/UPDI4AVR_FW753B/src/TIM.cpp:222

  /* チャタリング抑制 */
  delay_micros(1000);

  /* ターゲットリセット維持 */
  pinMode(UPDI_TDAT_PIN, OUTPUT);
    1098:	88 ed       	ldi	r24, 0xD8	; 216
    109a:	91 e0       	ldi	r25, 0x01	; 1
    109c:	84 bf       	out	0x34, r24	; 52
/Users/askn/Documents/Zinnia-tools/Products/hardware/UPDI4AVR/libraries/UPDI4AVR/examples/UPDI4AVR_FW753B/src/TIM.cpp:223
  digitalWrite(UPDI_TDAT_PIN, LOW);
    109e:	90 93 41 00 	sts	0x0041, r25	; 0x800041 <UPDI::nvmprog_key+0x7f68a3>

000010a2 <main>:
main():
/Users/askn/Documents/Zinnia-tools/Products/hardware/UPDI4AVR/libraries/UPDI4AVR/examples/UPDI4AVR_FW753B/src/TIM.cpp:227
  openDrainWrite(TRST_PIN, LOW);

  /* LEDは 交互点滅 */
  TIM::LED_Blink();
    10a2:	f8 94       	cli
initVariant():
    10a4:	24 e0       	ldi	r18, 0x04	; 4
/Users/askn/Documents/Zinnia-tools/Products/hardware/UPDI4AVR/libraries/UPDI4AVR/examples/UPDI4AVR_FW753B/src/TIM.cpp:230

  /* 押している間は待機 */
  while (!digitalRead(SW_SENSE_PIN));
    10a6:	e0 e1       	ldi	r30, 0x10	; 16
    10a8:	f4 e0       	ldi	r31, 0x04	; 4
/Users/askn/Documents/Zinnia-tools/Products/hardware/UPDI4AVR/libraries/UPDI4AVR/examples/UPDI4AVR_FW753B/src/SYS.cpp:87
    10aa:	83 e0       	ldi	r24, 0x03	; 3
    10ac:	98 e0       	ldi	r25, 0x08	; 8
    10ae:	21 93       	st	Z+, r18
    10b0:	9a 95       	dec	r25
    10b2:	e9 f7       	brne	.-6      	; 0x10ae <main+0xc>
/Users/askn/Library/Arduino15/packages/MultiX-Zinnia/hardware/UPDI4AVR/0.2.0/variants/tinyAVR2_20/variant.h:281
    "   DEC  R24     \n"
    "   BRNE 2b        " /* 3 loop PORTA to PORTC */
    : : "z" ((register8_t*)&PORTA_PIN0CTRL),
        "r" ((uint8_t)PORT_ISC_INPUT_DISABLE_gc)
      : "r24", "r25"
  );
    10b4:	78 96       	adiw	r30, 0x18	; 24
    10b6:	8a 95       	dec	r24
    10b8:	c9 f7       	brne	.-14     	; 0x10ac <main+0xa>
_CLKCTRL_SETUP():
/Users/askn/Library/Arduino15/packages/MultiX-Zinnia/hardware/UPDI4AVR/0.2.0/cores/megaAVR/api/CLKCTRL_megaAVR.h:127
  // _PROTECTED_WRITE(CLKCTRL.MCLKCTRLA, CLKCTRL_CLKSEL_OSC20M_gc);

#else

  #if defined(_CLKCTRL_PDIV_)
  _PROTECTED_WRITE(CLKCTRL_MCLKCTRLB, _CLKCTRL_PDIV_ | CLKCTRL_PEN_bm);
    10ba:	88 ed       	ldi	r24, 0xD8	; 216
    10bc:	41 e0       	ldi	r20, 0x01	; 1
    10be:	50 e0       	ldi	r21, 0x00	; 0
    10c0:	84 bf       	out	0x34, r24	; 52
    10c2:	40 93 61 00 	sts	0x0061, r20	; 0x800061 <UPDI::nvmprog_key+0x7f68c3>
setup():
/Users/askn/Documents/Zinnia-tools/Products/hardware/UPDI4AVR/libraries/UPDI4AVR/examples/UPDI4AVR_FW753B/src/SYS.cpp:17
#include <avr/io.h>

void SYS::setup (void) {

  /* ターゲットリセット開放 */
  pinControlRegister(TRST_PIN) = TRST_PIN_CONFIG;
    10c6:	8c e0       	ldi	r24, 0x0C	; 12
    10c8:	80 93 31 04 	sts	0x0431, r24	; 0x800431 <UPDI::nvmprog_key+0x7f6c93>
/Users/askn/Documents/Zinnia-tools/Products/hardware/UPDI4AVR/libraries/UPDI4AVR/examples/UPDI4AVR_FW753B/src/SYS.cpp:20

  /* 出力方向ポート */
  PORTA_DIRSET = _BV(pinPosition(HVP1_PIN))
    10cc:	88 ef       	ldi	r24, 0xF8	; 248
    10ce:	80 93 01 04 	sts	0x0401, r24	; 0x800401 <UPDI::nvmprog_key+0x7f6c63>
/Users/askn/Documents/Zinnia-tools/Products/hardware/UPDI4AVR/libraries/UPDI4AVR/examples/UPDI4AVR_FW753B/src/SYS.cpp:25
               | _BV(pinPosition(HVP2_PIN))
               | _BV(pinPosition(HV12_PIN))
               | _BV(pinPosition(LEDG_PIN))
               | _BV(pinPosition(LEDY_PIN));
  PORTB_DIRSET = _BV(pinPosition(HV8_PIN));
    10d2:	80 e2       	ldi	r24, 0x20	; 32
    10d4:	80 93 21 04 	sts	0x0421, r24	; 0x800421 <UPDI::nvmprog_key+0x7f6c83>
/Users/askn/Documents/Zinnia-tools/Products/hardware/UPDI4AVR/libraries/UPDI4AVR/examples/UPDI4AVR_FW753B/src/SYS.cpp:28

  /* USART 切替 LOW=ターゲット開通（PG_Disable） */
  PORTC_DIRSET = _BV(pinPosition(PGEN_PIN));
    10d8:	81 e0       	ldi	r24, 0x01	; 1
    10da:	80 93 41 04 	sts	0x0441, r24	; 0x800441 <UPDI::nvmprog_key+0x7f6ca3>
/Users/askn/Documents/Zinnia-tools/Products/hardware/UPDI4AVR/libraries/UPDI4AVR/examples/UPDI4AVR_FW753B/src/SYS.cpp:31

  /* LED 出力 */
  LEDG_EVOUT_MUX = LEDG_EVOUT_ALT;          /* OUT:PA7 */
    10de:	80 93 e0 05 	sts	0x05E0, r24	; 0x8005e0 <UPDI::nvmprog_key+0x7f6e42>
/Users/askn/Documents/Zinnia-tools/Products/hardware/UPDI4AVR/libraries/UPDI4AVR/examples/UPDI4AVR_FW753B/src/SYS.cpp:32
  PORTMUX_CCLROUTEA = PORTMUX_LUT3_ALT1_gc; /* OUT:PA5 IN:PC0,PC1,PC2 */
    10e2:	98 e0       	ldi	r25, 0x08	; 8
    10e4:	90 93 e1 05 	sts	0x05E1, r25	; 0x8005e1 <UPDI::nvmprog_key+0x7f6e43>
/Users/askn/Documents/Zinnia-tools/Products/hardware/UPDI4AVR/libraries/UPDI4AVR/examples/UPDI4AVR_FW753B/src/SYS.cpp:33
  PORTA_OUTSET = _BV(pinPosition(LEDG_PIN))
    10e8:	30 ea       	ldi	r19, 0xA0	; 160
    10ea:	30 93 05 04 	sts	0x0405, r19	; 0x800405 <UPDI::nvmprog_key+0x7f6c67>
/Users/askn/Documents/Zinnia-tools/Products/hardware/UPDI4AVR/libraries/UPDI4AVR/examples/UPDI4AVR_FW753B/src/SYS.cpp:37
               | _BV(pinPosition(LEDY_PIN));

  /* USART代替選択 */
  PORTMUX_USARTROUTEA = JTAG_PMUX_ALT | UPDI_PMUX_ALT;
    10ee:	35 e0       	ldi	r19, 0x05	; 5
    10f0:	30 93 e2 05 	sts	0x05E2, r19	; 0x8005e2 <UPDI::nvmprog_key+0x7f6e44>
/Users/askn/Documents/Zinnia-tools/Products/hardware/UPDI4AVR/libraries/UPDI4AVR/examples/UPDI4AVR_FW753B/src/SYS.cpp:40

  /* JTAG ポート */
  pinControlRegister(JTAG_TXD_PIN) = JTAG_TXD_CONFIG;
    10f4:	90 93 52 04 	sts	0x0452, r25	; 0x800452 <UPDI::nvmprog_key+0x7f6cb4>
/Users/askn/Documents/Zinnia-tools/Products/hardware/UPDI4AVR/libraries/UPDI4AVR/examples/UPDI4AVR_FW753B/src/SYS.cpp:41
  pinControlRegister(JTAG_RXD_PIN) = JTAG_RXD_CONFIG;
    10f8:	90 93 51 04 	sts	0x0451, r25	; 0x800451 <UPDI::nvmprog_key+0x7f6cb3>
/Users/askn/Documents/Zinnia-tools/Products/hardware/UPDI4AVR/libraries/UPDI4AVR/examples/UPDI4AVR_FW753B/src/SYS.cpp:44

  /* UPDI ポート */
  pinControlRegister(UPDI_TDAT_PIN) = UPDI_TDAT_CONFIG;
    10fc:	90 93 11 04 	sts	0x0411, r25	; 0x800411 <UPDI::nvmprog_key+0x7f6c73>
/Users/askn/Documents/Zinnia-tools/Products/hardware/UPDI4AVR/libraries/UPDI4AVR/examples/UPDI4AVR_FW753B/src/SYS.cpp:47

  /* HV 発生器 */
  pinControlRegister(HVP1_PIN) = HVP1_PIN_CONFIG;
    1100:	20 93 13 04 	sts	0x0413, r18	; 0x800413 <UPDI::nvmprog_key+0x7f6c75>
/Users/askn/Documents/Zinnia-tools/Products/hardware/UPDI4AVR/libraries/UPDI4AVR/examples/UPDI4AVR_FW753B/src/SYS.cpp:48
  pinControlRegister(HVP2_PIN) = HVP2_PIN_CONFIG;
    1104:	44 e8       	ldi	r20, 0x84	; 132
    1106:	40 93 14 04 	sts	0x0414, r20	; 0x800414 <UPDI::nvmprog_key+0x7f6c76>
/Users/askn/Documents/Zinnia-tools/Products/hardware/UPDI4AVR/libraries/UPDI4AVR/examples/UPDI4AVR_FW753B/src/SYS.cpp:51

  /* SW1 割込許可 */
  pinControlRegister(SW_SENSE_PIN) = SW_SENSE_CONFIG;
    110a:	4d e0       	ldi	r20, 0x0D	; 13
    110c:	40 93 30 04 	sts	0x0430, r20	; 0x800430 <UPDI::nvmprog_key+0x7f6c92>
/Users/askn/Documents/Zinnia-tools/Products/hardware/UPDI4AVR/libraries/UPDI4AVR/examples/UPDI4AVR_FW753B/src/SYS.cpp:54

  /* RTS 認識 */
  pinControlRegister(RTS_SENSE_PIN) = RTS_SENSE_CONFIG;
    1110:	49 e0       	ldi	r20, 0x09	; 9
    1112:	40 93 12 04 	sts	0x0412, r20	; 0x800412 <UPDI::nvmprog_key+0x7f6c74>
/Users/askn/Documents/Zinnia-tools/Products/hardware/UPDI4AVR/libraries/UPDI4AVR/examples/UPDI4AVR_FW753B/src/SYS.cpp:57

  /* JP1 認識 */
  pinControlRegister(JP_SENSE_PIN) = JP_SENSE_CONFIG;
    1116:	90 93 53 04 	sts	0x0453, r25	; 0x800453 <UPDI::nvmprog_key+0x7f6cb5>
/Users/askn/Documents/Zinnia-tools/Products/hardware/UPDI4AVR/libraries/UPDI4AVR/examples/UPDI4AVR_FW753B/src/SYS.cpp:60

  /* 状態変数初期化 */
  UPDI_CONTROL = 0;
    111a:	1c ba       	out	0x1c, r1	; 28
/Users/askn/Documents/Zinnia-tools/Products/hardware/UPDI4AVR/libraries/UPDI4AVR/examples/UPDI4AVR_FW753B/src/SYS.cpp:61
  UPDI_NVMCTRL = 0;
    111c:	1d ba       	out	0x1d, r1	; 29
/Users/askn/Documents/Zinnia-tools/Products/hardware/UPDI4AVR/libraries/UPDI4AVR/examples/UPDI4AVR_FW753B/src/TIM.cpp:47

  /*
   * EVSYS信号分配
   */

  EVSYS_CHANNEL0 = EVSYS_CHANNEL0_CCL_LUT0_gc;
    111e:	90 e1       	ldi	r25, 0x10	; 16
    1120:	90 93 90 01 	sts	0x0190, r25	; 0x800190 <UPDI::nvmprog_key+0x7f69f2>
/Users/askn/Documents/Zinnia-tools/Products/hardware/UPDI4AVR/libraries/UPDI4AVR/examples/UPDI4AVR_FW753B/src/TIM.cpp:48
  EVSYS_CHANNEL1 = EVSYS_CHANNEL1_RTC_PIT_DIV128_gc;
    1124:	9a e0       	ldi	r25, 0x0A	; 10
    1126:	90 93 91 01 	sts	0x0191, r25	; 0x800191 <UPDI::nvmprog_key+0x7f69f3>
/Users/askn/Documents/Zinnia-tools/Products/hardware/UPDI4AVR/libraries/UPDI4AVR/examples/UPDI4AVR_FW753B/src/TIM.cpp:49
  EVSYS_CHANNEL2 = EVSYS_CHANNEL2_CCL_LUT1_gc;
    112a:	91 e1       	ldi	r25, 0x11	; 17
    112c:	90 93 92 01 	sts	0x0192, r25	; 0x800192 <UPDI::nvmprog_key+0x7f69f4>
/Users/askn/Documents/Zinnia-tools/Products/hardware/UPDI4AVR/libraries/UPDI4AVR/examples/UPDI4AVR_FW753B/src/TIM.cpp:50
  EVSYS_USERTCB0COUNT = EVSYS_USER_CHANNEL1_gc;
    1130:	92 e0       	ldi	r25, 0x02	; 2
    1132:	90 93 b1 01 	sts	0x01B1, r25	; 0x8001b1 <UPDI::nvmprog_key+0x7f6a13>
/Users/askn/Documents/Zinnia-tools/Products/hardware/UPDI4AVR/libraries/UPDI4AVR/examples/UPDI4AVR_FW753B/src/TIM.cpp:51
  EVSYS_USERTCB1COUNT = EVSYS_USER_CHANNEL1_gc;
    1136:	90 93 b3 01 	sts	0x01B3, r25	; 0x8001b3 <UPDI::nvmprog_key+0x7f6a15>
/Users/askn/Documents/Zinnia-tools/Products/hardware/UPDI4AVR/libraries/UPDI4AVR/examples/UPDI4AVR_FW753B/src/TIM.cpp:58
  /*
   * CCL/LUT構築
   */

  /* TRUTH0: 010 is ON */
  CCL_TRUTH0    = CCL_TRUTH_2_bm;
    113a:	20 93 cb 01 	sts	0x01CB, r18	; 0x8001cb <UPDI::nvmprog_key+0x7f6a2d>
/Users/askn/Documents/Zinnia-tools/Products/hardware/UPDI4AVR/libraries/UPDI4AVR/examples/UPDI4AVR_FW753B/src/TIM.cpp:59
  CCL_LUT0CTRLB = CCL_INSEL1_TCB1_gc;                       /* IN1:POS */
    113e:	90 ec       	ldi	r25, 0xC0	; 192
    1140:	90 93 c9 01 	sts	0x01C9, r25	; 0x8001c9 <UPDI::nvmprog_key+0x7f6a2b>
/Users/askn/Documents/Zinnia-tools/Products/hardware/UPDI4AVR/libraries/UPDI4AVR/examples/UPDI4AVR_FW753B/src/TIM.cpp:60
  CCL_LUT0CTRLA = CCL_ENABLE_bm;
    1144:	80 93 c8 01 	sts	0x01C8, r24	; 0x8001c8 <UPDI::nvmprog_key+0x7f6a2a>
/Users/askn/Documents/Zinnia-tools/Products/hardware/UPDI4AVR/libraries/UPDI4AVR/examples/UPDI4AVR_FW753B/src/TIM.cpp:63

  /* TRUTH1: 001 010 is ON */
  CCL_TRUTH1    = CCL_TRUTH_1_bm | CCL_TRUTH_2_bm;
    1148:	96 e0       	ldi	r25, 0x06	; 6
    114a:	90 93 cf 01 	sts	0x01CF, r25	; 0x8001cf <UPDI::nvmprog_key+0x7f6a31>
/Users/askn/Documents/Zinnia-tools/Products/hardware/UPDI4AVR/libraries/UPDI4AVR/examples/UPDI4AVR_FW753B/src/TIM.cpp:64
  CCL_LUT1CTRLB = CCL_INSEL0_TCA0_gc | CCL_INSEL1_TCB1_gc;  /* IN0:POS IN1:POS */
    114e:	9a ec       	ldi	r25, 0xCA	; 202
    1150:	90 93 cd 01 	sts	0x01CD, r25	; 0x8001cd <UPDI::nvmprog_key+0x7f6a2f>
/Users/askn/Documents/Zinnia-tools/Products/hardware/UPDI4AVR/libraries/UPDI4AVR/examples/UPDI4AVR_FW753B/src/TIM.cpp:65
  CCL_LUT1CTRLA = CCL_ENABLE_bm;
    1154:	80 93 cc 01 	sts	0x01CC, r24	; 0x8001cc <UPDI::nvmprog_key+0x7f6a2e>
/Users/askn/Documents/Zinnia-tools/Products/hardware/UPDI4AVR/libraries/UPDI4AVR/examples/UPDI4AVR_FW753B/src/TIM.cpp:71

  /* TRUTH3: 001 010 is ON */
  /* CCL_INSEL0_USART0_gc : USART0TX normal HIGH */
  /* CCL_INSEL1_IO_gc     : USART1RX normal HIGH */
  /* CCL_INSEL2_IO_gc     : USART1TX normal HIGH */
  CCL_TRUTH3    = (uint8_t) ~CCL_TRUTH_7_bm;
    1158:	9f e7       	ldi	r25, 0x7F	; 127
    115a:	90 93 d7 01 	sts	0x01D7, r25	; 0x8001d7 <UPDI::nvmprog_key+0x7f6a39>
/Users/askn/Documents/Zinnia-tools/Products/hardware/UPDI4AVR/libraries/UPDI4AVR/examples/UPDI4AVR_FW753B/src/TIM.cpp:72
  CCL_LUT3CTRLC = CCL_INSEL2_IO_gc;
    115e:	30 93 d6 01 	sts	0x01D6, r19	; 0x8001d6 <UPDI::nvmprog_key+0x7f6a38>
/Users/askn/Documents/Zinnia-tools/Products/hardware/UPDI4AVR/libraries/UPDI4AVR/examples/UPDI4AVR_FW753B/src/TIM.cpp:73
  CCL_LUT3CTRLB = CCL_INSEL0_USART0_gc | CCL_INSEL1_IO_gc;
    1162:	98 e5       	ldi	r25, 0x58	; 88
    1164:	90 93 d5 01 	sts	0x01D5, r25	; 0x8001d5 <UPDI::nvmprog_key+0x7f6a37>
/Users/askn/Documents/Zinnia-tools/Products/hardware/UPDI4AVR/libraries/UPDI4AVR/examples/UPDI4AVR_FW753B/src/TIM.cpp:74
  CCL_LUT3CTRLA = CCL_ENABLE_bm | CCL_OUTEN_bm;
    1168:	91 e4       	ldi	r25, 0x41	; 65
    116a:	90 93 d4 01 	sts	0x01D4, r25	; 0x8001d4 <UPDI::nvmprog_key+0x7f6a36>
/Users/askn/Documents/Zinnia-tools/Products/hardware/UPDI4AVR/libraries/UPDI4AVR/examples/UPDI4AVR_FW753B/src/TIM.cpp:77

  /* CCL 有効化 */
  CCL_CTRLA = CCL_RUNSTDBY_bm | CCL_ENABLE_bm;
    116e:	90 93 c0 01 	sts	0x01C0, r25	; 0x8001c0 <UPDI::nvmprog_key+0x7f6a22>
/Users/askn/Documents/Zinnia-tools/Products/hardware/UPDI4AVR/libraries/UPDI4AVR/examples/UPDI4AVR_FW753B/src/TIM.cpp:80

  /* RTC_PIT 有効化 */
  RTC_PITCTRLA = RTC_PITEN_bm;
    1172:	80 93 50 01 	sts	0x0150, r24	; 0x800150 <UPDI::nvmprog_key+0x7f69b2>
/Users/askn/Documents/Zinnia-tools/Products/hardware/UPDI4AVR/libraries/UPDI4AVR/examples/UPDI4AVR_FW753B/src/TIM.cpp:87
  /*
   * タイマー
   */

  /* TCA0 */
  TCA0_SPLIT_CTRLD = TCA_SPLIT_SPLITM_bm;
    1176:	80 93 03 0a 	sts	0x0A03, r24	; 0x800a03 <UPDI::nvmprog_key+0x7f7265>
/Users/askn/Documents/Zinnia-tools/Products/hardware/UPDI4AVR/libraries/UPDI4AVR/examples/UPDI4AVR_FW753B/src/TIM.cpp:88
  TCA0_SPLIT_LPER  = TCA0_STEP - 2;
    117a:	99 e8       	ldi	r25, 0x89	; 137
    117c:	90 93 26 0a 	sts	0x0A26, r25	; 0x800a26 <UPDI::nvmprog_key+0x7f7288>
/Users/askn/Documents/Zinnia-tools/Products/hardware/UPDI4AVR/libraries/UPDI4AVR/examples/UPDI4AVR_FW753B/src/TIM.cpp:89
  TCA0_SPLIT_LCMP0 = TCA0_STEP / 2;
    1180:	95 e4       	ldi	r25, 0x45	; 69
    1182:	90 93 28 0a 	sts	0x0A28, r25	; 0x800a28 <UPDI::nvmprog_key+0x7f728a>
/Users/askn/Documents/Zinnia-tools/Products/hardware/UPDI4AVR/libraries/UPDI4AVR/examples/UPDI4AVR_FW753B/src/TIM.cpp:90
  TCA0_SPLIT_HPER  = 1;
    1186:	80 93 27 0a 	sts	0x0A27, r24	; 0x800a27 <UPDI::nvmprog_key+0x7f7289>
/Users/askn/Documents/Zinnia-tools/Products/hardware/UPDI4AVR/libraries/UPDI4AVR/examples/UPDI4AVR_FW753B/src/TIM.cpp:91
  TCA0_SPLIT_HCMP0 = 1;     /* WOA3=PA3 */
    118a:	80 93 29 0a 	sts	0x0A29, r24	; 0x800a29 <UPDI::nvmprog_key+0x7f728b>
/Users/askn/Documents/Zinnia-tools/Products/hardware/UPDI4AVR/libraries/UPDI4AVR/examples/UPDI4AVR_FW753B/src/TIM.cpp:92
  TCA0_SPLIT_HCMP1 = 1;     /* WOA4=PA4 */
    118e:	80 93 2b 0a 	sts	0x0A2B, r24	; 0x800a2b <UPDI::nvmprog_key+0x7f728d>
/Users/askn/Documents/Zinnia-tools/Products/hardware/UPDI4AVR/libraries/UPDI4AVR/examples/UPDI4AVR_FW753B/src/TIM.cpp:93
  TCA0_SPLIT_CTRLA = TCA_SPLIT_RUNSTDBY_bm | TCA_SPLIT_ENABLE_bm | TCA_SPLIT_CLKSEL_DIV1024_gc;
    1192:	2f e8       	ldi	r18, 0x8F	; 143
    1194:	20 93 00 0a 	sts	0x0A00, r18	; 0x800a00 <UPDI::nvmprog_key+0x7f7262>
/Users/askn/Documents/Zinnia-tools/Products/hardware/UPDI4AVR/libraries/UPDI4AVR/examples/UPDI4AVR_FW753B/src/TIM.cpp:96

  /* TCB1 */
  TCB1_CTRLB = TCB_CNTMODE_PWM8_gc;
    1198:	27 e0       	ldi	r18, 0x07	; 7
    119a:	20 93 91 0a 	sts	0x0A91, r18	; 0x800a91 <UPDI::nvmprog_key+0x7f72f3>
/Users/askn/Documents/Zinnia-tools/Products/hardware/UPDI4AVR/libraries/UPDI4AVR/examples/UPDI4AVR_FW753B/src/TIM.cpp:105
   *
   * RTS Deactive なら ハートビート
   * RTS Active なら フラッシュ
   */

  if ( digitalRead(RTS_SENSE_PIN) ) {
    119e:	12 9b       	sbis	0x02, 2	; 2
    11a0:	90 c0       	rjmp	.+288    	; 0x12c2 <main+0x220>
LED_HeartBeat():
/Users/askn/Documents/Zinnia-tools/Products/hardware/UPDI4AVR/libraries/UPDI4AVR/examples/UPDI4AVR_FW753B/src/TIM.cpp:145
 * LED動作切替
 */

/* ハートビート（待機中）*/
void TIM::LED_HeartBeat (void) {
  if (TIM::mode != 1) {
    11a2:	20 91 50 38 	lds	r18, 0x3850	; 0x803850 <TIM::mode>
    11a6:	21 30       	cpi	r18, 0x01	; 1
    11a8:	89 f0       	breq	.+34     	; 0x11cc <main+0x12a>
/Users/askn/Documents/Zinnia-tools/Products/hardware/UPDI4AVR/libraries/UPDI4AVR/examples/UPDI4AVR_FW753B/src/TIM.cpp:146
    TIM::mode = 1;
    11aa:	80 93 50 38 	sts	0x3850, r24	; 0x803850 <TIM::mode>
/Users/askn/Documents/Zinnia-tools/Products/hardware/UPDI4AVR/libraries/UPDI4AVR/examples/UPDI4AVR_FW753B/src/TIM.cpp:147
    TCB1_CCMP = TCB1_HBEAT;
    11ae:	2a e8       	ldi	r18, 0x8A	; 138
    11b0:	35 e4       	ldi	r19, 0x45	; 69
    11b2:	20 93 9c 0a 	sts	0x0A9C, r18	; 0x800a9c <UPDI::nvmprog_key+0x7f72fe>
    11b6:	30 93 9d 0a 	sts	0x0A9D, r19	; 0x800a9d <UPDI::nvmprog_key+0x7f72ff>
/Users/askn/Documents/Zinnia-tools/Products/hardware/UPDI4AVR/libraries/UPDI4AVR/examples/UPDI4AVR_FW753B/src/TIM.cpp:148
    TCB1_CNT = 0;
    11ba:	10 92 9a 0a 	sts	0x0A9A, r1	; 0x800a9a <UPDI::nvmprog_key+0x7f72fc>
    11be:	10 92 9b 0a 	sts	0x0A9B, r1	; 0x800a9b <UPDI::nvmprog_key+0x7f72fd>
/Users/askn/Documents/Zinnia-tools/Products/hardware/UPDI4AVR/libraries/UPDI4AVR/examples/UPDI4AVR_FW753B/src/TIM.cpp:149
    TCB1_CTRLA = TCB_RUNSTDBY_bm | TCB_ENABLE_bm | TCB_CLKSEL_TCA0_gc;
    11c2:	90 93 90 0a 	sts	0x0A90, r25	; 0x800a90 <UPDI::nvmprog_key+0x7f72f2>
/Users/askn/Documents/Zinnia-tools/Products/hardware/UPDI4AVR/libraries/UPDI4AVR/examples/UPDI4AVR_FW753B/src/TIM.cpp:150
    LEDG_EVOUT = EVSYS_USER_CHANNEL2_gc;
    11c6:	83 e0       	ldi	r24, 0x03	; 3
    11c8:	80 93 a9 01 	sts	0x01A9, r24	; 0x8001a9 <UPDI::nvmprog_key+0x7f6a0b>
setup():
/Users/askn/Documents/Zinnia-tools/Products/hardware/UPDI4AVR/libraries/UPDI4AVR/examples/UPDI4AVR_FW753B/src/JTAG2.cpp:82
  };
}

/* 初期化 */
void JTAG2::setup (void) {
  JTAG_USART.BAUD = pgm_read_word( &BAUD_TABLE[JTAG2::BAUD_19200] );
    11cc:	ed e9       	ldi	r30, 0x9D	; 157
    11ce:	f0 e0       	ldi	r31, 0x00	; 0
    11d0:	85 91       	lpm	r24, Z+
    11d2:	94 91       	lpm	r25, Z
    11d4:	80 93 28 08 	sts	0x0828, r24	; 0x800828 <UPDI::nvmprog_key+0x7f708a>
    11d8:	90 93 29 08 	sts	0x0829, r25	; 0x800829 <UPDI::nvmprog_key+0x7f708b>
/Users/askn/Documents/Zinnia-tools/Products/hardware/UPDI4AVR/libraries/UPDI4AVR/examples/UPDI4AVR_FW753B/src/JTAG2.cpp:83
  JTAG_USART.CTRLA = JTAG_USART_CTRLA;
    11dc:	10 92 25 08 	sts	0x0825, r1	; 0x800825 <UPDI::nvmprog_key+0x7f7087>
/Users/askn/Documents/Zinnia-tools/Products/hardware/UPDI4AVR/libraries/UPDI4AVR/examples/UPDI4AVR_FW753B/src/JTAG2.cpp:84
  JTAG_USART.CTRLC = JTAG_USART_CTRLC;
    11e0:	83 e0       	ldi	r24, 0x03	; 3
    11e2:	80 93 27 08 	sts	0x0827, r24	; 0x800827 <UPDI::nvmprog_key+0x7f7089>
/Users/askn/Documents/Zinnia-tools/Products/hardware/UPDI4AVR/libraries/UPDI4AVR/examples/UPDI4AVR_FW753B/src/JTAG2.cpp:85
  JTAG_USART.CTRLB = JTAG_USART_OFF;
    11e6:	88 e8       	ldi	r24, 0x88	; 136
    11e8:	80 93 26 08 	sts	0x0826, r24	; 0x800826 <UPDI::nvmprog_key+0x7f7088>
/Users/askn/Documents/Zinnia-tools/Products/hardware/UPDI4AVR/libraries/UPDI4AVR/examples/UPDI4AVR_FW753B/src/UPDI.cpp:29
void UPDI::guardtime (void) {
  delay_micros(UPDI_GUARDTIME);
}

void UPDI::setup (void) {
  UPDI_USART.BAUD  = UPDI_BAUD_CALC;
    11ec:	80 eb       	ldi	r24, 0xB0	; 176
    11ee:	90 e0       	ldi	r25, 0x00	; 0
    11f0:	80 93 08 08 	sts	0x0808, r24	; 0x800808 <UPDI::nvmprog_key+0x7f706a>
    11f4:	90 93 09 08 	sts	0x0809, r25	; 0x800809 <UPDI::nvmprog_key+0x7f706b>
/Users/askn/Documents/Zinnia-tools/Products/hardware/UPDI4AVR/libraries/UPDI4AVR/examples/UPDI4AVR_FW753B/src/UPDI.cpp:30
  UPDI_USART.CTRLA = UPDI_USART_CTRLA;
    11f8:	8a e0       	ldi	r24, 0x0A	; 10
    11fa:	80 93 05 08 	sts	0x0805, r24	; 0x800805 <UPDI::nvmprog_key+0x7f7067>
/Users/askn/Documents/Zinnia-tools/Products/hardware/UPDI4AVR/libraries/UPDI4AVR/examples/UPDI4AVR_FW753B/src/UPDI.cpp:31
  UPDI_USART.CTRLC = UPDI_USART_CTRLC;
    11fe:	8b e2       	ldi	r24, 0x2B	; 43
    1200:	80 93 07 08 	sts	0x0807, r24	; 0x800807 <UPDI::nvmprog_key+0x7f7069>
/Users/askn/Documents/Zinnia-tools/Products/hardware/UPDI4AVR/libraries/UPDI4AVR/examples/UPDI4AVR_FW753B/src/UPDI.cpp:32
  UPDI_USART.CTRLB = UPDI_USART_ON;
    1204:	88 ec       	ldi	r24, 0xC8	; 200
    1206:	80 93 06 08 	sts	0x0806, r24	; 0x800806 <UPDI::nvmprog_key+0x7f7068>
/Users/askn/Documents/Zinnia-tools/Products/hardware/UPDI4AVR/libraries/UPDI4AVR/examples/UPDI4AVR_FW753B/src/UPDI.cpp:35

  /* ソフトリセット後は ターゲットのリセットを解除 */
  if ( bit_is_set(RSTCTRL_RSTFR, RSTCTRL_SWRF_bp) ) UPDI::Target_Reset(false);
    120a:	80 91 40 00 	lds	r24, 0x0040	; 0x800040 <UPDI::nvmprog_key+0x7f68a2>
    120e:	84 ff       	sbrs	r24, 4
    1210:	02 c0       	rjmp	.+4      	; 0x1216 <main+0x174>
    1212:	80 e0       	ldi	r24, 0x00	; 0
    1214:	83 d8       	rcall	.-3834   	; 0x31c <UPDI::Target_Reset(bool)>
ready():
/Users/askn/Documents/Zinnia-tools/Products/hardware/UPDI4AVR/libraries/UPDI4AVR/examples/UPDI4AVR_FW753B/src/SYS.cpp:119
/*
 * 起動シーケンスの最後に実行
 */

void SYS::ready (void) {
  RSTCTRL_RSTFR = 0xFF;
    1216:	8f ef       	ldi	r24, 0xFF	; 255
    1218:	80 93 40 00 	sts	0x0040, r24	; 0x800040 <UPDI::nvmprog_key+0x7f68a2>
/Users/askn/Documents/Zinnia-tools/Products/hardware/UPDI4AVR/libraries/UPDI4AVR/examples/UPDI4AVR_FW753B/src/SYS.cpp:122

  /* 初期化中に検出された非同期割込をクリアする */
  portRegister(RTS_SENSE_PIN).INTFLAGS = 0xFF;
    121c:	80 93 09 04 	sts	0x0409, r24	; 0x800409 <UPDI::nvmprog_key+0x7f6c6b>
/Users/askn/Documents/Zinnia-tools/Products/hardware/UPDI4AVR/libraries/UPDI4AVR/examples/UPDI4AVR_FW753B/src/SYS.cpp:125

  /* 割込許可 */
  sei();
    1220:	78 94       	sei
process_command():
/Users/askn/Documents/Zinnia-tools/Products/hardware/UPDI4AVR/libraries/UPDI4AVR/examples/UPDI4AVR_FW753B/src/JTAG2.cpp:297
    case JTAG2::CMND_ENTER_PROGMODE : {
      uint8_t c = UPDI_CONTROL;
      UPDI::updi_activate();
      JTAG2::set_response(JTAG2::RSP_OK);
      if (!(c & _BV(UPDI::UPDI_INFO_bp)) && bit_is_set(UPDI_CONTROL, UPDI::UPDI_INFO_bp))
        packet.size = 19;
    1222:	e3 e1       	ldi	r30, 0x13	; 19
    1224:	8e 2e       	mov	r8, r30
    1226:	91 2c       	mov	r9, r1
    1228:	a1 2c       	mov	r10, r1
    122a:	b1 2c       	mov	r11, r1
get_parameter():
/Users/askn/Documents/Zinnia-tools/Products/hardware/UPDI4AVR/libraries/UPDI4AVR/examples/UPDI4AVR_FW753B/src/JTAG2.cpp:251
      packet.size_word[0] = 5;
      break;
    }
    case JTAG2::PARAM_EMU_MODE : {
      packet.body[1] = PARAM_EMU_MODE_VAL;
      packet.size_word[0] = 2;
    122c:	f2 e0       	ldi	r31, 0x02	; 2
    122e:	2f 2e       	mov	r2, r31
    1230:	31 2c       	mov	r3, r1
/Users/askn/Documents/Zinnia-tools/Products/hardware/UPDI4AVR/libraries/UPDI4AVR/examples/UPDI4AVR_FW753B/src/JTAG2.cpp:261
      packet.size_word[0] = 2;
      break;
    }
    case JTAG2::PARAM_VTARGET : {
      _CAPS16(packet.body[1])->word = SYS::get_vcc();
      packet.size_word[0] = 3;
    1232:	a3 e0       	ldi	r26, 0x03	; 3
    1234:	ca 2e       	mov	r12, r26
    1236:	d1 2c       	mov	r13, r1
sign_on_response():
/Users/askn/Documents/Zinnia-tools/Products/hardware/UPDI4AVR/libraries/UPDI4AVR/examples/UPDI4AVR_FW753B/src/JTAG2.cpp:175
  packet.body[3] = UPDI_NVMCTRL;
}

/* SIGN_ON Response */
void JTAG2::sign_on_response (void) {
  packet.size = sizeof(sign_on_resp);
    1238:	bd e1       	ldi	r27, 0x1D	; 29
    123a:	4b 2e       	mov	r4, r27
    123c:	51 2c       	mov	r5, r1
    123e:	61 2c       	mov	r6, r1
    1240:	71 2c       	mov	r7, r1
get():
/Users/askn/Documents/Zinnia-tools/Products/hardware/UPDI4AVR/libraries/UPDI4AVR/examples/UPDI4AVR_FW753B/src/JTAG2.cpp:101
  pinMode(JTAG_TXD_PIN, INPUT_PULLUP);
  SYS::PG_Disable();
}

uint8_t JTAG2::get (void) {
  loop_until_bit_is_set(JTAG_USART.STATUS, USART_RXCIF_bp);
    1242:	80 91 24 08 	lds	r24, 0x0824	; 0x800824 <UPDI::nvmprog_key+0x7f7086>
    1246:	87 ff       	sbrs	r24, 7
    1248:	fc cf       	rjmp	.-8      	; 0x1242 <main+0x1a0>
/Users/askn/Documents/Zinnia-tools/Products/hardware/UPDI4AVR/libraries/UPDI4AVR/examples/UPDI4AVR_FW753B/src/JTAG2.cpp:102
  return JTAG_USART.RXDATAL;
    124a:	80 91 20 08 	lds	r24, 0x0820	; 0x800820 <UPDI::nvmprog_key+0x7f7082>
packet_receive():
/Users/askn/Documents/Zinnia-tools/Products/hardware/UPDI4AVR/libraries/UPDI4AVR/examples/UPDI4AVR_FW753B/src/JTAG2.cpp:126
  uint16_t _crc = ~0;
  uint8_t *p = (uint8_t*) &packet.soh;
  uint8_t *q = (uint8_t*) &packet.soh;

  /* 受信待ち（無限ループ）*/
  while (get() != JTAG2::MESSAGE_START);
    124e:	8b 31       	cpi	r24, 0x1B	; 27
    1250:	c1 f7       	brne	.-16     	; 0x1242 <main+0x1a0>
/Users/askn/Documents/Zinnia-tools/Products/hardware/UPDI4AVR/libraries/UPDI4AVR/examples/UPDI4AVR_FW753B/src/JTAG2.cpp:127
  (*p++) = JTAG2::MESSAGE_START;
    1252:	80 93 5f 38 	sts	0x385F, r24	; 0x80385f <JTAG2::packet>
    1256:	e0 e6       	ldi	r30, 0x60	; 96
    1258:	f8 e3       	ldi	r31, 0x38	; 56
get():
/Users/askn/Documents/Zinnia-tools/Products/hardware/UPDI4AVR/libraries/UPDI4AVR/examples/UPDI4AVR_FW753B/src/JTAG2.cpp:101
  pinMode(JTAG_TXD_PIN, INPUT_PULLUP);
  SYS::PG_Disable();
}

uint8_t JTAG2::get (void) {
  loop_until_bit_is_set(JTAG_USART.STATUS, USART_RXCIF_bp);
    125a:	80 91 24 08 	lds	r24, 0x0824	; 0x800824 <UPDI::nvmprog_key+0x7f7086>
    125e:	87 ff       	sbrs	r24, 7
    1260:	fc cf       	rjmp	.-8      	; 0x125a <main+0x1b8>
/Users/askn/Documents/Zinnia-tools/Products/hardware/UPDI4AVR/libraries/UPDI4AVR/examples/UPDI4AVR_FW753B/src/JTAG2.cpp:102
  return JTAG_USART.RXDATAL;
    1262:	80 91 20 08 	lds	r24, 0x0820	; 0x800820 <UPDI::nvmprog_key+0x7f7082>
packet_receive():
/Users/askn/Documents/Zinnia-tools/Products/hardware/UPDI4AVR/libraries/UPDI4AVR/examples/UPDI4AVR_FW753B/src/JTAG2.cpp:130
  /* 受信待ち（無限ループ）*/
  while (get() != JTAG2::MESSAGE_START);
  (*p++) = JTAG2::MESSAGE_START;

  /* 最初の7byte */
  for (int8_t i = 0; i < 7; i++) *p++ = get();
    1266:	81 93       	st	Z+, r24
    1268:	27 e6       	ldi	r18, 0x67	; 103
    126a:	38 e3       	ldi	r19, 0x38	; 56
    126c:	2e 17       	cp	r18, r30
    126e:	3f 07       	cpc	r19, r31
    1270:	a1 f7       	brne	.-24     	; 0x125a <main+0x1b8>
/Users/askn/Documents/Zinnia-tools/Products/hardware/UPDI4AVR/libraries/UPDI4AVR/examples/UPDI4AVR_FW753B/src/JTAG2.cpp:133

  /* STX 確認 */
  if (packet.stx != JTAG2::TOKEN) return false;
    1272:	80 91 66 38 	lds	r24, 0x3866	; 0x803866 <JTAG2::packet+0x7>
    1276:	8e 30       	cpi	r24, 0x0E	; 14
    1278:	21 f7       	brne	.-56     	; 0x1242 <main+0x1a0>
/Users/askn/Documents/Zinnia-tools/Products/hardware/UPDI4AVR/libraries/UPDI4AVR/examples/UPDI4AVR_FW753B/src/JTAG2.cpp:136

  /* パケット長確認 */
  if (packet.size > sizeof(packet.body)) return false;
    127a:	80 91 62 38 	lds	r24, 0x3862	; 0x803862 <JTAG2::packet+0x3>
    127e:	90 91 63 38 	lds	r25, 0x3863	; 0x803863 <JTAG2::packet+0x4>
    1282:	a0 91 64 38 	lds	r26, 0x3864	; 0x803864 <JTAG2::packet+0x5>
    1286:	b0 91 65 38 	lds	r27, 0x3865	; 0x803865 <JTAG2::packet+0x6>
    128a:	8a 30       	cpi	r24, 0x0A	; 10
    128c:	92 40       	sbci	r25, 0x02	; 2
    128e:	a1 05       	cpc	r26, r1
    1290:	b1 05       	cpc	r27, r1
    1292:	b8 f6       	brcc	.-82     	; 0x1242 <main+0x1a0>
    1294:	c7 e6       	ldi	r28, 0x67	; 103
    1296:	d8 e3       	ldi	r29, 0x38	; 56
    1298:	7e 01       	movw	r14, r28
main():
/Users/askn/Documents/Zinnia-tools/Products/hardware/UPDI4AVR/libraries/UPDI4AVR/examples/UPDI4AVR_FW753B/src/JTAG2.cpp:139

  /* 残りを受信 */
  for (int16_t j = -2; j < packet.size_word[0]; j++) *p++ = get();
    129a:	8e ef       	ldi	r24, 0xFE	; 254
    129c:	9f ef       	ldi	r25, 0xFF	; 255
packet_receive():
    129e:	20 91 62 38 	lds	r18, 0x3862	; 0x803862 <JTAG2::packet+0x3>
    12a2:	30 91 63 38 	lds	r19, 0x3863	; 0x803863 <JTAG2::packet+0x4>
    12a6:	82 17       	cp	r24, r18
    12a8:	93 07       	cpc	r25, r19
    12aa:	6c f4       	brge	.+26     	; 0x12c6 <main+0x224>
get():
/Users/askn/Documents/Zinnia-tools/Products/hardware/UPDI4AVR/libraries/UPDI4AVR/examples/UPDI4AVR_FW753B/src/JTAG2.cpp:101
  pinMode(JTAG_TXD_PIN, INPUT_PULLUP);
  SYS::PG_Disable();
}

uint8_t JTAG2::get (void) {
  loop_until_bit_is_set(JTAG_USART.STATUS, USART_RXCIF_bp);
    12ac:	20 91 24 08 	lds	r18, 0x0824	; 0x800824 <UPDI::nvmprog_key+0x7f7086>
    12b0:	27 ff       	sbrs	r18, 7
    12b2:	fc cf       	rjmp	.-8      	; 0x12ac <main+0x20a>
/Users/askn/Documents/Zinnia-tools/Products/hardware/UPDI4AVR/libraries/UPDI4AVR/examples/UPDI4AVR_FW753B/src/JTAG2.cpp:102
  return JTAG_USART.RXDATAL;
    12b4:	20 91 20 08 	lds	r18, 0x0820	; 0x800820 <UPDI::nvmprog_key+0x7f7082>
packet_receive():
/Users/askn/Documents/Zinnia-tools/Products/hardware/UPDI4AVR/libraries/UPDI4AVR/examples/UPDI4AVR_FW753B/src/JTAG2.cpp:139

  /* パケット長確認 */
  if (packet.size > sizeof(packet.body)) return false;

  /* 残りを受信 */
  for (int16_t j = -2; j < packet.size_word[0]; j++) *p++ = get();
    12b8:	d7 01       	movw	r26, r14
    12ba:	2d 93       	st	X+, r18
    12bc:	7d 01       	movw	r14, r26
    12be:	01 96       	adiw	r24, 0x01	; 1
/Users/askn/Documents/Zinnia-tools/Products/hardware/UPDI4AVR/libraries/UPDI4AVR/examples/UPDI4AVR_FW753B/src/TIM.cpp:109

  if ( digitalRead(RTS_SENSE_PIN) ) {
    LED_HeartBeat();
  }
  else {
    LED_Flash();
    12c0:	ee cf       	rjmp	.-36     	; 0x129e <main+0x1fc>
setup():
    12c2:	52 d8       	rcall	.-3932   	; 0x368 <TIM::LED_Flash()>
    12c4:	83 cf       	rjmp	.-250    	; 0x11cc <main+0x12a>
packet_receive():
/Users/askn/Documents/Zinnia-tools/Products/hardware/UPDI4AVR/libraries/UPDI4AVR/examples/UPDI4AVR_FW753B/src/JTAG2.cpp:139
    12c6:	0f e5       	ldi	r16, 0x5F	; 95
    12c8:	18 e3       	ldi	r17, 0x38	; 56
main():
/Users/askn/Documents/Zinnia-tools/Products/hardware/UPDI4AVR/libraries/UPDI4AVR/examples/UPDI4AVR_FW753B/src/JTAG2.cpp:121
  return _crc_ccitt_update(_crc, _data);
}

/* JTAG Receive */
bool JTAG2::packet_receive (void) {
  uint16_t _crc = ~0;
    12ca:	8f ef       	ldi	r24, 0xFF	; 255
    12cc:	9f ef       	ldi	r25, 0xFF	; 255
packet_receive():
/Users/askn/Documents/Zinnia-tools/Products/hardware/UPDI4AVR/libraries/UPDI4AVR/examples/UPDI4AVR_FW753B/src/JTAG2.cpp:142

  /* 残りを受信 */
  for (int16_t j = -2; j < packet.size_word[0]; j++) *p++ = get();

  /* 受信バッファが満たされたら CRC 確認 */
  while (p != q) _crc = JTAG2::crc16_update(_crc, *q++);
    12ce:	0e 15       	cp	r16, r14
    12d0:	1f 05       	cpc	r17, r15
    12d2:	29 f0       	breq	.+10     	; 0x12de <main+0x23c>
    12d4:	f8 01       	movw	r30, r16
    12d6:	61 91       	ld	r22, Z+
    12d8:	8f 01       	movw	r16, r30
crc16_update():
/Users/askn/Documents/Zinnia-tools/Products/hardware/UPDI4AVR/libraries/UPDI4AVR/examples/UPDI4AVR_FW753B/src/JTAG2.cpp:116
void JTAG2::flush (void) {
  loop_until_bit_is_set(JTAG_USART.STATUS, USART_TXCIF_bp);
}

uint16_t JTAG2::crc16_update(uint16_t _crc, uint8_t _data) {
  return _crc_ccitt_update(_crc, _data);
    12da:	a9 d8       	rcall	.-3758   	; 0x42e <_crc_ccitt_update(unsigned int, unsigned char)>
    12dc:	f8 cf       	rjmp	.-16     	; 0x12ce <main+0x22c>
wakeup_jtag():
/Users/askn/Documents/Zinnia-tools/Products/hardware/UPDI4AVR/libraries/UPDI4AVR/examples/UPDI4AVR_FW753B/src/JTAG2.cpp:378
  JTAG2::answer_transfer();
}

void JTAG2::wakeup_jtag (void) {
  for (;;) {
    if (JTAG2::packet_receive()) JTAG2::process_command();
    12de:	89 2b       	or	r24, r25
    12e0:	09 f0       	breq	.+2      	; 0x12e4 <main+0x242>
    12e2:	af cf       	rjmp	.-162    	; 0x1242 <main+0x1a0>
process_command():
/Users/askn/Documents/Zinnia-tools/Products/hardware/UPDI4AVR/libraries/UPDI4AVR/examples/UPDI4AVR_FW753B/src/JTAG2.cpp:274
  packet.body[0] = JTAG2::RSP_PARAMETER;
}

/* JTAG Process */
inline void JTAG2::process_command (void) {
  wdt_reset();
    12e4:	a8 95       	wdr
/Users/askn/Documents/Zinnia-tools/Products/hardware/UPDI4AVR/libraries/UPDI4AVR/examples/UPDI4AVR_FW753B/src/JTAG2.cpp:275
  switch ( packet.body[0] ) {
    12e6:	80 91 67 38 	lds	r24, 0x3867	; 0x803867 <JTAG2::packet+0x8>
    12ea:	88 30       	cpi	r24, 0x08	; 8
    12ec:	09 f4       	brne	.+2      	; 0x12f0 <main+0x24e>
    12ee:	c2 c1       	rjmp	.+900    	; 0x1674 <main+0x5d2>
    12f0:	d8 f5       	brcc	.+118    	; 0x1368 <main+0x2c6>
    12f2:	82 30       	cpi	r24, 0x02	; 2
    12f4:	09 f4       	brne	.+2      	; 0x12f8 <main+0x256>
    12f6:	9f c0       	rjmp	.+318    	; 0x1436 <main+0x394>
    12f8:	48 f4       	brcc	.+18     	; 0x130c <main+0x26a>
    12fa:	88 23       	and	r24, r24
    12fc:	09 f4       	brne	.+2      	; 0x1300 <main+0x25e>
    12fe:	bf c1       	rjmp	.+894    	; 0x167e <main+0x5dc>
    1300:	81 30       	cpi	r24, 0x01	; 1
    1302:	09 f4       	brne	.+2      	; 0x1306 <main+0x264>
    1304:	48 c0       	rjmp	.+144    	; 0x1396 <main+0x2f4>
/Users/askn/Documents/Zinnia-tools/Products/hardware/UPDI4AVR/libraries/UPDI4AVR/examples/UPDI4AVR_FW753B/src/JTAG2.cpp:370
    case JTAG2::CMND_LEAVE_PROGMODE : {
      JTAG2::set_response(JTAG2::RSP_OK);
      break;
    }
    default : {
      JTAG2::set_response(JTAG2::RSP_FAILED);
    1306:	80 ea       	ldi	r24, 0xA0	; 160
    1308:	90 e0       	ldi	r25, 0x00	; 0
    130a:	d6 c0       	rjmp	.+428    	; 0x14b8 <main+0x416>
/Users/askn/Documents/Zinnia-tools/Products/hardware/UPDI4AVR/libraries/UPDI4AVR/examples/UPDI4AVR_FW753B/src/JTAG2.cpp:275
}

/* JTAG Process */
inline void JTAG2::process_command (void) {
  wdt_reset();
  switch ( packet.body[0] ) {
    130c:	84 30       	cpi	r24, 0x04	; 4
    130e:	09 f4       	brne	.+2      	; 0x1312 <main+0x270>
    1310:	91 c1       	rjmp	.+802    	; 0x1634 <main+0x592>
    1312:	08 f4       	brcc	.+2      	; 0x1316 <main+0x274>
    1314:	d4 c0       	rjmp	.+424    	; 0x14be <main+0x41c>
    1316:	85 30       	cpi	r24, 0x05	; 5
    1318:	b1 f7       	brne	.-20     	; 0x1306 <main+0x264>
check_sig():
/Users/askn/Documents/Zinnia-tools/Products/hardware/UPDI4AVR/libraries/UPDI4AVR/examples/UPDI4AVR_FW753B/src/UPDI.cpp:233
/*
 * Dummy SIGNATURE
 */

bool UPDI::check_sig (void) {
  uint8_t mem_type  = JTAG2::packet.body[1];
    131a:	80 91 68 38 	lds	r24, 0x3868	; 0x803868 <JTAG2::packet+0x9>
/Users/askn/Documents/Zinnia-tools/Products/hardware/UPDI4AVR/libraries/UPDI4AVR/examples/UPDI4AVR_FW753B/src/UPDI.cpp:237
  uint8_t s = _CAPS32(JTAG2::packet.body[2])->bytes[0];
  uint8_t a = _CAPS32(JTAG2::packet.body[6])->bytes[0] - NVM::BASE_SIGROW;
  uint8_t c;
  if (bit_is_clear(UPDI_CONTROL, UPDI_PROG_bp) && mem_type == JTAG2::MTYPE_SIGN_JTAG && s == 1) {
    131e:	e1 99       	sbic	0x1c, 1	; 28
    1320:	66 c1       	rjmp	.+716    	; 0x15ee <main+0x54c>
    1322:	84 3b       	cpi	r24, 0xB4	; 180
    1324:	09 f0       	breq	.+2      	; 0x1328 <main+0x286>
    1326:	63 c1       	rjmp	.+710    	; 0x15ee <main+0x54c>
    1328:	80 91 69 38 	lds	r24, 0x3869	; 0x803869 <JTAG2::packet+0xa>
    132c:	81 30       	cpi	r24, 0x01	; 1
    132e:	09 f0       	breq	.+2      	; 0x1332 <main+0x290>
    1330:	5e c1       	rjmp	.+700    	; 0x15ee <main+0x54c>
/Users/askn/Documents/Zinnia-tools/Products/hardware/UPDI4AVR/libraries/UPDI4AVR/examples/UPDI4AVR_FW753B/src/UPDI.cpp:235
 */

bool UPDI::check_sig (void) {
  uint8_t mem_type  = JTAG2::packet.body[1];
  uint8_t s = _CAPS32(JTAG2::packet.body[2])->bytes[0];
  uint8_t a = _CAPS32(JTAG2::packet.body[6])->bytes[0] - NVM::BASE_SIGROW;
    1332:	80 91 6d 38 	lds	r24, 0x386D	; 0x80386d <JTAG2::packet+0xe>
/Users/askn/Documents/Zinnia-tools/Products/hardware/UPDI4AVR/libraries/UPDI4AVR/examples/UPDI4AVR_FW753B/src/UPDI.cpp:238
  uint8_t c;
  if (bit_is_clear(UPDI_CONTROL, UPDI_PROG_bp) && mem_type == JTAG2::MTYPE_SIGN_JTAG && s == 1) {
    JTAG2::packet.body[0] = JTAG2::RSP_MEMORY;
    1336:	92 e8       	ldi	r25, 0x82	; 130
    1338:	90 93 67 38 	sts	0x3867, r25	; 0x803867 <JTAG2::packet+0x8>
/Users/askn/Documents/Zinnia-tools/Products/hardware/UPDI4AVR/libraries/UPDI4AVR/examples/UPDI4AVR_FW753B/src/UPDI.cpp:239
    if (bit_is_clear(UPDI_CONTROL, UPDI_INFO_bp)) c = UPDI_LASTH ? 0x00 : 0xFF;
    133c:	e0 99       	sbic	0x1c, 0	; 28
    133e:	3b c1       	rjmp	.+630    	; 0x15b6 <main+0x514>
    1340:	9f b3       	in	r25, 0x1f	; 31
    1342:	81 e0       	ldi	r24, 0x01	; 1
    1344:	91 11       	cpse	r25, r1
    1346:	80 e0       	ldi	r24, 0x00	; 0
    1348:	81 95       	neg	r24
/Users/askn/Documents/Zinnia-tools/Products/hardware/UPDI4AVR/libraries/UPDI4AVR/examples/UPDI4AVR_FW753B/src/UPDI.cpp:246
    else if (a == 1) c = bit_is_set(UPDI_NVMCTRL, UPDI_GEN2_bp) ? 'A'
                       : bit_is_set(UPDI_NVMCTRL, UPDI_LOWF_bp) ? 'm' : 't';
    else if (a == 2) c = bit_is_set(UPDI_NVMCTRL, UPDI_GEN3_bp) ? '3'
                       : bit_is_set(UPDI_NVMCTRL, UPDI_GEN2_bp) ? '2' : '0';
    else return false;
    JTAG2::packet.size = 2;
    134a:	22 e0       	ldi	r18, 0x02	; 2
    134c:	30 e0       	ldi	r19, 0x00	; 0
    134e:	40 e0       	ldi	r20, 0x00	; 0
    1350:	50 e0       	ldi	r21, 0x00	; 0
    1352:	20 93 62 38 	sts	0x3862, r18	; 0x803862 <JTAG2::packet+0x3>
    1356:	30 93 63 38 	sts	0x3863, r19	; 0x803863 <JTAG2::packet+0x4>
    135a:	40 93 64 38 	sts	0x3864, r20	; 0x803864 <JTAG2::packet+0x5>
    135e:	50 93 65 38 	sts	0x3865, r21	; 0x803865 <JTAG2::packet+0x6>
/Users/askn/Documents/Zinnia-tools/Products/hardware/UPDI4AVR/libraries/UPDI4AVR/examples/UPDI4AVR_FW753B/src/UPDI.cpp:247
    JTAG2::packet.body[1] = c;
    1362:	80 93 68 38 	sts	0x3868, r24	; 0x803868 <JTAG2::packet+0x9>
    1366:	65 c0       	rjmp	.+202    	; 0x1432 <main+0x390>
process_command():
/Users/askn/Documents/Zinnia-tools/Products/hardware/UPDI4AVR/libraries/UPDI4AVR/examples/UPDI4AVR_FW753B/src/JTAG2.cpp:275
    1368:	84 31       	cpi	r24, 0x14	; 20
    136a:	09 f4       	brne	.+2      	; 0x136e <main+0x2cc>
    136c:	0a c1       	rjmp	.+532    	; 0x1582 <main+0x4e0>
    136e:	48 f4       	brcc	.+18     	; 0x1382 <main+0x2e0>
    1370:	8b 30       	cpi	r24, 0x0B	; 11
    1372:	48 f2       	brcs	.-110    	; 0x1306 <main+0x264>
    1374:	8d 30       	cpi	r24, 0x0D	; 13
    1376:	10 f0       	brcs	.+4      	; 0x137c <main+0x2da>
    1378:	8f 30       	cpi	r24, 0x0F	; 15
    137a:	29 f6       	brne	.-118    	; 0x1306 <main+0x264>
/Users/askn/Documents/Zinnia-tools/Products/hardware/UPDI4AVR/libraries/UPDI4AVR/examples/UPDI4AVR_FW753B/src/JTAG2.cpp:335
        packet.size = 19;
      break;
    }
    case JTAG2::CMND_GO : {
      if (bit_is_set(UPDI_CONTROL, UPDI::UPDI_PROG_bp)) UPDI::runtime(UPDI::UPDI_CMD_GO);
      JTAG2::set_response(JTAG2::RSP_OK);
    137c:	80 e8       	ldi	r24, 0x80	; 128
    137e:	90 e0       	ldi	r25, 0x00	; 0
    1380:	9b c0       	rjmp	.+310    	; 0x14b8 <main+0x416>
/Users/askn/Documents/Zinnia-tools/Products/hardware/UPDI4AVR/libraries/UPDI4AVR/examples/UPDI4AVR_FW753B/src/JTAG2.cpp:275
}

/* JTAG Process */
inline void JTAG2::process_command (void) {
  wdt_reset();
  switch ( packet.body[0] ) {
    1382:	84 33       	cpi	r24, 0x34	; 52
    1384:	09 f4       	brne	.+2      	; 0x1388 <main+0x2e6>
    1386:	5d c1       	rjmp	.+698    	; 0x1642 <main+0x5a0>
    1388:	86 33       	cpi	r24, 0x36	; 54
    138a:	09 f4       	brne	.+2      	; 0x138e <main+0x2ec>
    138c:	86 c1       	rjmp	.+780    	; 0x169a <main+0x5f8>
    138e:	85 31       	cpi	r24, 0x15	; 21
    1390:	09 f0       	breq	.+2      	; 0x1394 <main+0x2f2>
    1392:	b9 cf       	rjmp	.-142    	; 0x1306 <main+0x264>
    1394:	f3 cf       	rjmp	.-26     	; 0x137c <main+0x2da>
RTS_Disable():
/Users/askn/Documents/Zinnia-tools/Products/hardware/UPDI4AVR/libraries/UPDI4AVR/examples/UPDI4AVR_FW753B/src/SYS.cpp:107
void SYS::RTS_Enable (void) {
  pinControlRegister(RTS_SENSE_PIN) = RTS_SENSE_CONFIG;
}

void SYS::RTS_Disable (void) {
  pinControlRegister(RTS_SENSE_PIN) = RTS_SENSE_DISABLE;
    1396:	88 e0       	ldi	r24, 0x08	; 8
    1398:	80 93 12 04 	sts	0x0412, r24	; 0x800412 <UPDI::nvmprog_key+0x7f6c74>
WDT_ON():
/Users/askn/Documents/Zinnia-tools/Products/hardware/UPDI4AVR/libraries/UPDI4AVR/examples/UPDI4AVR_FW753B/src/SYS.cpp:139
  _PROTECTED_WRITE(WDT_CTRLA, _wdt_period);
}

void SYS::WDT_OFF (void) { WDT_SET(WDT_PERIOD_OFF_gc); }

void SYS::WDT_ON (void) { WDT_SET(WDT_PERIOD_8KCLK_gc); }
    139c:	8b e0       	ldi	r24, 0x0B	; 11
    139e:	06 d8       	rcall	.-4084   	; 0x3ac <SYS::WDT_SET(unsigned char)>
LED_Stop():
/Users/askn/Documents/Zinnia-tools/Products/hardware/UPDI4AVR/libraries/UPDI4AVR/examples/UPDI4AVR_FW753B/src/TIM.cpp:182
}

/* 停止（UPDI許認可前）*/
/* TCA0はチャージポンプ駆動速度に変更 */
void TIM::LED_Stop (void) {
  if (TIM::mode != 0) {
    13a0:	80 91 50 38 	lds	r24, 0x3850	; 0x803850 <TIM::mode>
    13a4:	88 23       	and	r24, r24
    13a6:	41 f0       	breq	.+16     	; 0x13b8 <main+0x316>
/Users/askn/Documents/Zinnia-tools/Products/hardware/UPDI4AVR/libraries/UPDI4AVR/examples/UPDI4AVR_FW753B/src/TIM.cpp:183
    TIM::mode = 0;
    13a8:	10 92 50 38 	sts	0x3850, r1	; 0x803850 <TIM::mode>
/Users/askn/Documents/Zinnia-tools/Products/hardware/UPDI4AVR/libraries/UPDI4AVR/examples/UPDI4AVR_FW753B/src/TIM.cpp:184
    TCA0_SPLIT_CTRLA = TCA_SPLIT_RUNSTDBY_bm | TCA_SPLIT_ENABLE_bm | TCA_SPLIT_CLKSEL_DIV1_gc;
    13ac:	81 e8       	ldi	r24, 0x81	; 129
    13ae:	80 93 00 0a 	sts	0x0A00, r24	; 0x800a00 <UPDI::nvmprog_key+0x7f7262>
/Users/askn/Documents/Zinnia-tools/Products/hardware/UPDI4AVR/libraries/UPDI4AVR/examples/UPDI4AVR_FW753B/src/TIM.cpp:185
    LEDG_EVOUT = EVSYS_USER_OFF_gc;
    13b2:	10 92 a9 01 	sts	0x01A9, r1	; 0x8001a9 <UPDI::nvmprog_key+0x7f6a0b>
/Users/askn/Documents/Zinnia-tools/Products/hardware/UPDI4AVR/libraries/UPDI4AVR/examples/UPDI4AVR_FW753B/src/TIM.cpp:186
    digitalWrite(LEDG_PIN, LOW);
    13b6:	0f 98       	cbi	0x01, 7	; 1
PG_Enable():
/Users/askn/Documents/Zinnia-tools/Products/hardware/UPDI4AVR/libraries/UPDI4AVR/examples/UPDI4AVR_FW753B/src/SYS.cpp:95
/*
 * 各種ON/OFF
 */

void SYS::PG_Enable (void) {
  digitalWrite(PGEN_PIN, HIGH);
    13b8:	48 9a       	sbi	0x09, 0	; 9
transfer_enable():
/Users/askn/Documents/Zinnia-tools/Products/hardware/UPDI4AVR/libraries/UPDI4AVR/examples/UPDI4AVR_FW753B/src/JTAG2.cpp:90
  JTAG_USART.CTRLB = JTAG_USART_OFF;
}

void JTAG2::transfer_enable (void) {
  SYS::PG_Enable();
  pinMode(JTAG_TXD_PIN, OUTPUT);
    13ba:	42 9a       	sbi	0x08, 2	; 8
    13bc:	10 92 52 04 	sts	0x0452, r1	; 0x800452 <UPDI::nvmprog_key+0x7f6cb4>
/Users/askn/Documents/Zinnia-tools/Products/hardware/UPDI4AVR/libraries/UPDI4AVR/examples/UPDI4AVR_FW753B/src/JTAG2.cpp:91
  JTAG_USART.CTRLB = JTAG_USART_ON;
    13c0:	88 ec       	ldi	r24, 0xC8	; 200
    13c2:	80 93 26 08 	sts	0x0826, r24	; 0x800826 <UPDI::nvmprog_key+0x7f7088>
sign_on_response():
/Users/askn/Documents/Zinnia-tools/Products/hardware/UPDI4AVR/libraries/UPDI4AVR/examples/UPDI4AVR_FW753B/src/JTAG2.cpp:175
  packet.body[3] = UPDI_NVMCTRL;
}

/* SIGN_ON Response */
void JTAG2::sign_on_response (void) {
  packet.size = sizeof(sign_on_resp);
    13c6:	40 92 62 38 	sts	0x3862, r4	; 0x803862 <JTAG2::packet+0x3>
    13ca:	50 92 63 38 	sts	0x3863, r5	; 0x803863 <JTAG2::packet+0x4>
    13ce:	60 92 64 38 	sts	0x3864, r6	; 0x803864 <JTAG2::packet+0x5>
    13d2:	70 92 65 38 	sts	0x3865, r7	; 0x803865 <JTAG2::packet+0x6>
    13d6:	e8 e7       	ldi	r30, 0x78	; 120
    13d8:	f0 e0       	ldi	r31, 0x00	; 0
    13da:	84 e8       	ldi	r24, 0x84	; 132
    13dc:	98 e3       	ldi	r25, 0x38	; 56
/Users/askn/Documents/Zinnia-tools/Products/hardware/UPDI4AVR/libraries/UPDI4AVR/examples/UPDI4AVR_FW753B/src/JTAG2.cpp:177
  for (uint8_t i = 0; i < sizeof(sign_on_resp); i++)
    packet.body[i] = pgm_read_byte( &sign_on_resp[i] );
    13de:	24 91       	lpm	r18, Z
    13e0:	29 93       	st	Y+, r18
    13e2:	31 96       	adiw	r30, 0x01	; 1
/Users/askn/Documents/Zinnia-tools/Products/hardware/UPDI4AVR/libraries/UPDI4AVR/examples/UPDI4AVR_FW753B/src/JTAG2.cpp:176
}

/* SIGN_ON Response */
void JTAG2::sign_on_response (void) {
  packet.size = sizeof(sign_on_resp);
  for (uint8_t i = 0; i < sizeof(sign_on_resp); i++)
    13e4:	8c 17       	cp	r24, r28
    13e6:	9d 07       	cpc	r25, r29
    13e8:	d1 f7       	brne	.-12     	; 0x13de <main+0x33c>
/Users/askn/Documents/Zinnia-tools/Products/hardware/UPDI4AVR/libraries/UPDI4AVR/examples/UPDI4AVR_FW753B/src/JTAG2.cpp:182
    packet.body[i] = pgm_read_byte( &sign_on_resp[i] );
  /* SERNUMから Version情報を生成する */
  uint8_t* p = (uint8_t*) &SIGROW_SERNUM0;
  uint8_t* q = (uint8_t*) &SIGROW_SERNUM4;
  uint8_t* r = (uint8_t*) &packet.body[10];
    *r++ = *q++ ^ *p++ ^ *p++;
    13ea:	80 91 07 11 	lds	r24, 0x1107	; 0x801107 <UPDI::nvmprog_key+0x7f7969>
    13ee:	90 91 03 11 	lds	r25, 0x1103	; 0x801103 <UPDI::nvmprog_key+0x7f7965>
    13f2:	89 27       	eor	r24, r25
    13f4:	90 91 04 11 	lds	r25, 0x1104	; 0x801104 <UPDI::nvmprog_key+0x7f7966>
    13f8:	89 27       	eor	r24, r25
    13fa:	80 93 71 38 	sts	0x3871, r24	; 0x803871 <JTAG2::packet+0x12>
/Users/askn/Documents/Zinnia-tools/Products/hardware/UPDI4AVR/libraries/UPDI4AVR/examples/UPDI4AVR_FW753B/src/JTAG2.cpp:183
    *r++ = *q++ ^ *p++ ^ *p++;
    13fe:	80 91 08 11 	lds	r24, 0x1108	; 0x801108 <UPDI::nvmprog_key+0x7f796a>
    1402:	90 91 05 11 	lds	r25, 0x1105	; 0x801105 <UPDI::nvmprog_key+0x7f7967>
    1406:	89 27       	eor	r24, r25
    1408:	90 91 06 11 	lds	r25, 0x1106	; 0x801106 <UPDI::nvmprog_key+0x7f7968>
    140c:	89 27       	eor	r24, r25
    140e:	80 93 72 38 	sts	0x3872, r24	; 0x803872 <JTAG2::packet+0x13>
/Users/askn/Documents/Zinnia-tools/Products/hardware/UPDI4AVR/libraries/UPDI4AVR/examples/UPDI4AVR_FW753B/src/JTAG2.cpp:184
    *r++ = *q++;
    1412:	80 91 09 11 	lds	r24, 0x1109	; 0x801109 <UPDI::nvmprog_key+0x7f796b>
    1416:	80 93 73 38 	sts	0x3873, r24	; 0x803873 <JTAG2::packet+0x14>
/Users/askn/Documents/Zinnia-tools/Products/hardware/UPDI4AVR/libraries/UPDI4AVR/examples/UPDI4AVR_FW753B/src/JTAG2.cpp:185
    *r++ = *q++;
    141a:	80 91 0a 11 	lds	r24, 0x110A	; 0x80110a <UPDI::nvmprog_key+0x7f796c>
    141e:	80 93 74 38 	sts	0x3874, r24	; 0x803874 <JTAG2::packet+0x15>
/Users/askn/Documents/Zinnia-tools/Products/hardware/UPDI4AVR/libraries/UPDI4AVR/examples/UPDI4AVR_FW753B/src/JTAG2.cpp:186
    *r++ = *q++;
    1422:	80 91 0b 11 	lds	r24, 0x110B	; 0x80110b <UPDI::nvmprog_key+0x7f796d>
    1426:	80 93 75 38 	sts	0x3875, r24	; 0x803875 <JTAG2::packet+0x16>
/Users/askn/Documents/Zinnia-tools/Products/hardware/UPDI4AVR/libraries/UPDI4AVR/examples/UPDI4AVR_FW753B/src/JTAG2.cpp:187
    *r++ = *q++;
    142a:	80 91 0c 11 	lds	r24, 0x110C	; 0x80110c <UPDI::nvmprog_key+0x7f796e>
    142e:	80 93 76 38 	sts	0x3876, r24	; 0x803876 <JTAG2::packet+0x17>
process_command():
/Users/askn/Documents/Zinnia-tools/Products/hardware/UPDI4AVR/libraries/UPDI4AVR/examples/UPDI4AVR_FW753B/src/JTAG2.cpp:373
    }
    default : {
      JTAG2::set_response(JTAG2::RSP_FAILED);
    }
  }
  JTAG2::answer_transfer();
    1432:	0f d8       	rcall	.-4066   	; 0x452 <JTAG2::answer_transfer()>
    1434:	06 cf       	rjmp	.-500    	; 0x1242 <main+0x1a0>
set_parameter():
/Users/askn/Documents/Zinnia-tools/Products/hardware/UPDI4AVR/libraries/UPDI4AVR/examples/UPDI4AVR_FW753B/src/JTAG2.cpp:193
  JTAG2::answer_transfer();
}

/* CMND_SET_PARAMETER */
bool JTAG2::set_parameter (void) {
  uint8_t param_val = packet.body[2];
    1436:	f0 90 69 38 	lds	r15, 0x3869	; 0x803869 <JTAG2::packet+0xa>
/Users/askn/Documents/Zinnia-tools/Products/hardware/UPDI4AVR/libraries/UPDI4AVR/examples/UPDI4AVR_FW753B/src/JTAG2.cpp:194
  switch (packet.body[1]) {
    143a:	80 91 68 38 	lds	r24, 0x3868	; 0x803868 <JTAG2::packet+0x9>
    143e:	83 30       	cpi	r24, 0x03	; 3
    1440:	b1 f1       	breq	.+108    	; 0x14ae <main+0x40c>
    1442:	85 30       	cpi	r24, 0x05	; 5
    1444:	09 f0       	breq	.+2      	; 0x1448 <main+0x3a6>
    1446:	9a cf       	rjmp	.-204    	; 0x137c <main+0x2da>
/Users/askn/Documents/Zinnia-tools/Products/hardware/UPDI4AVR/libraries/UPDI4AVR/examples/UPDI4AVR_FW753B/src/JTAG2.cpp:203
      break;
    }
    /* JTAGインタフェース速度 */
    case JTAG2::PARAM_BAUD_RATE : {
      /* 対応範囲確認 */
      if ((param_val >= JTAG2::BAUD_LOWER) && (param_val <= JTAG2::BAUD_UPPER)) {
    1448:	8e ef       	ldi	r24, 0xFE	; 254
    144a:	8f 0d       	add	r24, r15
    144c:	88 31       	cpi	r24, 0x18	; 24
    144e:	90 f5       	brcc	.+100    	; 0x14b4 <main+0x412>
/Users/askn/Documents/Zinnia-tools/Products/hardware/UPDI4AVR/libraries/UPDI4AVR/examples/UPDI4AVR_FW753B/src/JTAG2.cpp:204
        uint16_t baud = pgm_read_word( &BAUD_TABLE[param_val] );
    1450:	8f 2d       	mov	r24, r15
    1452:	90 e0       	ldi	r25, 0x00	; 0
    1454:	fc 01       	movw	r30, r24
    1456:	ee 0f       	add	r30, r30
    1458:	ff 1f       	adc	r31, r31
    145a:	eb 56       	subi	r30, 0x6B	; 107
    145c:	ff 4f       	sbci	r31, 0xFF	; 255
    145e:	c5 91       	lpm	r28, Z+
    1460:	d4 91       	lpm	r29, Z
    1462:	8e 01       	movw	r16, r28
/Users/askn/Documents/Zinnia-tools/Products/hardware/UPDI4AVR/libraries/UPDI4AVR/examples/UPDI4AVR_FW753B/src/JTAG2.cpp:205
        if (baud) {
    1464:	20 97       	sbiw	r28, 0x00	; 0
    1466:	31 f1       	breq	.+76     	; 0x14b4 <main+0x412>
/Users/askn/Documents/Zinnia-tools/Products/hardware/UPDI4AVR/libraries/UPDI4AVR/examples/UPDI4AVR_FW753B/src/JTAG2.cpp:207
          /* 正常なら応答したのち速度変更 */
          PARAM_BAUD_RATE_VAL = (jtag_baud_rate_e) param_val;
    1468:	80 93 33 38 	sts	0x3833, r24	; 0x803833 <JTAG2::PARAM_BAUD_RATE_VAL>
    146c:	90 93 34 38 	sts	0x3834, r25	; 0x803834 <JTAG2::PARAM_BAUD_RATE_VAL+0x1>
/Users/askn/Documents/Zinnia-tools/Products/hardware/UPDI4AVR/libraries/UPDI4AVR/examples/UPDI4AVR_FW753B/src/JTAG2.cpp:208
          JTAG2::set_response(JTAG2::RSP_OK);
    1470:	80 e8       	ldi	r24, 0x80	; 128
    1472:	90 e0       	ldi	r25, 0x00	; 0
    1474:	0e 94 fa 01 	call	0x3f4	; 0x3f4 <JTAG2::set_response(JTAG2::jtag_response_e)>
/Users/askn/Documents/Zinnia-tools/Products/hardware/UPDI4AVR/libraries/UPDI4AVR/examples/UPDI4AVR_FW753B/src/JTAG2.cpp:209
          JTAG2::answer_transfer();
    1478:	0e 94 29 02 	call	0x452	; 0x452 <JTAG2::answer_transfer()>
flush():
/Users/askn/Documents/Zinnia-tools/Products/hardware/UPDI4AVR/libraries/UPDI4AVR/examples/UPDI4AVR_FW753B/src/JTAG2.cpp:112
  JTAG_USART.STATUS = USART_TXCIF_bm;
  return JTAG_USART.TXDATAL = _data;
}

void JTAG2::flush (void) {
  loop_until_bit_is_set(JTAG_USART.STATUS, USART_TXCIF_bp);
    147c:	80 91 24 08 	lds	r24, 0x0824	; 0x800824 <UPDI::nvmprog_key+0x7f7086>
    1480:	86 ff       	sbrs	r24, 6
    1482:	fc cf       	rjmp	.-8      	; 0x147c <main+0x3da>
set_parameter():
/Users/askn/Documents/Zinnia-tools/Products/hardware/UPDI4AVR/libraries/UPDI4AVR/examples/UPDI4AVR_FW753B/src/JTAG2.cpp:211
          /* 正常なら応答したのち速度変更 */
          PARAM_BAUD_RATE_VAL = (jtag_baud_rate_e) param_val;
          JTAG2::set_response(JTAG2::RSP_OK);
          JTAG2::answer_transfer();
          JTAG2::flush();
          if (baud < 64) {
    1484:	c0 34       	cpi	r28, 0x40	; 64
    1486:	d1 05       	cpc	r29, r1
    1488:	30 f4       	brcc	.+12     	; 0x1496 <main+0x3f4>
/Users/askn/Documents/Zinnia-tools/Products/hardware/UPDI4AVR/libraries/UPDI4AVR/examples/UPDI4AVR_FW753B/src/JTAG2.cpp:212
            JTAG_USART.CTRLB = JTAG_USART_DBLON;
    148a:	8a ec       	ldi	r24, 0xCA	; 202
    148c:	80 93 26 08 	sts	0x0826, r24	; 0x800826 <UPDI::nvmprog_key+0x7f7088>
/Users/askn/Documents/Zinnia-tools/Products/hardware/UPDI4AVR/libraries/UPDI4AVR/examples/UPDI4AVR_FW753B/src/JTAG2.cpp:213
            baud <<= 1;
    1490:	8e 01       	movw	r16, r28
    1492:	00 0f       	add	r16, r16
    1494:	11 1f       	adc	r17, r17
/Users/askn/Documents/Zinnia-tools/Products/hardware/UPDI4AVR/libraries/UPDI4AVR/examples/UPDI4AVR_FW753B/src/JTAG2.cpp:215
          }
          JTAG_USART.BAUD = baud;
    1496:	00 93 28 08 	sts	0x0828, r16	; 0x800828 <UPDI::nvmprog_key+0x7f708a>
    149a:	10 93 29 08 	sts	0x0829, r17	; 0x800829 <UPDI::nvmprog_key+0x7f708b>
/Users/askn/Documents/Zinnia-tools/Products/hardware/UPDI4AVR/libraries/UPDI4AVR/examples/UPDI4AVR_FW753B/src/JTAG2.cpp:217
          /* terminal mode を許可する速度 */
          if (param_val == JTAG2::BAUD_38400 || param_val == JTAG2::BAUD_666666)
    149e:	f5 e0       	ldi	r31, 0x05	; 5
    14a0:	ff 16       	cp	r15, r31
    14a2:	19 f0       	breq	.+6      	; 0x14aa <main+0x408>
    14a4:	28 e1       	ldi	r18, 0x18	; 24
    14a6:	f2 12       	cpse	r15, r18
    14a8:	cc ce       	rjmp	.-616    	; 0x1242 <main+0x1a0>
/Users/askn/Documents/Zinnia-tools/Products/hardware/UPDI4AVR/libraries/UPDI4AVR/examples/UPDI4AVR_FW753B/src/JTAG2.cpp:218
            UPDI_CONTROL |= _BV(UPDI::UPDI_TERM_bp);
    14aa:	e6 9a       	sbi	0x1c, 6	; 28
    14ac:	ca ce       	rjmp	.-620    	; 0x1242 <main+0x1a0>
/Users/askn/Documents/Zinnia-tools/Products/hardware/UPDI4AVR/libraries/UPDI4AVR/examples/UPDI4AVR_FW753B/src/JTAG2.cpp:197
bool JTAG2::set_parameter (void) {
  uint8_t param_val = packet.body[2];
  switch (packet.body[1]) {
    /* エミュレーションモード */
    case JTAG2::PARAM_EMU_MODE : {
      PARAM_EMU_MODE_VAL = param_val;
    14ae:	f0 92 4f 38 	sts	0x384F, r15	; 0x80384f <JTAG2::PARAM_EMU_MODE_VAL>
    14b2:	64 cf       	rjmp	.-312    	; 0x137c <main+0x2da>
/Users/askn/Documents/Zinnia-tools/Products/hardware/UPDI4AVR/libraries/UPDI4AVR/examples/UPDI4AVR_FW753B/src/JTAG2.cpp:223
            UPDI_CONTROL |= _BV(UPDI::UPDI_TERM_bp);
          return false;
        }
      }
      /* 範囲違反は失敗応答 */
      JTAG2::set_response(JTAG2::RSP_ILLEGAL_VALUE);
    14b4:	86 ea       	ldi	r24, 0xA6	; 166
    14b6:	90 e0       	ldi	r25, 0x00	; 0
process_command():
/Users/askn/Documents/Zinnia-tools/Products/hardware/UPDI4AVR/libraries/UPDI4AVR/examples/UPDI4AVR_FW753B/src/JTAG2.cpp:370
    case JTAG2::CMND_LEAVE_PROGMODE : {
      JTAG2::set_response(JTAG2::RSP_OK);
      break;
    }
    default : {
      JTAG2::set_response(JTAG2::RSP_FAILED);
    14b8:	0e 94 fa 01 	call	0x3f4	; 0x3f4 <JTAG2::set_response(JTAG2::jtag_response_e)>
    14bc:	ba cf       	rjmp	.-140    	; 0x1432 <main+0x390>
get_parameter():
/Users/askn/Documents/Zinnia-tools/Products/hardware/UPDI4AVR/libraries/UPDI4AVR/examples/UPDI4AVR_FW753B/src/JTAG2.cpp:234
}

/* CMND_GET_PARAMETER */
void JTAG2::get_parameter (void) {
  volatile uint8_t &param_type = packet.body[1];
  switch (param_type) {
    14be:	80 91 68 38 	lds	r24, 0x3868	; 0x803868 <JTAG2::packet+0x9>
    14c2:	83 30       	cpi	r24, 0x03	; 3
    14c4:	09 f4       	brne	.+2      	; 0x14c8 <main+0x426>
    14c6:	51 c0       	rjmp	.+162    	; 0x156a <main+0x4c8>
    14c8:	38 f4       	brcc	.+14     	; 0x14d8 <main+0x436>
    14ca:	81 30       	cpi	r24, 0x01	; 1
    14cc:	81 f1       	breq	.+96     	; 0x152e <main+0x48c>
    14ce:	82 30       	cpi	r24, 0x02	; 2
    14d0:	b9 f1       	breq	.+110    	; 0x1540 <main+0x49e>
/Users/askn/Documents/Zinnia-tools/Products/hardware/UPDI4AVR/libraries/UPDI4AVR/examples/UPDI4AVR_FW753B/src/JTAG2.cpp:265
      _CAPS16(packet.body[1])->word = SYS::get_vcc();
      packet.size_word[0] = 3;
      break;
    }
    default : {
      JTAG2::set_response(JTAG2::RSP_ILLEGAL_PARAMETER);
    14d2:	81 ea       	ldi	r24, 0xA1	; 161
    14d4:	90 e0       	ldi	r25, 0x00	; 0
    14d6:	f0 cf       	rjmp	.-32     	; 0x14b8 <main+0x416>
/Users/askn/Documents/Zinnia-tools/Products/hardware/UPDI4AVR/libraries/UPDI4AVR/examples/UPDI4AVR_FW753B/src/JTAG2.cpp:234
}

/* CMND_GET_PARAMETER */
void JTAG2::get_parameter (void) {
  volatile uint8_t &param_type = packet.body[1];
  switch (param_type) {
    14d8:	85 30       	cpi	r24, 0x05	; 5
    14da:	09 f4       	brne	.+2      	; 0x14de <main+0x43c>
    14dc:	4f c0       	rjmp	.+158    	; 0x157c <main+0x4da>
    14de:	86 30       	cpi	r24, 0x06	; 6
    14e0:	c1 f7       	brne	.-16     	; 0x14d2 <main+0x430>
get_vcc():
/Users/askn/Documents/Zinnia-tools/Products/hardware/UPDI4AVR/libraries/UPDI4AVR/examples/UPDI4AVR_FW753B/src/SYS.cpp:69
/*
 * 自己VCC測定
 */

uint16_t SYS::get_vcc (void) {
  ADC0_CTRLA = ADC_ENABLE_bm;
    14e2:	81 e0       	ldi	r24, 0x01	; 1
    14e4:	80 93 00 06 	sts	0x0600, r24	; 0x800600 <UPDI::nvmprog_key+0x7f6e62>
/Users/askn/Documents/Zinnia-tools/Products/hardware/UPDI4AVR/libraries/UPDI4AVR/examples/UPDI4AVR_FW753B/src/SYS.cpp:70
  ADC0_CTRLB = ADC_PRESC_DIV2_gc;
    14e8:	10 92 01 06 	sts	0x0601, r1	; 0x800601 <UPDI::nvmprog_key+0x7f6e63>
/Users/askn/Documents/Zinnia-tools/Products/hardware/UPDI4AVR/libraries/UPDI4AVR/examples/UPDI4AVR_FW753B/src/SYS.cpp:71
  ADC0_CTRLC = ADC_REFSEL_1024MV_gc | ((F_CPU / 1000000UL) << ADC_TIMEBASE_gp);
    14ec:	84 e5       	ldi	r24, 0x54	; 84
    14ee:	80 93 02 06 	sts	0x0602, r24	; 0x800602 <UPDI::nvmprog_key+0x7f6e64>
/Users/askn/Documents/Zinnia-tools/Products/hardware/UPDI4AVR/libraries/UPDI4AVR/examples/UPDI4AVR_FW753B/src/SYS.cpp:72
  ADC0_CTRLE = 17; /* (SAMPDUR + 0.5) * fCLK_ADC = 10.5 µs sample duration */
    14f2:	81 e1       	ldi	r24, 0x11	; 17
    14f4:	80 93 08 06 	sts	0x0608, r24	; 0x800608 <UPDI::nvmprog_key+0x7f6e6a>
/Users/askn/Documents/Zinnia-tools/Products/hardware/UPDI4AVR/libraries/UPDI4AVR/examples/UPDI4AVR_FW753B/src/SYS.cpp:73
  ADC0_MUXPOS = ADC_MUXPOS_VDDDIV10_gc; /* ADC channel VDD/10 */
    14f8:	91 e3       	ldi	r25, 0x31	; 49
    14fa:	90 93 0c 06 	sts	0x060C, r25	; 0x80060c <UPDI::nvmprog_key+0x7f6e6e>
/Users/askn/Documents/Zinnia-tools/Products/hardware/UPDI4AVR/libraries/UPDI4AVR/examples/UPDI4AVR_FW753B/src/SYS.cpp:74
  ADC0_COMMAND = ADC_MODE_SINGLE_12BIT_gc | ADC_START_IMMEDIATE_gc;
    14fe:	80 93 0a 06 	sts	0x060A, r24	; 0x80060a <UPDI::nvmprog_key+0x7f6e6c>
/Users/askn/Documents/Zinnia-tools/Products/hardware/UPDI4AVR/libraries/UPDI4AVR/examples/UPDI4AVR_FW753B/src/SYS.cpp:75
  loop_until_bit_is_set(ADC0_INTFLAGS, ADC_SAMPRDY_bp);
    1502:	80 91 05 06 	lds	r24, 0x0605	; 0x800605 <UPDI::nvmprog_key+0x7f6e67>
    1506:	81 ff       	sbrs	r24, 1
    1508:	fc cf       	rjmp	.-8      	; 0x1502 <main+0x460>
/Users/askn/Documents/Zinnia-tools/Products/hardware/UPDI4AVR/libraries/UPDI4AVR/examples/UPDI4AVR_FW753B/src/SYS.cpp:76
  uint16_t adc_reading = ADC0_SAMPLE;
    150a:	80 91 14 06 	lds	r24, 0x0614	; 0x800614 <UPDI::nvmprog_key+0x7f6e76>
    150e:	90 91 15 06 	lds	r25, 0x0615	; 0x800615 <UPDI::nvmprog_key+0x7f6e77>
/Users/askn/Documents/Zinnia-tools/Products/hardware/UPDI4AVR/libraries/UPDI4AVR/examples/UPDI4AVR_FW753B/src/SYS.cpp:77
  adc_reading += adc_reading + (adc_reading >> 1);  /* x2.5 */
    1512:	9c 01       	movw	r18, r24
    1514:	36 95       	lsr	r19
    1516:	27 95       	ror	r18
    1518:	88 0f       	add	r24, r24
    151a:	99 1f       	adc	r25, r25
/Users/askn/Documents/Zinnia-tools/Products/hardware/UPDI4AVR/libraries/UPDI4AVR/examples/UPDI4AVR_FW753B/src/SYS.cpp:78
  ADC0_CTRLA = 0;
    151c:	10 92 00 06 	sts	0x0600, r1	; 0x800600 <UPDI::nvmprog_key+0x7f6e62>
/Users/askn/Documents/Zinnia-tools/Products/hardware/UPDI4AVR/libraries/UPDI4AVR/examples/UPDI4AVR_FW753B/src/SYS.cpp:77
  ADC0_CTRLE = 17; /* (SAMPDUR + 0.5) * fCLK_ADC = 10.5 µs sample duration */
  ADC0_MUXPOS = ADC_MUXPOS_VDDDIV10_gc; /* ADC channel VDD/10 */
  ADC0_COMMAND = ADC_MODE_SINGLE_12BIT_gc | ADC_START_IMMEDIATE_gc;
  loop_until_bit_is_set(ADC0_INTFLAGS, ADC_SAMPRDY_bp);
  uint16_t adc_reading = ADC0_SAMPLE;
  adc_reading += adc_reading + (adc_reading >> 1);  /* x2.5 */
    1520:	82 0f       	add	r24, r18
    1522:	93 1f       	adc	r25, r19
get_parameter():
/Users/askn/Documents/Zinnia-tools/Products/hardware/UPDI4AVR/libraries/UPDI4AVR/examples/UPDI4AVR_FW753B/src/JTAG2.cpp:260
      packet.body[1] = PARAM_BAUD_RATE_VAL;
      packet.size_word[0] = 2;
      break;
    }
    case JTAG2::PARAM_VTARGET : {
      _CAPS16(packet.body[1])->word = SYS::get_vcc();
    1524:	80 93 68 38 	sts	0x3868, r24	; 0x803868 <JTAG2::packet+0x9>
    1528:	90 93 69 38 	sts	0x3869, r25	; 0x803869 <JTAG2::packet+0xa>
    152c:	04 c0       	rjmp	.+8      	; 0x1536 <main+0x494>
/Users/askn/Documents/Zinnia-tools/Products/hardware/UPDI4AVR/libraries/UPDI4AVR/examples/UPDI4AVR_FW753B/src/JTAG2.cpp:236
/* CMND_GET_PARAMETER */
void JTAG2::get_parameter (void) {
  volatile uint8_t &param_type = packet.body[1];
  switch (param_type) {
    case JTAG2::PARAM_HW_VER : {
      packet.body[1] = sign_on_resp[5];
    152e:	80 93 68 38 	sts	0x3868, r24	; 0x803868 <JTAG2::packet+0x9>
/Users/askn/Documents/Zinnia-tools/Products/hardware/UPDI4AVR/libraries/UPDI4AVR/examples/UPDI4AVR_FW753B/src/JTAG2.cpp:237
      packet.body[2] = sign_on_resp[9];
    1532:	80 93 69 38 	sts	0x3869, r24	; 0x803869 <JTAG2::packet+0xa>
/Users/askn/Documents/Zinnia-tools/Products/hardware/UPDI4AVR/libraries/UPDI4AVR/examples/UPDI4AVR_FW753B/src/JTAG2.cpp:261
      packet.size_word[0] = 2;
      break;
    }
    case JTAG2::PARAM_VTARGET : {
      _CAPS16(packet.body[1])->word = SYS::get_vcc();
      packet.size_word[0] = 3;
    1536:	c0 92 62 38 	sts	0x3862, r12	; 0x803862 <JTAG2::packet+0x3>
    153a:	d0 92 63 38 	sts	0x3863, r13	; 0x803863 <JTAG2::packet+0x4>
    153e:	11 c0       	rjmp	.+34     	; 0x1562 <main+0x4c0>
/Users/askn/Documents/Zinnia-tools/Products/hardware/UPDI4AVR/libraries/UPDI4AVR/examples/UPDI4AVR_FW753B/src/JTAG2.cpp:242
      packet.body[2] = sign_on_resp[9];
      packet.size_word[0] = 3;
      break;
    }
    case JTAG2::PARAM_FW_VER : {
      packet.body[1] = sign_on_resp[3];
    1540:	91 e0       	ldi	r25, 0x01	; 1
    1542:	90 93 68 38 	sts	0x3868, r25	; 0x803868 <JTAG2::packet+0x9>
/Users/askn/Documents/Zinnia-tools/Products/hardware/UPDI4AVR/libraries/UPDI4AVR/examples/UPDI4AVR_FW753B/src/JTAG2.cpp:243
      packet.body[2] = sign_on_resp[4];
    1546:	80 93 69 38 	sts	0x3869, r24	; 0x803869 <JTAG2::packet+0xa>
/Users/askn/Documents/Zinnia-tools/Products/hardware/UPDI4AVR/libraries/UPDI4AVR/examples/UPDI4AVR_FW753B/src/JTAG2.cpp:244
      packet.body[3] = sign_on_resp[7];
    154a:	85 e3       	ldi	r24, 0x35	; 53
    154c:	80 93 6a 38 	sts	0x386A, r24	; 0x80386a <JTAG2::packet+0xb>
/Users/askn/Documents/Zinnia-tools/Products/hardware/UPDI4AVR/libraries/UPDI4AVR/examples/UPDI4AVR_FW753B/src/JTAG2.cpp:245
      packet.body[4] = sign_on_resp[8];
    1550:	87 e0       	ldi	r24, 0x07	; 7
    1552:	80 93 6b 38 	sts	0x386B, r24	; 0x80386b <JTAG2::packet+0xc>
/Users/askn/Documents/Zinnia-tools/Products/hardware/UPDI4AVR/libraries/UPDI4AVR/examples/UPDI4AVR_FW753B/src/JTAG2.cpp:246
      packet.size_word[0] = 5;
    1556:	45 e0       	ldi	r20, 0x05	; 5
    1558:	50 e0       	ldi	r21, 0x00	; 0
    155a:	40 93 62 38 	sts	0x3862, r20	; 0x803862 <JTAG2::packet+0x3>
    155e:	50 93 63 38 	sts	0x3863, r21	; 0x803863 <JTAG2::packet+0x4>
/Users/askn/Documents/Zinnia-tools/Products/hardware/UPDI4AVR/libraries/UPDI4AVR/examples/UPDI4AVR_FW753B/src/JTAG2.cpp:269
    default : {
      JTAG2::set_response(JTAG2::RSP_ILLEGAL_PARAMETER);
      return;
    }
  }
  packet.body[0] = JTAG2::RSP_PARAMETER;
    1562:	81 e8       	ldi	r24, 0x81	; 129
    1564:	80 93 67 38 	sts	0x3867, r24	; 0x803867 <JTAG2::packet+0x8>
    1568:	64 cf       	rjmp	.-312    	; 0x1432 <main+0x390>
/Users/askn/Documents/Zinnia-tools/Products/hardware/UPDI4AVR/libraries/UPDI4AVR/examples/UPDI4AVR_FW753B/src/JTAG2.cpp:250
      packet.body[4] = sign_on_resp[8];
      packet.size_word[0] = 5;
      break;
    }
    case JTAG2::PARAM_EMU_MODE : {
      packet.body[1] = PARAM_EMU_MODE_VAL;
    156a:	80 91 4f 38 	lds	r24, 0x384F	; 0x80384f <JTAG2::PARAM_EMU_MODE_VAL>
/Users/askn/Documents/Zinnia-tools/Products/hardware/UPDI4AVR/libraries/UPDI4AVR/examples/UPDI4AVR_FW753B/src/JTAG2.cpp:255
      packet.size_word[0] = 2;
      break;
    }
    case JTAG2::PARAM_BAUD_RATE : {
      packet.body[1] = PARAM_BAUD_RATE_VAL;
    156e:	80 93 68 38 	sts	0x3868, r24	; 0x803868 <JTAG2::packet+0x9>
/Users/askn/Documents/Zinnia-tools/Products/hardware/UPDI4AVR/libraries/UPDI4AVR/examples/UPDI4AVR_FW753B/src/JTAG2.cpp:256
      packet.size_word[0] = 2;
    1572:	20 92 62 38 	sts	0x3862, r2	; 0x803862 <JTAG2::packet+0x3>
    1576:	30 92 63 38 	sts	0x3863, r3	; 0x803863 <JTAG2::packet+0x4>
/Users/askn/Documents/Zinnia-tools/Products/hardware/UPDI4AVR/libraries/UPDI4AVR/examples/UPDI4AVR_FW753B/src/JTAG2.cpp:255
      packet.body[1] = PARAM_EMU_MODE_VAL;
      packet.size_word[0] = 2;
      break;
    }
    case JTAG2::PARAM_BAUD_RATE : {
      packet.body[1] = PARAM_BAUD_RATE_VAL;
    157a:	f3 cf       	rjmp	.-26     	; 0x1562 <main+0x4c0>
    157c:	80 91 33 38 	lds	r24, 0x3833	; 0x803833 <JTAG2::PARAM_BAUD_RATE_VAL>
/Users/askn/Documents/Zinnia-tools/Products/hardware/UPDI4AVR/libraries/UPDI4AVR/examples/UPDI4AVR_FW753B/src/JTAG2.cpp:293
    case JTAG2::CMND_GET_PARAMETER : {
      JTAG2::get_parameter();
      break;
    }
    case JTAG2::CMND_ENTER_PROGMODE : {
      uint8_t c = UPDI_CONTROL;
    1580:	f6 cf       	rjmp	.-20     	; 0x156e <main+0x4cc>
process_command():
/Users/askn/Documents/Zinnia-tools/Products/hardware/UPDI4AVR/libraries/UPDI4AVR/examples/UPDI4AVR_FW753B/src/JTAG2.cpp:294
      UPDI::updi_activate();
    1582:	cc b3       	in	r28, 0x1c	; 28
    1584:	31 d8       	rcall	.-3998   	; 0x5e8 <UPDI::updi_activate()>
/Users/askn/Documents/Zinnia-tools/Products/hardware/UPDI4AVR/libraries/UPDI4AVR/examples/UPDI4AVR_FW753B/src/JTAG2.cpp:295
      JTAG2::set_response(JTAG2::RSP_OK);
    1586:	80 e8       	ldi	r24, 0x80	; 128
    1588:	90 e0       	ldi	r25, 0x00	; 0
    158a:	0e 94 fa 01 	call	0x3f4	; 0x3f4 <JTAG2::set_response(JTAG2::jtag_response_e)>
/Users/askn/Documents/Zinnia-tools/Products/hardware/UPDI4AVR/libraries/UPDI4AVR/examples/UPDI4AVR_FW753B/src/JTAG2.cpp:296
      if (!(c & _BV(UPDI::UPDI_INFO_bp)) && bit_is_set(UPDI_CONTROL, UPDI::UPDI_INFO_bp))
    158e:	c0 fd       	sbrc	r28, 0
    1590:	0a c0       	rjmp	.+20     	; 0x15a6 <main+0x504>
    1592:	e0 9b       	sbis	0x1c, 0	; 28
    1594:	08 c0       	rjmp	.+16     	; 0x15a6 <main+0x504>
/Users/askn/Documents/Zinnia-tools/Products/hardware/UPDI4AVR/libraries/UPDI4AVR/examples/UPDI4AVR_FW753B/src/JTAG2.cpp:297
        packet.size = 19;
    1596:	80 92 62 38 	sts	0x3862, r8	; 0x803862 <JTAG2::packet+0x3>
    159a:	90 92 63 38 	sts	0x3863, r9	; 0x803863 <JTAG2::packet+0x4>
    159e:	a0 92 64 38 	sts	0x3864, r10	; 0x803864 <JTAG2::packet+0x5>
    15a2:	b0 92 65 38 	sts	0x3865, r11	; 0x803865 <JTAG2::packet+0x6>
/Users/askn/Documents/Zinnia-tools/Products/hardware/UPDI4AVR/libraries/UPDI4AVR/examples/UPDI4AVR_FW753B/src/JTAG2.cpp:298
      TIM::LED_Blink();
    15a6:	0e 94 9c 01 	call	0x338	; 0x338 <TIM::LED_Blink()>
/Users/askn/Documents/Zinnia-tools/Products/hardware/UPDI4AVR/libraries/UPDI4AVR/examples/UPDI4AVR_FW753B/src/JTAG2.cpp:300
      /* terminal mode 許可時は WDTを無効にする */
      if (bit_is_set(UPDI_CONTROL, UPDI::UPDI_TERM_bp)) SYS::WDT_OFF();
    15aa:	e6 9b       	sbis	0x1c, 6	; 28
    15ac:	42 cf       	rjmp	.-380    	; 0x1432 <main+0x390>
WDT_OFF():
/Users/askn/Documents/Zinnia-tools/Products/hardware/UPDI4AVR/libraries/UPDI4AVR/examples/UPDI4AVR_FW753B/src/SYS.cpp:137
void SYS::WDT_SET (uint8_t _wdt_period) {
  loop_until_bit_is_clear(WDT_STATUS, WDT_SYNCBUSY_bp);
  _PROTECTED_WRITE(WDT_CTRLA, _wdt_period);
}

void SYS::WDT_OFF (void) { WDT_SET(WDT_PERIOD_OFF_gc); }
    15ae:	80 e0       	ldi	r24, 0x00	; 0
    15b0:	0e 94 d6 01 	call	0x3ac	; 0x3ac <SYS::WDT_SET(unsigned char)>
    15b4:	3e cf       	rjmp	.-388    	; 0x1432 <main+0x390>
check_sig():
/Users/askn/Documents/Zinnia-tools/Products/hardware/UPDI4AVR/libraries/UPDI4AVR/examples/UPDI4AVR_FW753B/src/UPDI.cpp:240
  uint8_t a = _CAPS32(JTAG2::packet.body[6])->bytes[0] - NVM::BASE_SIGROW;
  uint8_t c;
  if (bit_is_clear(UPDI_CONTROL, UPDI_PROG_bp) && mem_type == JTAG2::MTYPE_SIGN_JTAG && s == 1) {
    JTAG2::packet.body[0] = JTAG2::RSP_MEMORY;
    if (bit_is_clear(UPDI_CONTROL, UPDI_INFO_bp)) c = UPDI_LASTH ? 0x00 : 0xFF;
    else if (a == 0) c = 0x1E;
    15b6:	88 23       	and	r24, r24
    15b8:	81 f0       	breq	.+32     	; 0x15da <main+0x538>
/Users/askn/Documents/Zinnia-tools/Products/hardware/UPDI4AVR/libraries/UPDI4AVR/examples/UPDI4AVR_FW753B/src/UPDI.cpp:241
    else if (a == 1) c = bit_is_set(UPDI_NVMCTRL, UPDI_GEN2_bp) ? 'A'
    15ba:	81 30       	cpi	r24, 0x01	; 1
    15bc:	31 f4       	brne	.+12     	; 0x15ca <main+0x528>
    15be:	e9 99       	sbic	0x1d, 1	; 29
    15c0:	0e c0       	rjmp	.+28     	; 0x15de <main+0x53c>
    15c2:	e8 99       	sbic	0x1d, 0	; 29
    15c4:	0e c0       	rjmp	.+28     	; 0x15e2 <main+0x540>
main():
    15c6:	84 e7       	ldi	r24, 0x74	; 116
    15c8:	c0 ce       	rjmp	.-640    	; 0x134a <main+0x2a8>
check_sig():
/Users/askn/Documents/Zinnia-tools/Products/hardware/UPDI4AVR/libraries/UPDI4AVR/examples/UPDI4AVR_FW753B/src/UPDI.cpp:243
                       : bit_is_set(UPDI_NVMCTRL, UPDI_LOWF_bp) ? 'm' : 't';
    else if (a == 2) c = bit_is_set(UPDI_NVMCTRL, UPDI_GEN3_bp) ? '3'
    15ca:	82 30       	cpi	r24, 0x02	; 2
    15cc:	81 f4       	brne	.+32     	; 0x15ee <main+0x54c>
    15ce:	ea 99       	sbic	0x1d, 2	; 29
    15d0:	0a c0       	rjmp	.+20     	; 0x15e6 <main+0x544>
    15d2:	e9 99       	sbic	0x1d, 1	; 29
    15d4:	0a c0       	rjmp	.+20     	; 0x15ea <main+0x548>
main():
    15d6:	80 e3       	ldi	r24, 0x30	; 48
    15d8:	b8 ce       	rjmp	.-656    	; 0x134a <main+0x2a8>
/Users/askn/Documents/Zinnia-tools/Products/hardware/UPDI4AVR/libraries/UPDI4AVR/examples/UPDI4AVR_FW753B/src/UPDI.cpp:240
  uint8_t a = _CAPS32(JTAG2::packet.body[6])->bytes[0] - NVM::BASE_SIGROW;
  uint8_t c;
  if (bit_is_clear(UPDI_CONTROL, UPDI_PROG_bp) && mem_type == JTAG2::MTYPE_SIGN_JTAG && s == 1) {
    JTAG2::packet.body[0] = JTAG2::RSP_MEMORY;
    if (bit_is_clear(UPDI_CONTROL, UPDI_INFO_bp)) c = UPDI_LASTH ? 0x00 : 0xFF;
    else if (a == 0) c = 0x1E;
    15da:	8e e1       	ldi	r24, 0x1E	; 30
    15dc:	b6 ce       	rjmp	.-660    	; 0x134a <main+0x2a8>
/Users/askn/Documents/Zinnia-tools/Products/hardware/UPDI4AVR/libraries/UPDI4AVR/examples/UPDI4AVR_FW753B/src/UPDI.cpp:241
    else if (a == 1) c = bit_is_set(UPDI_NVMCTRL, UPDI_GEN2_bp) ? 'A'
    15de:	81 e4       	ldi	r24, 0x41	; 65
    15e0:	b4 ce       	rjmp	.-664    	; 0x134a <main+0x2a8>
    15e2:	8d e6       	ldi	r24, 0x6D	; 109
    15e4:	b2 ce       	rjmp	.-668    	; 0x134a <main+0x2a8>
/Users/askn/Documents/Zinnia-tools/Products/hardware/UPDI4AVR/libraries/UPDI4AVR/examples/UPDI4AVR_FW753B/src/UPDI.cpp:243
                       : bit_is_set(UPDI_NVMCTRL, UPDI_LOWF_bp) ? 'm' : 't';
    else if (a == 2) c = bit_is_set(UPDI_NVMCTRL, UPDI_GEN3_bp) ? '3'
    15e6:	83 e3       	ldi	r24, 0x33	; 51
    15e8:	b0 ce       	rjmp	.-672    	; 0x134a <main+0x2a8>
    15ea:	82 e3       	ldi	r24, 0x32	; 50
    15ec:	ae ce       	rjmp	.-676    	; 0x134a <main+0x2a8>
process_command():
/Users/askn/Documents/Zinnia-tools/Products/hardware/UPDI4AVR/libraries/UPDI4AVR/examples/UPDI4AVR_FW753B/src/JTAG2.cpp:307
    }
    case JTAG2::CMND_READ_MEMORY : {
      /* 非PROG でも SIG要求にはダミー応答する */
      if (UPDI::check_sig()) break;
      /* terminal mode でなければLED高速点滅 */
      if (bit_is_clear(UPDI_CONTROL, UPDI::UPDI_TERM_bp)) TIM::LED_Fast();
    15ee:	e6 99       	sbic	0x1c, 6	; 28
    15f0:	17 c0       	rjmp	.+46     	; 0x1620 <main+0x57e>
LED_TCB1():
/Users/askn/Documents/Zinnia-tools/Products/hardware/UPDI4AVR/libraries/UPDI4AVR/examples/UPDI4AVR_FW753B/src/TIM.cpp:155
    LEDG_EVOUT = EVSYS_USER_CHANNEL2_gc;
  }
}

void LED_TCB1 (uint8_t mode, uint16_t ccmp) {
  if (TIM::mode != mode) {
    15f2:	80 91 50 38 	lds	r24, 0x3850	; 0x803850 <TIM::mode>
    15f6:	84 30       	cpi	r24, 0x04	; 4
    15f8:	99 f0       	breq	.+38     	; 0x1620 <main+0x57e>
/Users/askn/Documents/Zinnia-tools/Products/hardware/UPDI4AVR/libraries/UPDI4AVR/examples/UPDI4AVR_FW753B/src/TIM.cpp:156
    TIM::mode = mode;
    15fa:	84 e0       	ldi	r24, 0x04	; 4
    15fc:	80 93 50 38 	sts	0x3850, r24	; 0x803850 <TIM::mode>
/Users/askn/Documents/Zinnia-tools/Products/hardware/UPDI4AVR/libraries/UPDI4AVR/examples/UPDI4AVR_FW753B/src/TIM.cpp:157
    TCB1_CCMP = ccmp;
    1600:	45 e1       	ldi	r20, 0x15	; 21
    1602:	51 e0       	ldi	r21, 0x01	; 1
    1604:	40 93 9c 0a 	sts	0x0A9C, r20	; 0x800a9c <UPDI::nvmprog_key+0x7f72fe>
    1608:	50 93 9d 0a 	sts	0x0A9D, r21	; 0x800a9d <UPDI::nvmprog_key+0x7f72ff>
/Users/askn/Documents/Zinnia-tools/Products/hardware/UPDI4AVR/libraries/UPDI4AVR/examples/UPDI4AVR_FW753B/src/TIM.cpp:158
    TCB1_CNT = 0;
    160c:	10 92 9a 0a 	sts	0x0A9A, r1	; 0x800a9a <UPDI::nvmprog_key+0x7f72fc>
    1610:	10 92 9b 0a 	sts	0x0A9B, r1	; 0x800a9b <UPDI::nvmprog_key+0x7f72fd>
/Users/askn/Documents/Zinnia-tools/Products/hardware/UPDI4AVR/libraries/UPDI4AVR/examples/UPDI4AVR_FW753B/src/TIM.cpp:159
    TCB1_CTRLA = TCB_RUNSTDBY_bm | TCB_ENABLE_bm | TCB_CLKSEL_EVENT_gc;
    1614:	8f e4       	ldi	r24, 0x4F	; 79
    1616:	80 93 90 0a 	sts	0x0A90, r24	; 0x800a90 <UPDI::nvmprog_key+0x7f72f2>
/Users/askn/Documents/Zinnia-tools/Products/hardware/UPDI4AVR/libraries/UPDI4AVR/examples/UPDI4AVR_FW753B/src/TIM.cpp:160
    LEDG_EVOUT = EVSYS_USER_CHANNEL0_gc;
    161a:	81 e0       	ldi	r24, 0x01	; 1
    161c:	80 93 a9 01 	sts	0x01A9, r24	; 0x8001a9 <UPDI::nvmprog_key+0x7f6a0b>
process_command():
/Users/askn/Documents/Zinnia-tools/Products/hardware/UPDI4AVR/libraries/UPDI4AVR/examples/UPDI4AVR_FW753B/src/JTAG2.cpp:309
      if (bit_is_clear(UPDI_CONTROL, UPDI::UPDI_PROG_bp)
      || !UPDI::runtime(UPDI::UPDI_CMD_READ_MEMORY)) {
    1620:	e1 99       	sbic	0x1c, 1	; 28
    1622:	03 c0       	rjmp	.+6      	; 0x162a <main+0x588>
/Users/askn/Documents/Zinnia-tools/Products/hardware/UPDI4AVR/libraries/UPDI4AVR/examples/UPDI4AVR_FW753B/src/JTAG2.cpp:310
        JTAG2::set_response(JTAG2::RSP_ILLEGAL_MCU_STATE);
    1624:	85 ea       	ldi	r24, 0xA5	; 165
    1626:	90 e0       	ldi	r25, 0x00	; 0
    1628:	47 cf       	rjmp	.-370    	; 0x14b8 <main+0x416>
/Users/askn/Documents/Zinnia-tools/Products/hardware/UPDI4AVR/libraries/UPDI4AVR/examples/UPDI4AVR_FW753B/src/JTAG2.cpp:309
      /* 非PROG でも SIG要求にはダミー応答する */
      if (UPDI::check_sig()) break;
      /* terminal mode でなければLED高速点滅 */
      if (bit_is_clear(UPDI_CONTROL, UPDI::UPDI_TERM_bp)) TIM::LED_Fast();
      if (bit_is_clear(UPDI_CONTROL, UPDI::UPDI_PROG_bp)
      || !UPDI::runtime(UPDI::UPDI_CMD_READ_MEMORY)) {
    162a:	81 e0       	ldi	r24, 0x01	; 1
    162c:	5c d9       	rcall	.-3400   	; 0x8e6 <UPDI::runtime(unsigned char)>
    162e:	81 11       	cpse	r24, r1
    1630:	00 cf       	rjmp	.-512    	; 0x1432 <main+0x390>
    1632:	f8 cf       	rjmp	.-16     	; 0x1624 <main+0x582>
/Users/askn/Documents/Zinnia-tools/Products/hardware/UPDI4AVR/libraries/UPDI4AVR/examples/UPDI4AVR_FW753B/src/JTAG2.cpp:316
      }
      break;
    }
    case JTAG2::CMND_WRITE_MEMORY : {
      JTAG2::set_response(
        UPDI::runtime(UPDI::UPDI_CMD_WRITE_MEMORY)
    1634:	82 e0       	ldi	r24, 0x02	; 2
    1636:	57 d9       	rcall	.-3410   	; 0x8e6 <UPDI::runtime(unsigned char)>
    1638:	81 11       	cpse	r24, r1
/Users/askn/Documents/Zinnia-tools/Products/hardware/UPDI4AVR/libraries/UPDI4AVR/examples/UPDI4AVR_FW753B/src/JTAG2.cpp:315
        JTAG2::set_response(JTAG2::RSP_ILLEGAL_MCU_STATE);
      }
      break;
    }
    case JTAG2::CMND_WRITE_MEMORY : {
      JTAG2::set_response(
    163a:	a0 ce       	rjmp	.-704    	; 0x137c <main+0x2da>
main():
    163c:	82 ea       	ldi	r24, 0xA2	; 162
    163e:	90 e0       	ldi	r25, 0x00	; 0
    1640:	3b cf       	rjmp	.-394    	; 0x14b8 <main+0x416>
process_command():
/Users/askn/Documents/Zinnia-tools/Products/hardware/UPDI4AVR/libraries/UPDI4AVR/examples/UPDI4AVR_FW753B/src/JTAG2.cpp:323
        : JTAG2::RSP_ILLEGAL_MEMORY_TYPE
      );
      break;
    }
    case JTAG2::CMND_XMEGA_ERASE : {
      uint8_t c = UPDI_CONTROL;
    1642:	cc b3       	in	r28, 0x1c	; 28
/Users/askn/Documents/Zinnia-tools/Products/hardware/UPDI4AVR/libraries/UPDI4AVR/examples/UPDI4AVR_FW753B/src/JTAG2.cpp:325
      JTAG2::set_response(
        UPDI::runtime(UPDI::UPDI_CMD_ERASE)
    1644:	83 e0       	ldi	r24, 0x03	; 3
    1646:	4f d9       	rcall	.-3426   	; 0x8e6 <UPDI::runtime(unsigned char)>
    1648:	81 11       	cpse	r24, r1
/Users/askn/Documents/Zinnia-tools/Products/hardware/UPDI4AVR/libraries/UPDI4AVR/examples/UPDI4AVR_FW753B/src/JTAG2.cpp:324
      );
      break;
    }
    case JTAG2::CMND_XMEGA_ERASE : {
      uint8_t c = UPDI_CONTROL;
      JTAG2::set_response(
    164a:	11 c0       	rjmp	.+34     	; 0x166e <main+0x5cc>
main():
    164c:	85 ea       	ldi	r24, 0xA5	; 165
    164e:	90 e0       	ldi	r25, 0x00	; 0
process_command():
    1650:	0e 94 fa 01 	call	0x3f4	; 0x3f4 <JTAG2::set_response(JTAG2::jtag_response_e)>
    1654:	c0 fd       	sbrc	r28, 0
/Users/askn/Documents/Zinnia-tools/Products/hardware/UPDI4AVR/libraries/UPDI4AVR/examples/UPDI4AVR_FW753B/src/JTAG2.cpp:329
        UPDI::runtime(UPDI::UPDI_CMD_ERASE)
        ? JTAG2::RSP_OK
        : JTAG2::RSP_ILLEGAL_MCU_STATE
      );
      if (!(c & _BV(UPDI::UPDI_INFO_bp)) && bit_is_set(UPDI_CONTROL, UPDI::UPDI_INFO_bp))
    1656:	ed ce       	rjmp	.-550    	; 0x1432 <main+0x390>
    1658:	e0 9b       	sbis	0x1c, 0	; 28
    165a:	eb ce       	rjmp	.-554    	; 0x1432 <main+0x390>
    165c:	80 92 62 38 	sts	0x3862, r8	; 0x803862 <JTAG2::packet+0x3>
/Users/askn/Documents/Zinnia-tools/Products/hardware/UPDI4AVR/libraries/UPDI4AVR/examples/UPDI4AVR_FW753B/src/JTAG2.cpp:330
        packet.size = 19;
    1660:	90 92 63 38 	sts	0x3863, r9	; 0x803863 <JTAG2::packet+0x4>
    1664:	a0 92 64 38 	sts	0x3864, r10	; 0x803864 <JTAG2::packet+0x5>
    1668:	b0 92 65 38 	sts	0x3865, r11	; 0x803865 <JTAG2::packet+0x6>
    166c:	e2 ce       	rjmp	.-572    	; 0x1432 <main+0x390>
main():
    166e:	80 e8       	ldi	r24, 0x80	; 128
/Users/askn/Documents/Zinnia-tools/Products/hardware/UPDI4AVR/libraries/UPDI4AVR/examples/UPDI4AVR_FW753B/src/JTAG2.cpp:324
      );
      break;
    }
    case JTAG2::CMND_XMEGA_ERASE : {
      uint8_t c = UPDI_CONTROL;
      JTAG2::set_response(
    1670:	90 e0       	ldi	r25, 0x00	; 0
    1672:	ee cf       	rjmp	.-36     	; 0x1650 <main+0x5ae>
process_command():
/Users/askn/Documents/Zinnia-tools/Products/hardware/UPDI4AVR/libraries/UPDI4AVR/examples/UPDI4AVR_FW753B/src/JTAG2.cpp:334
      if (!(c & _BV(UPDI::UPDI_INFO_bp)) && bit_is_set(UPDI_CONTROL, UPDI::UPDI_INFO_bp))
        packet.size = 19;
      break;
    }
    case JTAG2::CMND_GO : {
      if (bit_is_set(UPDI_CONTROL, UPDI::UPDI_PROG_bp)) UPDI::runtime(UPDI::UPDI_CMD_GO);
    1674:	e1 9b       	sbis	0x1c, 1	; 28
    1676:	82 ce       	rjmp	.-764    	; 0x137c <main+0x2da>
    1678:	84 e0       	ldi	r24, 0x04	; 4
    167a:	35 d9       	rcall	.-3478   	; 0x8e6 <UPDI::runtime(unsigned char)>
    167c:	7f ce       	rjmp	.-770    	; 0x137c <main+0x2da>
    167e:	80 e8       	ldi	r24, 0x80	; 128
/Users/askn/Documents/Zinnia-tools/Products/hardware/UPDI4AVR/libraries/UPDI4AVR/examples/UPDI4AVR_FW753B/src/JTAG2.cpp:339
      JTAG2::set_response(JTAG2::RSP_OK);
      break;
    }
    case JTAG2::CMND_SIGN_OFF : {
      JTAG2::set_response(JTAG2::RSP_OK);
    1680:	90 e0       	ldi	r25, 0x00	; 0
    1682:	0e 94 fa 01 	call	0x3f4	; 0x3f4 <JTAG2::set_response(JTAG2::jtag_response_e)>
    1686:	0e 94 29 02 	call	0x452	; 0x452 <JTAG2::answer_transfer()>
flush():
/Users/askn/Documents/Zinnia-tools/Products/hardware/UPDI4AVR/libraries/UPDI4AVR/examples/UPDI4AVR_FW753B/src/JTAG2.cpp:340
      JTAG2::answer_transfer();
    168a:	80 91 24 08 	lds	r24, 0x0824	; 0x800824 <UPDI::nvmprog_key+0x7f7086>
/Users/askn/Documents/Zinnia-tools/Products/hardware/UPDI4AVR/libraries/UPDI4AVR/examples/UPDI4AVR_FW753B/src/JTAG2.cpp:112
  JTAG_USART.STATUS = USART_TXCIF_bm;
  return JTAG_USART.TXDATAL = _data;
}

void JTAG2::flush (void) {
  loop_until_bit_is_set(JTAG_USART.STATUS, USART_TXCIF_bp);
    168e:	86 ff       	sbrs	r24, 6
    1690:	fc cf       	rjmp	.-8      	; 0x168a <main+0x5e8>
WDT_REBOOT():
    1692:	81 e0       	ldi	r24, 0x01	; 1
/Users/askn/Documents/Zinnia-tools/Products/hardware/UPDI4AVR/libraries/UPDI4AVR/examples/UPDI4AVR_FW753B/src/SYS.cpp:142

void SYS::WDT_ON (void) { WDT_SET(WDT_PERIOD_8KCLK_gc); }

void SYS::WDT_REBOOT (void) {
  WDT_SET(WDT_PERIOD_8CLK_gc);
    1694:	0e 94 d6 01 	call	0x3ac	; 0x3ac <SYS::WDT_SET(unsigned char)>
    1698:	ff cf       	rjmp	.-2      	; 0x1698 <main+0x5f6>
process_command():
    169a:	80 91 73 38 	lds	r24, 0x3873	; 0x803873 <JTAG2::packet+0x14>
/Users/askn/Documents/Zinnia-tools/Products/hardware/UPDI4AVR/libraries/UPDI4AVR/examples/UPDI4AVR_FW753B/src/JTAG2.cpp:349
      SYS::WDT_REBOOT();
      /* Session Complete */
    }
    // Ex) struct xmega_device_desc
    case JTAG2::CMND_SET_XMEGA_PARAMS : {
      NVM::nvm_eeprom_offset   = _CAPS32(packet.body[12])->dword;
    169e:	90 91 74 38 	lds	r25, 0x3874	; 0x803874 <JTAG2::packet+0x15>
    16a2:	a0 91 75 38 	lds	r26, 0x3875	; 0x803875 <JTAG2::packet+0x16>
    16a6:	b0 91 76 38 	lds	r27, 0x3876	; 0x803876 <JTAG2::packet+0x17>
    16aa:	80 93 5b 38 	sts	0x385B, r24	; 0x80385b <NVM::nvm_eeprom_offset>
    16ae:	90 93 5c 38 	sts	0x385C, r25	; 0x80385c <NVM::nvm_eeprom_offset+0x1>
    16b2:	a0 93 5d 38 	sts	0x385D, r26	; 0x80385d <NVM::nvm_eeprom_offset+0x2>
    16b6:	b0 93 5e 38 	sts	0x385E, r27	; 0x80385e <NVM::nvm_eeprom_offset+0x3>
    16ba:	80 91 7f 38 	lds	r24, 0x387F	; 0x80387f <JTAG2::packet+0x20>
/Users/askn/Documents/Zinnia-tools/Products/hardware/UPDI4AVR/libraries/UPDI4AVR/examples/UPDI4AVR_FW753B/src/JTAG2.cpp:351
    //NVM::nvm_fuse_offset     = _CAPS32(packet.body[16])->dword;
      NVM::nvm_user_sig_offset = _CAPS32(packet.body[24])->dword;
    16be:	90 91 80 38 	lds	r25, 0x3880	; 0x803880 <JTAG2::packet+0x21>
    16c2:	a0 91 81 38 	lds	r26, 0x3881	; 0x803881 <JTAG2::packet+0x22>
    16c6:	b0 91 82 38 	lds	r27, 0x3882	; 0x803882 <JTAG2::packet+0x23>
    16ca:	80 93 57 38 	sts	0x3857, r24	; 0x803857 <NVM::nvm_user_sig_offset>
    16ce:	90 93 58 38 	sts	0x3858, r25	; 0x803858 <NVM::nvm_user_sig_offset+0x1>
    16d2:	a0 93 59 38 	sts	0x3859, r26	; 0x803859 <NVM::nvm_user_sig_offset+0x2>
    16d6:	b0 93 5a 38 	sts	0x385A, r27	; 0x80385a <NVM::nvm_user_sig_offset+0x3>
    16da:	80 91 91 38 	lds	r24, 0x3891	; 0x803891 <JTAG2::packet+0x32>
/Users/askn/Documents/Zinnia-tools/Products/hardware/UPDI4AVR/libraries/UPDI4AVR/examples/UPDI4AVR_FW753B/src/JTAG2.cpp:353
    //NVM::nvm_data_offset     = _CAPS32(packet.body[32])->dword;
      NVM::flash_page_size     = _CAPS16(packet.body[42])->word;
    16de:	90 91 92 38 	lds	r25, 0x3892	; 0x803892 <JTAG2::packet+0x33>
    16e2:	80 93 55 38 	sts	0x3855, r24	; 0x803855 <NVM::flash_page_size>
    16e6:	90 93 56 38 	sts	0x3856, r25	; 0x803856 <NVM::flash_page_size+0x1>
    16ea:	80 91 57 38 	lds	r24, 0x3857	; 0x803857 <NVM::nvm_user_sig_offset>
/Users/askn/Documents/Zinnia-tools/Products/hardware/UPDI4AVR/libraries/UPDI4AVR/examples/UPDI4AVR_FW753B/src/JTAG2.cpp:356
    //NVM::eeprom_page_size    = packet.body[46];
      // AVR_DA/DB/DD/EA
      if (_CAPS32(NVM::nvm_user_sig_offset)->bytes[0] == 0x80) {
    16ee:	80 38       	cpi	r24, 0x80	; 128
    16f0:	09 f0       	breq	.+2      	; 0x16f4 <main+0x652>
    16f2:	44 ce       	rjmp	.-888    	; 0x137c <main+0x2da>
    16f4:	80 e0       	ldi	r24, 0x00	; 0
/Users/askn/Documents/Zinnia-tools/Products/hardware/UPDI4AVR/libraries/UPDI4AVR/examples/UPDI4AVR_FW753B/src/JTAG2.cpp:357
        NVM::nvm_flash_offset  = 0x800000;
    16f6:	90 e0       	ldi	r25, 0x00	; 0
    16f8:	a0 e8       	ldi	r26, 0x80	; 128
    16fa:	b0 e0       	ldi	r27, 0x00	; 0
    16fc:	80 93 51 38 	sts	0x3851, r24	; 0x803851 <NVM::nvm_flash_offset>
    1700:	90 93 52 38 	sts	0x3852, r25	; 0x803852 <NVM::nvm_flash_offset+0x1>
    1704:	a0 93 53 38 	sts	0x3853, r26	; 0x803853 <NVM::nvm_flash_offset+0x2>
    1708:	b0 93 54 38 	sts	0x3854, r27	; 0x803854 <NVM::nvm_flash_offset+0x3>
    170c:	e9 9a       	sbi	0x1d, 1	; 29
/Users/askn/Documents/Zinnia-tools/Products/hardware/UPDI4AVR/libraries/UPDI4AVR/examples/UPDI4AVR_FW753B/src/JTAG2.cpp:358
        UPDI_NVMCTRL |= _BV(UPDI::UPDI_GEN2_bp);
    170e:	36 ce       	rjmp	.-916    	; 0x137c <main+0x2da>

00001710 <setjmp>:
setjmp():
    1710:	dc 01       	movw	r26, r24
    1712:	2d 92       	st	X+, r2
    1714:	3d 92       	st	X+, r3
    1716:	4d 92       	st	X+, r4
    1718:	5d 92       	st	X+, r5
    171a:	6d 92       	st	X+, r6
    171c:	7d 92       	st	X+, r7
    171e:	8d 92       	st	X+, r8
    1720:	9d 92       	st	X+, r9
    1722:	ad 92       	st	X+, r10
    1724:	bd 92       	st	X+, r11
    1726:	cd 92       	st	X+, r12
    1728:	dd 92       	st	X+, r13
    172a:	ed 92       	st	X+, r14
    172c:	fd 92       	st	X+, r15
    172e:	0d 93       	st	X+, r16
    1730:	1d 93       	st	X+, r17
    1732:	cd 93       	st	X+, r28
    1734:	dd 93       	st	X+, r29
    1736:	ff 91       	pop	r31
    1738:	ef 91       	pop	r30
    173a:	8d b7       	in	r24, 0x3d	; 61
    173c:	8d 93       	st	X+, r24
    173e:	8e b7       	in	r24, 0x3e	; 62
    1740:	8d 93       	st	X+, r24
    1742:	8f b7       	in	r24, 0x3f	; 63
    1744:	8d 93       	st	X+, r24
    1746:	ed 93       	st	X+, r30
    1748:	fd 93       	st	X+, r31
    174a:	88 27       	eor	r24, r24
    174c:	99 27       	eor	r25, r25
    174e:	09 94       	ijmp

00001750 <longjmp>:
longjmp():
    1750:	dc 01       	movw	r26, r24
    1752:	cb 01       	movw	r24, r22
    1754:	81 30       	cpi	r24, 0x01	; 1
    1756:	91 05       	cpc	r25, r1
    1758:	81 1d       	adc	r24, r1
    175a:	2d 90       	ld	r2, X+
    175c:	3d 90       	ld	r3, X+
    175e:	4d 90       	ld	r4, X+
    1760:	5d 90       	ld	r5, X+
    1762:	6d 90       	ld	r6, X+
    1764:	7d 90       	ld	r7, X+
    1766:	8d 90       	ld	r8, X+
    1768:	9d 90       	ld	r9, X+
    176a:	ad 90       	ld	r10, X+
    176c:	bd 90       	ld	r11, X+
    176e:	cd 90       	ld	r12, X+
    1770:	dd 90       	ld	r13, X+
    1772:	ed 90       	ld	r14, X+
    1774:	fd 90       	ld	r15, X+
    1776:	0d 91       	ld	r16, X+
    1778:	1d 91       	ld	r17, X+
    177a:	cd 91       	ld	r28, X+
    177c:	dd 91       	ld	r29, X+
    177e:	ed 91       	ld	r30, X+
    1780:	fd 91       	ld	r31, X+
    1782:	0d 90       	ld	r0, X+
    1784:	0f be       	out	0x3f, r0	; 63
    1786:	ed bf       	out	0x3d, r30	; 61
    1788:	fe bf       	out	0x3e, r31	; 62
    178a:	ed 91       	ld	r30, X+
    178c:	fd 91       	ld	r31, X+
    178e:	09 94       	ijmp

00001790 <_exit>:
exit():
    1790:	f8 94       	cli

00001792 <__stop_program>:
__stop_program():
    1792:	ff cf       	rjmp	.-2      	; 0x1792 <__stop_program>

Disassembly of section .nvmem:

000017e0 <.nvmem>:
	...
